 Project1.exe

 Timestamp is 588f8735 (Mon Jan 30 15:34:29 2017)

 Preferred load address is 00400000

 Start         Length     Name                   Class
 0001:00000000 00114b60H .text                   CODE                  
 0002:00000000 000c5644H .rdata                  DATA                  
 0002:000c5644 00000100H .CRT$XIC                DATA                  
 0003:00000000 00000874H .rsrc                   DATA                  
 0004:00000000 0002aba4H .data                   DATA                  
 0004:0002aba4 0000017cH .idata$2                DATA                  
 0004:0002ad20 00000014H .idata$3                DATA                  
 0004:0002ad34 00000b3cH .idata$4                DATA                  
 0004:0002b870 00000b3cH .idata$5                DATA                  
 0004:0002c3ac 0000308cH .idata$6                DATA                  
 0004:0002f438 0000aa84H .bss                    DATA                  

  Address         Publics by Value              Rva+Base     Lib:Object

 0001:00000050       _HB_FUN_MAIN               00401050 f   Project1_Main.obj
 0001:000000c0       _HB_FUN___PROJECT1         004010c0 f   Project1_XFM.obj
 0001:00000180       _HB_FUN_FORM1              00401180 f   Form1.obj
 0001:00000400       _HB_FUN_RETORNATAMANHOBUFFER 00401400 f   Form1.obj
 0001:00000530       _HB_FUN___GETAPPLICATION   00401530 f   VXH:Application.obj
 0001:00000570       _HB_FUN_GPFCATCH           00401570 f   VXH:Application.obj
 0001:00000590       _HB_FUN_APPLICATION        00401590 f   VXH:Application.obj
 0001:00000790       _HB_FUN___ALERTDLG         00401790 f   VXH:Application.obj
 0001:000007f0       _HB_FUN_ERRORSYS           004017f0 f   VXH:Application.obj
 0001:00000890       _HB_FUN_GETPROCSTACK       00401890 f   VXH:Application.obj
 0001:00000910       _HB_FUN_ERRDIALOG          00401910 f   VXH:Application.obj
 0001:00000930       _HB_FUN___ERRORDLGPROC     00401930 f   VXH:Application.obj
 0001:00000950       _HB_FUN___DRAWDNARROW      00401950 f   VXH:Application.obj
 0001:00000970       _HB_FUN_MEMORYTABLE        00401970 f   VXH:Application.obj
 0001:00000990       _HB_FUN_WF_QUITONERROR     00401990 f   VXH:Application.obj
 0001:00000a20       _HB_FUN_WINDOW             00401a20 f   VXH:Window.obj
 0001:00000e00       _HB_FUN_CHECKCONTROLNAME   00401e00 f   VXH:Window.obj
 0001:00000e20       _HB_FUN_EXECUTEEVENT       00401e20 f   VXH:Window.obj
 0001:000012e0       _HB_FUN___EVALUATE         004022e0 f   VXH:Window.obj
 0001:00001300       _HB_FUN___WINDOWDOCK       00402300 f   VXH:Window.obj
 0001:000013c0       _HB_FUN___ANCHORSET        004023c0 f   VXH:Window.obj
 0001:00001440       _HB_FUN_HSLTORGB           00402440 f   VXH:Window.obj
 0001:00001460       _HB_FUN_RGBTOHSL           00402460 f   VXH:Window.obj
 0001:00001480       _HB_FUN___FADECOLOR        00402480 f   VXH:Window.obj
 0001:000014a0       _HB_FUN_STRTRIM            004024a0 f   VXH:Window.obj
 0001:000014c0       _HB_FUN___GETICONSIZE      004024c0 f   VXH:Window.obj
 0001:000014e0       _HB_FUN___FONTCREATE       004024e0 f   VXH:Window.obj
 0001:00001500       _HB_FUN___STR2A            00402500 f   VXH:Window.obj
 0001:00001520       _HB_FUN___A2STR            00402520 f   VXH:Window.obj
 0001:00001540       _HB_FUN___ASSTRING         00402540 f   VXH:Window.obj
 0001:00001560       _HB_FUN___DRAWSPECIALCHAR  00402560 f   VXH:Window.obj
 0001:00001580       _HB_FUN___DRAW3DRECT       00402580 f   VXH:Window.obj
 0001:000015a0       _HB_FUN_OFFSET             004025a0 f   VXH:Window.obj
 0001:000015c0       _HB_FUN_ISCHILDOFACTIVEWINDOW 004025c0 f   VXH:Window.obj
 0001:000015e0       _HB_FUN___DELETEEVENTS     004025e0 f   VXH:Window.obj
 0001:00001600       _HB_FUN_WINFORM            00402600 f   VXH:Window.obj
 0001:000019c0       _HB_FUN___BROWSECHILDREN   004029c0 f   VXH:Window.obj
 0001:000019e0       _HB_FUN_XSTR               004029e0 f   VXH:Window.obj
 0001:00001a00       _HB_FUN_ASSOCIATEWITH      00402a00 f   VXH:Window.obj
 0001:00001a20       _HB_FUN___ANIMATION        00402a20 f   VXH:Window.obj
 0001:00001a60       _HB_FUN___SETINITIALVALUES 00402a60 f   VXH:Window.obj
 0001:00001a80       _HB_FUN_GETDESKTOPRECT     00402a80 f   VXH:Window.obj
 0001:00001aa0       _HB_FUN___CHKCOMPONENT     00402aa0 f   VXH:Window.obj
 0001:00001ac0       _HB_FUN_TRACEDBG           00402ac0 f   VXH:Window.obj
 0001:00001ae0       _HB_FUN_KEYCOUNTRAW        00402ae0 f   VXH:Window.obj
 0001:00001b00       _HB_FUN_AEVENTS            00402b00 f   VXH:Window.obj
 0001:00001b90       _HB_FUN_BUTTON             00402b90 f   VXH:Button.obj
 0001:00001d70       _HB_FUN_COMMANDLINK        00402d70 f   VXH:Button.obj
 0001:00001e80       _HB_FUN_EDITBOX            00402e80 f   VXH:Edit.obj
 0001:000023a0       _HB_FUN_EDIT               004033a0 f   VXH:Edit.obj
 0001:00002430       _HB_FUN_LABEL              00403430 f   VXH:Label.obj
 0001:00002530       _HB_FUN_LINE               00403530 f   VXH:Label.obj
 0001:000026a0       _HB_FUN_CHECKBOX           004036a0 f   VXH:CheckBox.obj
 0001:00002850       _HB_FUN_COMBOBOX           00403850 f   VXH:ComboBox.obj
 0001:00002b50       _HB_FUN_DRIVECOMBOBOX      00403b50 f   VXH:ComboBox.obj
 0001:00002bd0       _HB_FUN_COLORPICKER        00403bd0 f   VXH:ComboBox.obj
 0001:00002c90       _HB_FUN_CURSORCOMBOBOX     00403c90 f   VXH:ComboBox.obj
 0001:00002d10       _HB_FUN_FONTCOMBOBOX       00403d10 f   VXH:ComboBox.obj
 0001:00002d90       _HB_FUN_COMBOBOXEX         00403d90 f   VXH:ComboBox.obj
 0001:00002e90       _HB_FUN_FORMCOMBOBOX       00403e90 f   VXH:ComboBox.obj
 0001:00002f50       _HB_FUN_GETOBJCHILDREN     00403f50 f   VXH:ComboBox.obj
 0001:00003100       _OutputDebugValues         00404100 f   VXH:winapi.obj
 0001:000039d0       _HB_FUN_GLOBALSTRING       004049d0 f   VXH:winapi.obj
 0001:00003a70       _HB_FUN_FREEGLOBALSTRING   00404a70 f   VXH:winapi.obj
 0001:00003b10       _HB_FUN_HB_POINTER2STRING  00404b10 f   VXH:winapi.obj
 0001:00003c10       _HB_FUN_ARRAYPOINTER       00404c10 f   VXH:winapi.obj
 0001:00003c70       _HB_FUN_STRINGPOINTER      00404c70 f   VXH:winapi.obj
 0001:00003cc0       _HB_FUN___GETOBJID         00404cc0 f   VXH:winapi.obj
 0001:00003d20       _HB_FUN_LONGFROMPOINTER    00404d20 f   VXH:winapi.obj
 0001:00003db0       _HB_FUN_ARRAYFROMPOINTER   00404db0 f   VXH:winapi.obj
 0001:00003e70       _HB_FUN_ARRAYPOINTERSCOUNT 00404e70 f   VXH:winapi.obj
 0001:00003e90       _HB_FUN_RELEASEARRAYPOINTER 00404e90 f   VXH:winapi.obj
 0001:00003f20       _HB_FUN_REGISTERCLASS      00404f20 f   VXH:winapi.obj
 0001:00003fb0       _HB_FUN_UNREGISTERCLASS    00404fb0 f   VXH:winapi.obj
 0001:00004000       _HB_FUN_REGISTERCLASSEX    00405000 f   VXH:winapi.obj
 0001:00004090       _HB_FUN_CREATEWINDOW       00405090 f   VXH:winapi.obj
 0001:00004150       _HB_FUN_CREATEWINDOWEX     00405150 f   VXH:winapi.obj
 0001:000042a0       _HB_FUN_SHOWWINDOW         004052a0 f   VXH:winapi.obj
 0001:000042f0       _HB_FUN_GETMESSAGE         004052f0 f   VXH:winapi.obj
 0001:00004490       _HB_FUN_ISDIALOGMESSAGE    00405490 f   VXH:winapi.obj
 0001:00004550       _HB_FUN_TRANSLATEMESSAGE   00405550 f   VXH:winapi.obj
 0001:000045f0       _HB_FUN_DISPATCHMESSAGE    004055f0 f   VXH:winapi.obj
 0001:00004690       _HB_FUN_DEFWINDOWPROC      00405690 f   VXH:winapi.obj
 0001:000046e0       _HB_FUN_DEFWINDOWPROCPOINTER 004056e0 f   VXH:winapi.obj
 0001:00004700       _HB_FUN_DEFDLGPROCPOINTER  00405700 f   VXH:winapi.obj
 0001:00004720       _HB_FUN_GETMODULEHANDLE    00405720 f   VXH:winapi.obj
 0001:00004740       _HB_FUN_POSTQUITMESSAGE    00405740 f   VXH:winapi.obj
 0001:00004770       _HB_FUN_SETWINDOWTEXT      00405770 f   VXH:winapi.obj
 0001:000047a0       _HB_FUN_SETFOCUS           004057a0 f   VXH:winapi.obj
 0001:000047c0       _HB_FUN_GETCARETPOS        004057c0 f   VXH:winapi.obj
 0001:00004900       _HB_FUN_SETCARETPOS        00405900 f   VXH:winapi.obj
 0001:00004950       _HB_FUN_GETTEXTEXTENTPOINT32 00405950 f   VXH:winapi.obj
 0001:00004ad0       _HB_FUN_GETDC              00405ad0 f   VXH:winapi.obj
 0001:00004b20       _HB_FUN_RELEASEDC          00405b20 f   VXH:winapi.obj
 0001:00004b90       _HB_FUN_DESTROYWINDOW      00405b90 f   VXH:winapi.obj
 0001:00004bd0       _HB_FUN_GETTEXTMETRICS     00405bd0 f   VXH:winapi.obj
 0001:00004d20       _HB_FUN_SENDMESSAGE        00405d20 f   VXH:winapi.obj
 0001:00004fa0       _HB_FUN_POSTMESSAGE        00405fa0 f   VXH:winapi.obj
 0001:00004ff0       _HB_FUN_TEXTOUT            00405ff0 f   VXH:winapi.obj
 0001:00005070       _HB_FUN_BEGINPAINT         00406070 f   VXH:winapi.obj
 0001:000051b0       _HB_FUN_ENDPAINT           004061b0 f   VXH:winapi.obj
 0001:00005250       _HB_FUN_SETTEXTCOLOR       00406250 f   VXH:winapi.obj
 0001:00005280       _HB_FUN_SETDCPENCOLOR      00406280 f   VXH:winapi.obj
 0001:000052b0       _HB_FUN_SELECTOBJECT       004062b0 f   VXH:winapi.obj
 0001:000052e0       _HB_FUN_CREATEFONT         004062e0 f   VXH:winapi.obj
 0001:000053d0       _HB_FUN_INVALIDATERECT     004063d0 f   VXH:winapi.obj
 0001:00005540       _HB_FUN_FILLRECT           00406540 f   VXH:winapi.obj
 0001:00005630       _HB_FUN_CALLWINDOWPROC     00406630 f   VXH:winapi.obj
 0001:00005690       _HB_FUN_SETWINDOWLONG      00406690 f   VXH:winapi.obj
 0001:00005750       _HB_FUN_GETWINDOWLONG      00406750 f   VXH:winapi.obj
 0001:00005780       _HB_FUN_GETCLASSINFO       00406780 f   VXH:winapi.obj
 0001:00005990       _HB_FUN_GETSYSCOLORBRUSH   00406990 f   VXH:winapi.obj
 0001:000059b0       _HB_FUN_GETCLIENTRECT      004069b0 f   VXH:winapi.obj
 0001:00005af0       _HB_FUN_LOADCURSOR         00406af0 f   VXH:winapi.obj
 0001:00005b50       _HB_FUN_LOADCURSORFROMFILE 00406b50 f   VXH:winapi.obj
 0001:00005b70       _HB_FUN_COPYICON           00406b70 f   VXH:winapi.obj
 0001:00005b90       _HB_FUN_SETCURSOR          00406b90 f   VXH:winapi.obj
 0001:00005bb0       _HB_FUN_GETCURSOR          00406bb0 f   VXH:winapi.obj
 0001:00005bd0       _HB_FUN_OUTPUTDEBUGSTRING  00406bd0 f   VXH:winapi.obj
 0001:00005bf0       _HB_FUN_DEFDLGPROC         00406bf0 f   VXH:winapi.obj
 0001:00005c40       _HB_FUN_GETNEXTDLGTABITEM  00406c40 f   VXH:winapi.obj
 0001:00005c80       _HB_FUN_SETCLASSLONG       00406c80 f   VXH:winapi.obj
 0001:00005cc0       _HB_FUN_GETACTIVEWINDOW    00406cc0 f   VXH:winapi.obj
 0001:00005ce0       _HB_FUN_GETFOCUS           00406ce0 f   VXH:winapi.obj
 0001:00005d00       _HB_FUN_CREATEMUTEX        00406d00 f   VXH:winapi.obj
 0001:00005db0       _HB_FUN_RELEASEMUTEX       00406db0 f   VXH:winapi.obj
 0001:00005dd0       _HB_FUN_OPENMUTEX          00406dd0 f   VXH:winapi.obj
 0001:00005e10       _HB_FUN_GETMODULEFILENAME  00406e10 f   VXH:winapi.obj
 0001:00005ea0       _HB_FUN_GETLASTERROR       00406ea0 f   VXH:winapi.obj
 0001:00005ec0       _HB_FUN_GETSYSCOLOR        00406ec0 f   VXH:winapi.obj
 0001:00005ee0       _HB_FUN_GETTEMPPATH        00406ee0 f   VXH:winapi.obj
 0001:00005f30       _HB_FUN_GETWINDOWSDIRECTORY 00406f30 f   VXH:winapi.obj
 0001:00005f80       _HB_FUN_CREATEACCELERATORTABLE 00406f80 f   VXH:winapi.obj
 0001:00006060       _HB_FUN_DESTROYACCELERATORTABLE 00407060 f   VXH:winapi.obj
 0001:000060a0       _HB_FUN_LOADICON           004070a0 f   VXH:winapi.obj
 0001:00006120       _HB_FUN_INITCOMMONCONTROLS 00407120 f   VXH:winapi.obj
 0001:00006130       _HB_FUN_INITCOMMONCONTROLSEX 00407130 f   VXH:winapi.obj
 0001:00006180       _HB_FUN_GETVERSIONEX       00407180 f   VXH:winapi.obj
 0001:000062e0       _HB_FUN_GETANCESTOR        004072e0 f   VXH:winapi.obj
 0001:00006340       _HB_FUN_TRANSLATEACCELERATOR 00407340 f   VXH:winapi.obj
 0001:00006400       _HB_FUN_TRANSLATEMDISYSACCEL 00407400 f   VXH:winapi.obj
 0001:000064b0       _HB_FUN_PEEKMESSAGE        004074b0 f   VXH:winapi.obj
 0001:00006660       _HB_FUN_DELETEOBJECT       00407660 f   VXH:winapi.obj
 0001:000066a0       _HB_FUN_CREATESOLIDBRUSH   004076a0 f   VXH:winapi.obj
 0001:000066c0       _HB_FUN_GETRVALUE          004076c0 f   VXH:winapi.obj
 0001:000066f0       _HB_FUN_GETGVALUE          004076f0 f   VXH:winapi.obj
 0001:00006720       _HB_FUN_GETBVALUE          00407720 f   VXH:winapi.obj
 0001:00006750       _HB_FUN_ISWINDOWVISIBLE    00407750 f   VXH:winapi.obj
 0001:00006790       _HB_FUN_ISWINDOW           00407790 f   VXH:winapi.obj
 0001:000067d0       _HB_FUN_GETWINDOWTEXT      004077d0 f   VXH:winapi.obj
 0001:000068a0       _HB_FUN_GETWINDOWTEXTLENGTH 004078a0 f   VXH:winapi.obj
 0001:000068d0       _HB_FUN_ENABLEWINDOW       004078d0 f   VXH:winapi.obj
 0001:00006900       _HB_FUN_LOCKWINDOWUPDATE   00407900 f   VXH:winapi.obj
 0001:00006940       _HB_FUN_FINDWINDOWEX       00407940 f   VXH:winapi.obj
 0001:00006990       _HB_FUN_SETSCROLLINFO      00407990 f   VXH:winapi.obj
 0001:00006a60       _HB_FUN_TRACKMOUSEEVENT    00407a60 f   VXH:winapi.obj
 0001:00006b40       _HB_FUN_GETSCROLLBARINFO   00407b40 f   VXH:winapi.obj
 0001:00006d00       _HB_FUN_SETWINDOWPLACEMENT 00407d00 f   VXH:winapi.obj
 0001:00006dc0       _HB_FUN_GETWINDOWPLACEMENT 00407dc0 f   VXH:winapi.obj
 0001:00006f10       _HB_FUN_GETWINDOWINFO      00407f10 f   VXH:winapi.obj
 0001:00007060       _HB_FUN_GETDESKTOPWINDOW   00408060 f   VXH:winapi.obj
 0001:00007080       _HB_FUN_DEFFRAMEPROC       00408080 f   VXH:winapi.obj
 0001:000070e0       _HB_FUN_DEFMDICHILDPROC    004080e0 f   VXH:winapi.obj
 0001:00007130       _HB_FUN_GETSCROLLINFO      00408130 f   VXH:winapi.obj
 0001:00007290       _HB_FUN_GETICONINFO        00408290 f   VXH:winapi.obj
 0001:000073d0       _HB_FUN_GETMENUITEMINFO    004083d0 f   VXH:winapi.obj
 0001:000074f0       _HB_FUN_GETMENUSTRING      004084f0 f   VXH:winapi.obj
 0001:00007570       _HB_FUN_GETMENUITEMID      00408570 f   VXH:winapi.obj
 0001:000075b0       _HB_FUN_GETMENUITEMCOUNT   004085b0 f   VXH:winapi.obj
 0001:000075e0       _HB_FUN_GETSYSTEMMENU      004085e0 f   VXH:winapi.obj
 0001:00007610       _HB_FUN_CREATEPOPUPMENU    00408610 f   VXH:winapi.obj
 0001:00007630       _HB_FUN_LOWORD             00408630 f   VXH:winapi.obj
 0001:00007660       _HB_FUN_HIWORD             00408660 f   VXH:winapi.obj
 0001:00007690       _HB_FUN_MAKELONG           00408690 f   VXH:winapi.obj
 0001:000076d0       _HB_FUN_SHOWCARET          004086d0 f   VXH:winapi.obj
 0001:00007710       _HB_FUN_HIDECARET          00408710 f   VXH:winapi.obj
 0001:00007750       _HB_FUN_CREATECARET        00408750 f   VXH:winapi.obj
 0001:000077c0       _HB_FUN_DESTROYCARET       004087c0 f   VXH:winapi.obj
 0001:000077f0       _HB_FUN_SETCAPTURE         004087f0 f   VXH:winapi.obj
 0001:00007810       _HB_FUN_RELEASECAPTURE     00408810 f   VXH:winapi.obj
 0001:00007840       _HB_FUN_GETOPENCLIPBOARDWINDOW 00408840 f   VXH:winapi.obj
 0001:00007860       _HB_FUN_OPENCLIPBOARD      00408860 f   VXH:winapi.obj
 0001:000078a0       _HB_FUN_EMPTYCLIPBOARD     004088a0 f   VXH:winapi.obj
 0001:000078d0       _HB_FUN_SCROLLWINDOW       004088d0 f   VXH:winapi.obj
 0001:000079e0       _HB_FUN_SETACTIVEWINDOW    004089e0 f   VXH:winapi.obj
 0001:00007a00       _HB_FUN_BRINGWINDOWTOTOP   00408a00 f   VXH:winapi.obj
 0001:00007a40       _HB_FUN_CREATECOMPATIBLEDC 00408a40 f   VXH:winapi.obj
 0001:00007a60       _HB_FUN_WINDOWFROMDC       00408a60 f   VXH:winapi.obj
 0001:00007a80       _HB_FUN_GETWINDOWDC        00408a80 f   VXH:winapi.obj
 0001:00007aa0       _HB_FUN_CREATEDC           00408aa0 f   VXH:winapi.obj
 0001:00007b60       _HB_FUN_RESETDC            00408b60 f   VXH:winapi.obj
 0001:00007c40       _HB_FUN_GETDCORGEX         00408c40 f   VXH:winapi.obj
 0001:00007d30       _HB_FUN_OFFSETRECT         00408d30 f   VXH:winapi.obj
 0001:00007e30       _HB_FUN_SCREENTOCLIENT     00408e30 f   VXH:winapi.obj
 0001:00007f20       _HB_FUN_CLIENTTOSCREEN     00408f20 f   VXH:winapi.obj
 0001:00008010       _HB_FUN_SETWINDOWPOS       00409010 f   VXH:winapi.obj
 0001:000080a0       _HB_FUN_BEGINDEFERWINDOWPOS 004090a0 f   VXH:winapi.obj
 0001:000080c0       _HB_FUN_DEFERWINDOWPOS     004090c0 f   VXH:winapi.obj
 0001:00008150       _HB_FUN_ENDDEFERWINDOWPOS  00409150 f   VXH:winapi.obj
 0001:00008190       _HB_FUN_SENDDLGITEMMESSAGE 00409190 f   VXH:winapi.obj
 0001:00008250       _HB_FUN_REDRAWWINDOW       00409250 f   VXH:winapi.obj
 0001:000083b0       _HB_FUN_ISWINDOWENABLED    004093b0 f   VXH:winapi.obj
 0001:000083f0       _HB_FUN_VALIDATERECT       004093f0 f   VXH:winapi.obj
 0001:00008500       _HB_FUN_MAPWINDOWPOINTS    00409500 f   VXH:winapi.obj
 0001:00008610       _HB_FUN_DELETEDC           00409610 f   VXH:winapi.obj
 0001:00008650       _HB_FUN_DELETEMENU         00409650 f   VXH:winapi.obj
 0001:000086b0       _HB_FUN_SETMENUITEMINFO    004096b0 f   VXH:winapi.obj
 0001:00008790       _HB_FUN_INSERTMENUITEM     00409790 f   VXH:winapi.obj
 0001:00008870       _HB_FUN_ISMENU             00409870 f   VXH:winapi.obj
 0001:000088b0       _HB_FUN_SETMENUDEFAULTITEM 004098b0 f   VXH:winapi.obj
 0001:000088f0       _HB_FUN_SETMENU            004098f0 f   VXH:winapi.obj
 0001:00008940       _HB_FUN_GETMENU            00409940 f   VXH:winapi.obj
 0001:00008960       _HB_FUN_CREATEMENU         00409960 f   VXH:winapi.obj
 0001:00008980       _HB_FUN_APPENDMENU         00409980 f   VXH:winapi.obj
 0001:000089f0       _HB_FUN_INSERTMENU         004099f0 f   VXH:winapi.obj
 0001:00008a70       _HB_FUN_MODIFYMENU         00409a70 f   VXH:winapi.obj
 0001:00008af0       _HB_FUN_TRACKPOPUPMENU     00409af0 f   VXH:winapi.obj
 0001:00008b60       _HB_FUN_SETFOREGROUNDWINDOW 00409b60 f   VXH:winapi.obj
 0001:00008ba0       _HB_FUN_GETFOREGROUNDWINDOW 00409ba0 f   VXH:winapi.obj
 0001:00008bc0       _HB_FUN_GETCLASSLONG       00409bc0 f   VXH:winapi.obj
 0001:00008bf0       _HB_FUN_CALLNEXTHOOKEX     00409bf0 f   VXH:winapi.obj
 0001:00008c40       _HB_FUN_MENUITEMFROMPOINT  00409c40 f   VXH:winapi.obj
 0001:00008d00       _HB_FUN_GETCLASSNAME       00409d00 f   VXH:winapi.obj
 0001:00008d50       _HB_FUN_DESTROYMENU        00409d50 f   VXH:winapi.obj
 0001:00008d90       _HB_FUN_GETCURRENTTHREADID 00409d90 f   VXH:winapi.obj
 0001:00008db0       _HB_FUN_POSTTHREADMESSAGE  00409db0 f   VXH:winapi.obj
 0001:00008e20       _HB_FUN_POLYGON            00409e20 f   VXH:winapi.obj
 0001:00008f40       _HB_FUN_MOVEWINDOW         00409f40 f   VXH:winapi.obj
 0001:00009000       _HB_FUN_UPDATEWINDOW       0040a000 f   VXH:winapi.obj
 0001:00009040       _HB_FUN_SETTIMER           0040a040 f   VXH:winapi.obj
 0001:000090d0       _HB_FUN_KILLTIMER          0040a0d0 f   VXH:winapi.obj
 0001:00009120       _HB_FUN_LOADIMAGE          0040a120 f   VXH:winapi.obj
 0001:000091e0       _HB_FUN_LOADBITMAP         0040a1e0 f   VXH:winapi.obj
 0001:00009260       _HB_FUN_CREATEPATTERNBRUSH 0040a260 f   VXH:winapi.obj
 0001:00009280       _HB_FUN_CREATEMDIWINDOW    0040a280 f   VXH:winapi.obj
 0001:00009330       _HB_FUN_GETWINDOWRECT      0040a330 f   VXH:winapi.obj
 0001:00009470       _HB_FUN_DRAWTEXT           0040a470 f   VXH:winapi.obj
 0001:000095f0       _HB_FUN_SETBKMODE          0040a5f0 f   VXH:winapi.obj
 0001:00009630       _HB_FUN_GETSYSTEMMETRICS   0040a630 f   VXH:winapi.obj
 0001:00009660       _HB_FUN_GETKEYSTATE        0040a660 f   VXH:winapi.obj
 0001:000096a0       _HB_FUN_ISKEYDOWN          0040a6a0 f   VXH:winapi.obj
 0001:000096e0       _HB_FUN_CHECKBIT           0040a6e0 f   VXH:winapi.obj
 0001:00009730       _HB_FUN_GETDLGITEM         0040a730 f   VXH:winapi.obj
 0001:00009760       _HB_FUN_SETPARENT          0040a760 f   VXH:winapi.obj
 0001:00009790       _HB_FUN_SETWINDOWRGN       0040a790 f   VXH:winapi.obj
 0001:000097e0       _HB_FUN_GETPROFILESTRING   0040a7e0 f   VXH:winapi.obj
 0001:000098b0       _HB_FUN_GETPRIVATEPROFILESTRING 0040a8b0 f   VXH:winapi.obj
 0001:00009990       _HB_FUN_WRITEPROFILESECTION 0040a990 f   VXH:winapi.obj
 0001:000099e0       _HB_FUN_WRITEPROFILESTRING 0040a9e0 f   VXH:winapi.obj
 0001:00009a40       _HB_FUN_WRITEPRIVATEPROFILESECTION 0040aa40 f   VXH:winapi.obj
 0001:00009aa0       _HB_FUN_GETPRIVATEPROFILEINT 0040aaa0 f   VXH:winapi.obj
 0001:00009b00       _HB_FUN_WRITEPRIVATEPROFILESTRING 0040ab00 f   VXH:winapi.obj
 0001:00009b70       _HB_FUN_GETPROFILEINT      0040ab70 f   VXH:winapi.obj
 0001:00009bc0       _HB_FUN_SYSTEMPARAMETERSINFOFORDPI 0040abc0 f   VXH:winapi.obj
 0001:00009d80       _HB_FUN_SYSTEMPARAMETERSINFO 0040ad80 f   VXH:winapi.obj
 0001:00009f00       _HB_FUN_GETOBJECT          0040af00 f   VXH:winapi.obj
 0001:0000a010       _HB_FUN_CREATEFONTINDIRECT 0040b010 f   VXH:winapi.obj
 0001:0000a0a0       _HB_FUN_CHOOSEFONT         0040b0a0 f   VXH:winapi.obj
 0001:0000a1f0       _HB_FUN_GETSTOCKOBJECT     0040b1f0 f   VXH:winapi.obj
 0001:0000a210       _HB_FUN_GETCURSORPOS       0040b210 f   VXH:winapi.obj
 0001:0000a350       _HB_FUN_CREATERECTRGN      0040b350 f   VXH:winapi.obj
 0001:0000a3a0       _HB_FUN_GETDCEX            0040b3a0 f   VXH:winapi.obj
 0001:0000a3e0       _HB_FUN_PTINRECT           0040b3e0 f   VXH:winapi.obj
 0001:0000a520       _HB_FUN_RECTANGLE          0040b520 f   VXH:winapi.obj
 0001:0000a5a0       _HB_FUN_LINETO             0040b5a0 f   VXH:winapi.obj
 0001:0000a600       _HB_FUN_CREATEPEN          0040b600 f   VXH:winapi.obj
 0001:0000a640       _HB_FUN_MOVETOEX           0040b640 f   VXH:winapi.obj
 0001:0000a740       _HB_FUN_SETBKCOLOR         0040b740 f   VXH:winapi.obj
 0001:0000a770       _HB_FUN_GETBKCOLOR         0040b770 f   VXH:winapi.obj
 0001:0000a790       _HB_FUN_GETTEXTCOLOR       0040b790 f   VXH:winapi.obj
 0001:0000a7b0       _HB_FUN_SETTEXTALIGN       0040b7b0 f   VXH:winapi.obj
 0001:0000a7f0       _HB_FUN_POLYLINE           0040b7f0 f   VXH:winapi.obj
 0001:0000a900       _HB_FUN_EXTTEXTOUT         0040b900 f   VXH:winapi.obj
 0001:0000aaa0       _HB_FUN_DRAWFOCUSRECT      0040baa0 f   VXH:winapi.obj
 0001:0000ab60       _HB_FUN_FRAMERECT          0040bb60 f   VXH:winapi.obj
 0001:0000ac50       _HB_FUN_GETDEVICECAPS      0040bc50 f   VXH:winapi.obj
 0001:0000ac90       _HB_FUN_GETCLIPBOX         0040bc90 f   VXH:winapi.obj
 0001:0000ade0       _HB_FUN_DRAWFRAMECONTROL   0040bde0 f   VXH:winapi.obj
 0001:0000aec0       _HB_FUN_DRAWEDGE           0040bec0 f   VXH:winapi.obj
 0001:0000af90       _HB_FUN_TRANSMITCOMMCHAR   0040bf90 f   VXH:winapi.obj
 0001:0000afe0       _HB_FUN_GETCAPTURE         0040bfe0 f   VXH:winapi.obj
 0001:0000b000       _HB_FUN_DRAWSTATE          0040c000 f   VXH:winapi.obj
 0001:0000b0b0       _HB_FUN_DESTROYICON        0040c0b0 f   VXH:winapi.obj
 0001:0000b0f0       _HB_FUN_DRAWICONEX         0040c0f0 f   VXH:winapi.obj
 0001:0000b1a0       _HB_FUN_GETSUBMENU         0040c1a0 f   VXH:winapi.obj
 0001:0000b1d0       _HB_FUN_GETUSERNAME        0040c1d0 f   VXH:winapi.obj
 0001:0000b230       _HB_FUN_GLOBALMEMORYSTATUSEX 0040c230 f   VXH:winapi.obj
 0001:0000b310       _HB_FUN_GLOBALMEMORYSTATUS 0040c310 f   VXH:winapi.obj
 0001:0000b3d0       _HB_FUN_FORMATMESSAGE      0040c3d0 f   VXH:winapi.obj
 0001:0000b550       _HB_FUN_INFLATERECT        0040c550 f   VXH:winapi.obj
 0001:0000b650       _HB_FUN_ISCHILD            0040c650 f   VXH:winapi.obj
 0001:0000b6a0       _HB_FUN_GETCOMPUTERNAME    0040c6a0 f   VXH:winapi.obj
 0001:0000b6f0       _HB_FUN_GETPARENT          0040c6f0 f   VXH:winapi.obj
 0001:0000b710       _HB_FUN_GETDLGCTRLID       0040c710 f   VXH:winapi.obj
 0001:0000b740       _HB_FUN_MESSAGEBEEP        0040c740 f   VXH:winapi.obj
 0001:0000b7b0       _HB_FUN_SETCLIPBOARDDATA   0040c7b0 f   VXH:winapi.obj
 0001:0000b7e0       _HB_FUN_ISCLIPBOARDFORMATAVAILABLE 0040c7e0 f   VXH:winapi.obj
 0001:0000b820       _HB_FUN_REGISTERCLIPBOARDFORMAT 0040c820 f   VXH:winapi.obj
 0001:0000b850       _HB_FUN_GETCLIPBOARDDATA   0040c850 f   VXH:winapi.obj
 0001:0000b8a0       _HB_FUN_CLOSECLIPBOARD     0040c8a0 f   VXH:winapi.obj
 0001:0000b8d0       _HB_FUN_SETPROP            0040c8d0 f   VXH:winapi.obj
 0001:0000b930       _HB_FUN_REMOVEPROP         0040c930 f   VXH:winapi.obj
 0001:0000b960       _HB_FUN_GETPROP            0040c960 f   VXH:winapi.obj
 0001:0000b990       _HB_FUN_ENDDIALOG          0040c990 f   VXH:winapi.obj
 0001:0000b9e0       _HB_FUN_LOADRESOURCE       0040c9e0 f   VXH:winapi.obj
 0001:0000ba10       _HB_FUN_LOCKRESOURCE       0040ca10 f   VXH:winapi.obj
 0001:0000ba40       _HB_FUN_UNLOCKRESOURCE     0040ca40 f   VXH:winapi.obj
 0001:0000ba60       _HB_FUN_FREERESOURCE       0040ca60 f   VXH:winapi.obj
 0001:0000ba80       _HB_FUN_FINDRESOURCE       0040ca80 f   VXH:winapi.obj
 0001:0000bac0       _HB_FUN_FINDRESOURCEEX     0040cac0 f   VXH:winapi.obj
 0001:0000bb10       _HB_FUN_SYSNONCLIENTMETRICS 0040cb10 f   VXH:winapi.obj
 0001:0000bc60       _HB_FUN_DEFWINDOWPROCADDRESS 0040cc60 f   VXH:winapi.obj
 0001:0000bc80       _HB_FUN_DEFFRAMEPROCADDRESS 0040cc80 f   VXH:winapi.obj
 0001:0000bca0       _HB_FUN_DEFMDICHILDPROCADDRESS 0040cca0 f   VXH:winapi.obj
 0001:0000bcc0       _HB_FUN_GETASYNCKEYSTATE   0040ccc0 f   VXH:winapi.obj
 0001:0000bd00       _HB_FUN_SCROLLWINDOWEX     0040cd00 f   VXH:winapi.obj
 0001:0000bf20       _HB_FUN_DRAWICON           0040cf20 f   VXH:winapi.obj
 0001:0000bf90       _HB_FUN_GETOPENFILENAME    0040cf90 f   VXH:winapi.obj
 0001:0000c090       _HB_FUN_GETSAVEFILENAME    0040d090 f   VXH:winapi.obj
 0001:0000c190       _HB_FUN_WINEXEC            0040d190 f   VXH:winapi.obj
 0001:0000c1d0       _HB_FUN_SHELLEXECUTE       0040d1d0 f   VXH:winapi.obj
 0001:0000c240       _HB_FUN_GETLOGICALDRIVESTRINGS 0040d240 f   VXH:winapi.obj
 0001:0000c270       _HB_FUN_COPYFILE           0040d270 f   VXH:winapi.obj
 0001:0000c2d0       _HB_FUN_WRITEFILE          0040d2d0 f   VXH:winapi.obj
 0001:0000c340       _HB_FUN_READFILE           0040d340 f   VXH:winapi.obj
 0001:0000c430       _HB_FUN_CANCELIO           0040d430 f   VXH:winapi.obj
 0001:0000c470       _HB_FUN_FLUSHFILEBUFFERS   0040d470 f   VXH:winapi.obj
 0001:0000c4b0       _HB_FUN_COPYFILEEX         0040d4b0 f   VXH:winapi.obj
 0001:0000c520       _HB_FUN_SETROP2            0040d520 f   VXH:winapi.obj
 0001:0000c560       _HB_FUN_CREATEBITMAP       0040d560 f   VXH:winapi.obj
 0001:0000c5c0       _HB_FUN_BITBLT             0040d5c0 f   VXH:winapi.obj
 0001:0000c670       _HB_FUN_MASKBLT            0040d670 f   VXH:winapi.obj
 0001:0000c750       _HB_FUN_TRANSPARENTBLT     0040d750 f   VXH:winapi.obj
 0001:0000c820       _HB_FUN_PATBLT             0040d820 f   VXH:winapi.obj
 0001:0000c8b0       _HB_FUN_CHECKRADIOBUTTON   0040d8b0 f   VXH:winapi.obj
 0001:0000c920       _HB_FUN_GETPROCADDRESS     0040d920 f   VXH:winapi.obj
 0001:0000c950       _HB_FUN_LOADLIBRARYEX      0040d950 f   VXH:winapi.obj
 0001:0000c990       _HB_FUN_WINDOWFROMPOINT    0040d990 f   VXH:winapi.obj
 0001:0000ca20       _HB_FUN_CHILDWINDOWFROMPOINT 0040da20 f   VXH:winapi.obj
 0001:0000cac0       _HB_FUN_REALCHILDWINDOWFROMPOINT 0040dac0 f   VXH:winapi.obj
 0001:0000cb90       _HB_FUN_CHILDWINDOWFROMPOINTEX 0040db90 f   VXH:winapi.obj
 0001:0000cc50       _HB_FUN_INVERTRECT         0040dc50 f   VXH:winapi.obj
 0001:0000cd20       _HB_FUN_SETDLGITEMINT      0040dd20 f   VXH:winapi.obj
 0001:0000cd90       _HB_FUN_SETDLGITEMTEXT     0040dd90 f   VXH:winapi.obj
 0001:0000cdd0       _HB_FUN_GETDLGITEMTEXT     0040ddd0 f   VXH:winapi.obj
 0001:0000cea0       _HB_FUN_DPTOLP             0040dea0 f   VXH:winapi.obj
 0001:0000cfa0       _HB_FUN_LPTODP             0040dfa0 f   VXH:winapi.obj
 0001:0000d0a0       _HB_FUN_GETMESSAGEPOS      0040e0a0 f   VXH:winapi.obj
 0001:0000d0c0       _HB_FUN_SHAPPBARMESSAGE    0040e0c0 f   VXH:winapi.obj
 0001:0000d1f0       _HB_FUN_CREATECOMPATIBLEBITMAP 0040e1f0 f   VXH:winapi.obj
 0001:0000d230       _HB_FUN_ENABLEMENUITEM     0040e230 f   VXH:winapi.obj
 0001:0000d290       _HB_FUN_LOADMENU           0040e290 f   VXH:winapi.obj
 0001:0000d2c0       _HB_FUN_CHECKDLGBUTTON     0040e2c0 f   VXH:winapi.obj
 0001:0000d320       _HB_FUN_ISDLGBUTTONCHECKED 0040e320 f   VXH:winapi.obj
 0001:0000d350       _HB_FUN_SHILCREATEFROMPATH 0040e350 f   VXH:winapi.obj
 0001:0000d3f0       _HB_FUN_SHGETFOLDERPATH    0040e3f0 f   VXH:winapi.obj
 0001:0000d530       _HB_FUN_SHGETFOLDERPATHANDSUBDIR 0040e530 f   VXH:winapi.obj
 0001:0000d6a0       _HB_FUN_REGISTERWINDOWMESSAGE 0040e6a0 f   VXH:winapi.obj
 0001:0000d6d0       _HB_FUN_ISICONIC           0040e6d0 f   VXH:winapi.obj
 0001:0000d710       _HB_FUN_SENDMESSAGECALLBACK 0040e710 f   VXH:winapi.obj
 0001:0000d780       _HB_FUN_CHECKMENUITEM      0040e780 f   VXH:winapi.obj
 0001:0000d7c0       _HB_FUN_SETMENUITEMBITMAPS 0040e7c0 f   VXH:winapi.obj
 0001:0000d840       _HB_FUN_ENUMCHILDWINDOWS   0040e840 f   VXH:winapi.obj
 0001:0000d8a0       _HB_FUN_GETWINDOW          0040e8a0 f   VXH:winapi.obj
 0001:0000d8d0       _HB_FUN_GETDIALOGBASEUNITS 0040e8d0 f   VXH:winapi.obj
 0001:0000d8f0       _HB_FUN_OLEINITIALIZE      0040e8f0 f   VXH:winapi.obj
 0001:0000d910       _HB_FUN_OLEUNINITIALIZE    0040e910 f   VXH:winapi.obj
 0001:0000d920       _HB_FUN_COINITIALIZE       0040e920 f   VXH:winapi.obj
 0001:0000d940       _HB_FUN_KEYBD_EVENT        0040e940 f   VXH:winapi.obj
 0001:0000d980       _HB_FUN_GETDLGITEMINT      0040e980 f   VXH:winapi.obj
 0001:0000da30       _HB_FUN_SETCURSORPOS       0040ea30 f   VXH:winapi.obj
 0001:0000da80       _HB_FUN_GETTICKCOUNT       0040ea80 f   VXH:winapi.obj
 0001:0000daa0       _HB_FUN_MAPDIALOGRECT      0040eaa0 f   VXH:winapi.obj
 0001:0000dc00       _HB_FUN_SLEEP              0040ec00 f   VXH:winapi.obj
 0001:0000dc20       _HB_FUN_SETMENUINFO        0040ec20 f   VXH:winapi.obj
 0001:0000dce0       _HB_FUN_GETMENUINFO        0040ece0 f   VXH:winapi.obj
 0001:0000de20       _HB_FUN_FINDWINDOW         0040ee20 f   VXH:winapi.obj
 0001:0000de50       _HB_FUN_ENUMDISPLAYMONITORS 0040ee50 f   VXH:winapi.obj
 0001:0000dec0       _HB_FUN_MONITORFROMWINDOW  0040eec0 f   VXH:winapi.obj
 0001:0000def0       _HB_FUN_MONITORFROMPOINT   0040eef0 f   VXH:winapi.obj
 0001:0000df90       _HB_FUN_MONITORFROMRECT    0040ef90 f   VXH:winapi.obj
 0001:0000e030       _HB_FUN_GETMENUITEMRECT    0040f030 f   VXH:winapi.obj
 0001:0000e190       _HB_FUN_GETMONITORINFO     0040f190 f   VXH:winapi.obj
 0001:0000e2e0       _HB_FUN_CREATEDIBITMAP     0040f2e0 f   VXH:winapi.obj
 0001:0000e3e0       _HB_FUN_GETWINDOWLONGPTR   0040f3e0 f   VXH:winapi.obj
 0001:0000e410       _HB_FUN_SETWINDOWLONGPTR   0040f410 f   VXH:winapi.obj
 0001:0000e450       _HB_FUN_INITIALIZEFLATSB   0040f450 f   VXH:winapi.obj
 0001:0000e490       _HB_FUN_FLATSB_SETSCROLLPROP 0040f490 f   VXH:winapi.obj
 0001:0000e500       _HB_FUN_FLATSB_ENABLESCROLLBAR 0040f500 f   VXH:winapi.obj
 0001:0000e560       _HB_FUN_FLATSB_SHOWSCROLLBAR 0040f560 f   VXH:winapi.obj
 0001:0000e5c0       _HB_FUN_SWITCHTOTHISWINDOW 0040f5c0 f   VXH:winapi.obj
 0001:0000e620       _HB_FUN_OPENFILE           0040f620 f   VXH:winapi.obj
 0001:0000e770       _HB_FUN_CLIPCURSOR         0040f770 f   VXH:winapi.obj
 0001:0000e860       _HB_FUN_ENUMPROPS          0040f860 f   VXH:winapi.obj
 0001:0000e8a0       _HB_FUN_REMOVEMENU         0040f8a0 f   VXH:winapi.obj
 0001:0000e900       _HB_FUN_GETMENUSTATE       0040f900 f   VXH:winapi.obj
 0001:0000e940       _HB_FUN_NETGROUPGETUSERS   0040f940 f   VXH:winapi.obj
 0001:0000eb30       _HB_FUN_NETGROUPENUM       0040fb30 f   VXH:winapi.obj
 0001:0000ecf0       _HB_FUN_NETUSERGETLOCALGROUPS 0040fcf0 f   VXH:winapi.obj
 0001:0000eef0       _HB_FUN_BEGINUPDATERESOURCE 0040fef0 f   VXH:winapi.obj
 0001:0000ef20       _HB_FUN_UPDATERESOURCE     0040ff20 f   VXH:winapi.obj
 0001:0000efb0       _HB_FUN_ENDUPDATERESOURCE  0040ffb0 f   VXH:winapi.obj
 0001:0000efe0       _HB_FUN_SIZEOFRESOURCE     0040ffe0 f   VXH:winapi.obj
 0001:0000f010       _HB_FUN_REMOVEFONTRESOURCE 00410010 f   VXH:winapi.obj
 0001:0000f040       _HB_FUN_ADDFONTRESOURCE    00410040 f   VXH:winapi.obj
 0001:0000f070       _HB_FUN_GETTEMPFILENAME    00410070 f   VXH:winapi.obj
 0001:0000f120       _HB_FUN_MOVEFILE           00410120 f   VXH:winapi.obj
 0001:0000f170       _HB_FUN_MOVEFILEEX         00410170 f   VXH:winapi.obj
 0001:0000f1d0       _HB_FUN_DLLREGISTERSERVER  004101d0 f   VXH:winapi.obj
 0001:0000f230       _HB_FUN_DLLUNREGISTERSERVER 00410230 f   VXH:winapi.obj
 0001:0000f290       _HB_FUN_ANIMATEWINDOW      00410290 f   VXH:winapi.obj
 0001:0000f2f0       _HB_FUN_SETMAPMODE         004102f0 f   VXH:winapi.obj
 0001:0000f330       _HB_FUN_IMAGELISTGETIMAGEINFO 00410330 f   VXH:winapi.obj
 0001:0000f480       _HB_FUN_GETMAPMODE         00410480 f   VXH:winapi.obj
 0001:0000f4b0       _HB_FUN_SETLAYEREDWINDOWATTRIBUTES 004104b0 f   VXH:winapi.obj
 0001:0000f520       _HB_FUN_DIALOGBOX          00410520 f   VXH:winapi.obj
 0001:0000f580       _HB_FUN_DIALOGBOXINDIRECT  00410580 f   VXH:winapi.obj
 0001:0000f660       _HB_FUN_CREATEDIALOG       00410660 f   VXH:winapi.obj
 0001:0000f6d0       _HB_FUN_CREATEDIALOGINDIRECT 004106d0 f   VXH:winapi.obj
 0001:0000f790       _HB_FUN_REGOPENKEYEX       00410790 f   VXH:winapi.obj
 0001:0000f800       _HB_FUN_REGCLOSEKEY        00410800 f   VXH:winapi.obj
 0001:0000f820       _HB_FUN_REGENUMKEY         00410820 f   VXH:winapi.obj
 0001:0000f8a0       _HB_FUN_PROGIDFROMCLASSID  004108a0 f   VXH:winapi.obj
 0001:0000f9a0       _HB_FUN_CLASSIDFROMPROGID  004109a0 f   VXH:winapi.obj
 0001:0000faf0       _HB_FUN_CLASSIDFROMSTRING  00410af0 f   VXH:winapi.obj
 0001:0000fc30       _HB_FUN_STRINGFROMCLASSID  00410c30 f   VXH:winapi.obj
 0001:0000fd20       _HB_FUN_MAKEINTRESOURCE    00410d20 f   VXH:winapi.obj
 0001:0000fd50       _HB_FUN_GETSHORTPATHNAME   00410d50 f   VXH:winapi.obj
 0001:0000fe00       _HB_FUN_GETPROFILESECTION  00410e00 f   VXH:winapi.obj
 0001:0000fed0       _HB_FUN_GETPRIVATEPROFILESECTION 00410ed0 f   VXH:winapi.obj
 0001:0000ffb0       _HB_FUN_SHELL_NOTIFYICON   00410fb0 f   VXH:winapi.obj
 0001:00010070       _HB_FUN_MESSAGEBOX         00411070 f   VXH:winapi.obj
 0001:000100d0       _HB_FUN_OEMTOCHAR          004110d0 f   VXH:winapi.obj
 0001:00010150       _HB_FUN_WINAPIVER          00411150 f   VXH:winapi.obj
 0001:00010170       _HB_FUN_HILITEMENUITEM     00411170 f   VXH:winapi.obj
 0001:000101e0       _HB_FUN_ENDMENU            004111e0 f   VXH:winapi.obj
 0001:00010210       _HB_FUN_UNREALIZEOBJECT    00411210 f   VXH:winapi.obj
 0001:00010250       _HB_FUN_SETVIEWPORTEXTEX   00411250 f   VXH:winapi.obj
 0001:000103b0       _HB_FUN_SETBRUSHORGEX      004113b0 f   VXH:winapi.obj
 0001:00010540       _HB_FUN_REGISTERHOTKEY     00411540 f   VXH:winapi.obj
 0001:000105b0       _HB_FUN_GETDCBRUSHCOLOR    004115b0 f   VXH:winapi.obj
 0001:00010600       _HB_FUN_REGQUERYVALUEEX    00411600 f   VXH:winapi.obj
 0001:00010720       _HB_FUN_REGENUMKEYEX       00411720 f   VXH:winapi.obj
 0001:000107e0       _HB_FUN_REGENUMVALUE       004117e0 f   VXH:winapi.obj
 0001:000108f0       _HB_FUN_REGSETVALUEEX      004118f0 f   VXH:winapi.obj
 0001:000109a0       _HB_FUN_REGCREATEKEY       004119a0 f   VXH:winapi.obj
 0001:000109f0       _HB_FUN_REGCREATEKEYEX     004119f0 f   VXH:winapi.obj
 0001:00010a60       _HB_FUN_REGDELETEKEY       00411a60 f   VXH:winapi.obj
 0001:00010a90       _HB_FUN_REGDELETEVALUE     00411a90 f   VXH:winapi.obj
 0001:00010ac0       _HB_FUN_ENUMFONTFAMILIES   00411ac0 f   VXH:winapi.obj
 0001:00010b90       _HB_FUN_ENUMFONTS          00411b90 f   VXH:winapi.obj
 0001:00010c60       _HB_FUN_SNDPLAYSOUND       00411c60 f   VXH:winapi.obj
 0001:00010ce0       _HB_FUN_GRADIENTFILL       00411ce0 f   VXH:winapi.obj
 0001:00010f30       _HB_FUN_FILLGRADIENT       00411f30 f   VXH:winapi.obj
 0001:00011160       _HB_FUN_SAVEDC             00412160 f   VXH:winapi.obj
 0001:00011190       _HB_FUN_RESTOREDC          00412190 f   VXH:winapi.obj
 0001:000111e0       _HB_FUN_OPENPROCESSTOKEN   004121e0 f   VXH:winapi.obj
 0001:00011240       _HB_FUN_LOOKUPPRIVILEGEVALUE 00412240 f   VXH:winapi.obj
 0001:00011390       _HB_FUN_ADJUSTTOKENPRIVILEGES 00412390 f   VXH:winapi.obj
 0001:00011570       _HB_FUN_EXITWINDOWSEX      00412570 f   VXH:winapi.obj
 0001:00011600       _HB_FUN_GETCURRENTPROCESS  00412600 f   VXH:winapi.obj
 0001:00011620       _HB_FUN_INITIATESYSTEMSHUTDOWN 00412620 f   VXH:winapi.obj
 0001:000116e0       _HB_FUN_GETSYSTEMDIRECTORY 004126e0 f   VXH:winapi.obj
 0001:00011730       _HB_FUN_EXTRACTICON        00412730 f   VXH:winapi.obj
 0001:00011770       _HB_FUN_EXTRACTASSOCIATEDICON 00412770 f   VXH:winapi.obj
 0001:000117b0       _HB_FUN_OPENSCMANAGER      004127b0 f   VXH:winapi.obj
 0001:000117f0       _HB_FUN_OPENSERVICE        004127f0 f   VXH:winapi.obj
 0001:00011830       _HB_FUN_CLOSESERVICEHANDLE 00412830 f   VXH:winapi.obj
 0001:00011870       _StopService               00412870 f   VXH:winapi.obj
 0001:00011bb0       _HB_FUN_STARTSERVICE       00412bb0 f   VXH:winapi.obj
 0001:00011bf0       _HB_FUN_STOPSERVICE        00412bf0 f   VXH:winapi.obj
 0001:00011c40       _HB_FUN_CREATESERVICE      00412c40 f   VXH:winapi.obj
 0001:00011d20       _HB_FUN_DELETESERVICE      00412d20 f   VXH:winapi.obj
 0001:00011d40       _HB_FUN_REGISTERSERVICECTRLHANDLER 00412d40 f   VXH:winapi.obj
 0001:00011d70       _HB_FUN_SETSERVICESTATUS   00412d70 f   VXH:winapi.obj
 0001:00011e30       _HB_FUN_SETEVENT           00412e30 f   VXH:winapi.obj
 0001:00011e70       _HB_FUN_CREATEEVENT        00412e70 f   VXH:winapi.obj
 0001:00011f40       _HB_FUN_WSACREATEEVENT     00412f40 f   VXH:winapi.obj
 0001:00011f60       _HB_FUN_WSAWAITFORMULTIPLEEVENTS 00412f60 f   VXH:winapi.obj
 0001:00011fd0       _HB_FUN_WAITFORSINGLEOBJECT 00412fd0 f   VXH:winapi.obj
 0001:00012000       _HB_FUN_BEEP               00413000 f   VXH:winapi.obj
 0001:00012050       _HB_FUN_CLOSEHANDLE        00413050 f   VXH:winapi.obj
 0001:00012090       _HB_FUN_RUNSERVICE         00413090 f   VXH:winapi.obj
 0001:000120f0       _HB_FUN_ENDTASK            004130f0 f   VXH:winapi.obj
 0001:00012170       _HB_FUN_SENDMESSAGETIMEOUT 00413170 f   VXH:winapi.obj
 0001:000121f0       _HB_FUN_ISHUNGAPPWINDOW    004131f0 f   VXH:winapi.obj
 0001:00012260       _HB_FUN_DRAWCAPTION        00413260 f   VXH:winapi.obj
 0001:00012350       _HB_FUN_PRINTDLG           00413350 f   VXH:winapi.obj
 0001:00012450       _HB_FUN_PAGESETUPDLG       00413450 f   VXH:winapi.obj
 0001:00012640       _HB_FUN_COMMDLGEXTENDEDERROR 00413640 f   VXH:winapi.obj
 0001:00012660       _HB_FUN_GLOBALLOCK         00413660 f   VXH:winapi.obj
 0001:00012680       _HB_FUN_GLOBALUNLOCK       00413680 f   VXH:winapi.obj
 0001:000126c0       _HB_FUN_GLOBALFREE         004136c0 f   VXH:winapi.obj
 0001:000126e0       _HB_FUN_ENUMRESOURCETYPES  004136e0 f   VXH:winapi.obj
 0001:00012740       _HB_FUN_COPYIMAGE          00413740 f   VXH:winapi.obj
 0001:000127a0       _HB_FUN_MAPISENDDOCUMENTS  004137a0 f   VXH:winapi.obj
 0001:00012860       _HB_FUN_MAPILOGON          00413860 f   VXH:winapi.obj
 0001:00012950       _HB_FUN_MAPILOGOFF         00413950 f   VXH:winapi.obj
 0001:00012a00       _HB_FUN_MAPISENDMAIL       00413a00 f   VXH:winapi.obj
 0001:00012bc0       _HB_FUN_HTMLHELP           00413bc0 f   VXH:winapi.obj
 0001:00012c40       _HB_FUN_GETLOCALTIME       00413c40 f   VXH:winapi.obj
 0001:00012d60       _HB_FUN_GETSYSTEMTIME      00413d60 f   VXH:winapi.obj
 0001:00012e80       _EnablePrivilege           00413e80 f   VXH:winapi.obj
 0001:00012f10       _DisablePrivilege          00413f10 f   VXH:winapi.obj
 0001:00012fa0       _HB_FUN_SETSYSTEMTIME      00413fa0 f   VXH:winapi.obj
 0001:00013090       _HB_FUN_CREATEFILE         00414090 f   VXH:winapi.obj
 0001:000131c0       _HB_FUN_SETCOMMSTATE       004141c0 f   VXH:winapi.obj
 0001:00013290       _HB_FUN_SETCOMMTIMEOUTS    00414290 f   VXH:winapi.obj
 0001:00013360       _HB_FUN_GETCOMMSTATE       00414360 f   VXH:winapi.obj
 0001:000134c0       _HB_FUN_PURGECOMM          004144c0 f   VXH:winapi.obj
 0001:00013510       _HB_FUN_WAITCOMMEVENT      00414510 f   VXH:winapi.obj
 0001:000135f0       _HB_FUN_MAPVIRTUALKEY      004145f0 f   VXH:winapi.obj
 0001:00013630       _HB_FUN_SETDEFAULTPRINTER  00414630 f   VXH:winapi.obj
 0001:00013650       _HB_FUN_OLEUIINSERTOBJECT  00414650 f   VXH:winapi.obj
 0001:000136f0       _HB_FUN_FINDFIRSTFILE      004146f0 f   VXH:winapi.obj
 0001:00013850       _HB_FUN_GETPIXEL           00414850 f   VXH:winapi.obj
 0001:00013890       _HB_FUN_SETPIXEL           00414890 f   VXH:winapi.obj
 0001:000138e0       _HB_FUN_UPDATECOLORS       004148e0 f   VXH:winapi.obj
 0001:00013920       _HB_FUN_SELECTPALETTE      00414920 f   VXH:winapi.obj
 0001:00013960       _HB_FUN_CREATEHALFTONEPALETTE 00414960 f   VXH:winapi.obj
 0001:00013980       _HB_FUN_REALIZEPALETTE     00414980 f   VXH:winapi.obj
 0001:000139a0       _HB_FUN_RESIZEPALETTE      004149a0 f   VXH:winapi.obj
 0001:000139f0       _HB_FUN_GETNEARESTCOLOR    004149f0 f   VXH:winapi.obj
 0001:00013a20       _HB_FUN_GETNEARESTPALETTEINDEX 00414a20 f   VXH:winapi.obj
 0001:00013a50       _HB_FUN_ANIMATEPALETTE     00414a50 f   VXH:winapi.obj
 0001:00013b30       _HB_FUN_CREATEPALETTE      00414b30 f   VXH:winapi.obj
 0001:00013bd0       _HB_FUN_GETDCPENCOLOR      00414bd0 f   VXH:winapi.obj
 0001:00013c00       _HB_FUN_SETENVIRONMENTVARIABLE 00414c00 f   VXH:winapi.obj
 0001:00013c50       _HB_FUN_SHGETFILEINFO      00414c50 f   VXH:winapi.obj
 0001:00013db0       _GetIdListFromPath         00414db0 f   VXH:winapi.obj
 0001:00013e40       _HB_FUN_REGISTERNOTIFYFOLDERID 00414e40 f   VXH:winapi.obj
 0001:00013ea0       _HB_FUN_REGISTERNOTIFY     00414ea0 f   VXH:winapi.obj
 0001:00013f20       _HB_FUN_UNREGISTERNOTIFY   00414f20 f   VXH:winapi.obj
 0001:00013f40       _HB_FUN_DRAGACCEPTFILES    00414f40 f   VXH:winapi.obj
 0001:00013f70       _HB_FUN_DRAGFINISH         00414f70 f   VXH:winapi.obj
 0001:00013f90       _HB_FUN_DRAGQUERYPOINT     00414f90 f   VXH:winapi.obj
 0001:000140e0       _HB_FUN_DRAGQUERYFILE      004150e0 f   VXH:winapi.obj
 0001:00014200       _HB_FUN_CAPCREATECAPTUREWINDOW 00415200 f   VXH:winapi.obj
 0001:000142a0       _HB_FUN_FILETIMETOSYSTEMTIME 004152a0 f   VXH:winapi.obj
 0001:00014440       _HB_FUN_INTERNETGETLASTRESPONSEINFO 00415440 f   VXH:winapi.obj
 0001:000144b0       _HB_FUN_INTERNETDIAL       004154b0 f   VXH:winapi.obj
 0001:00014520       _HB_FUN_INTERNETGETCONNECTEDSTATE 00415520 f   VXH:winapi.obj
 0001:00014570       _HB_FUN_INTERNETOPEN       00415570 f   VXH:winapi.obj
 0001:000145d0       _HB_FUN_INTERNETCONNECT    004155d0 f   VXH:winapi.obj
 0001:00014660       _HB_FUN_FTPOPENFILE        00415660 f   VXH:winapi.obj
 0001:000146c0       _HB_FUN_INTERNETWRITEFILE  004156c0 f   VXH:winapi.obj
 0001:00014740       _HB_FUN_INTERNETREADFILE   00415740 f   VXH:winapi.obj
 0001:000147e0       _HB_FUN_FTPCOMMAND         004157e0 f   VXH:winapi.obj
 0001:000148c0       _HB_FUN_FTPFINDFIRSTFILE   004158c0 f   VXH:winapi.obj
 0001:00014a40       _HB_FUN_INTERNETFINDNEXTFILE 00415a40 f   VXH:winapi.obj
 0001:00014bb0       _HB_FUN_FTPGETFILE         00415bb0 f   VXH:winapi.obj
 0001:00014c40       _HB_FUN_FTPPUTFILE         00415c40 f   VXH:winapi.obj
 0001:00014cc0       _HB_FUN_FTPCREATEDIRECTORY 00415cc0 f   VXH:winapi.obj
 0001:00014d10       _HB_FUN_FTPREMOVEDIRECTORY 00415d10 f   VXH:winapi.obj
 0001:00014d60       _HB_FUN_FTPDELETEFILE      00415d60 f   VXH:winapi.obj
 0001:00014db0       _HB_FUN_FTPRENAMEFILE      00415db0 f   VXH:winapi.obj
 0001:00014e10       _HB_FUN_FTPGETCURRENTDIRECTORY 00415e10 f   VXH:winapi.obj
 0001:00014e90       _HB_FUN_FTPSETCURRENTDIRECTORY 00415e90 f   VXH:winapi.obj
 0001:00014ee0       _HB_FUN_INTERNETCLOSEHANDLE 00415ee0 f   VXH:winapi.obj
 0001:00014f20       _HB_FUN_INTERNETATTEMPTCONNECT 00415f20 f   VXH:winapi.obj
 0001:00014f40       _InternetStatusCallback@20 00415f40 f   VXH:winapi.obj
 0001:00014fd0       _HB_FUN_INTERNETSETSTATUSCALLBACK 00415fd0 f   VXH:winapi.obj
 0001:00015000       _HB_FUN_INTERNETSETTIMEOUT 00416000 f   VXH:winapi.obj
 0001:00015060       _HB_FUN_GETPERFORMANCEINFO 00416060 f   VXH:winapi.obj
 0001:000151b0       _HB_FUN_GETVERSIONINFO     004161b0 f   VXH:winapi.obj
 0001:00015340       _HB_FUN_GETFILEINFORMATIONBYHANDLE 00416340 f   VXH:winapi.obj
 0001:00015490       _HB_FUN_FILETIMETODOSDATETIME 00416490 f   VXH:winapi.obj
 0001:00015570       _HB_FUN_CLEARCOMMERROR     00416570 f   VXH:winapi.obj
 0001:000156e0       _HB_FUN_GETCOMMMODEMSTATUS 004166e0 f   VXH:winapi.obj
 0001:00015730       _HB_FUN_GETCOMMPROPERTIES  00416730 f   VXH:winapi.obj
 0001:00015890       _HB_FUN_ESCAPECOMMFUNCTION 00416890 f   VXH:winapi.obj
 0001:000158e0       _HB_FUN_GETKEYNAMETEXT     004168e0 f   VXH:winapi.obj
 0001:00015970       _HB_FUN_VKKEYSCAN          00416970 f   VXH:winapi.obj
 0001:000159a0       _HB_FUN_OEMKEYSCAN         004169a0 f   VXH:winapi.obj
 0001:000159c0       _HB_FUN_TOASCII            004169c0 f   VXH:winapi.obj
 0001:00015a50       _HB_FUN_ALPHABLEND         00416a50 f   VXH:winapi.obj
 0001:00015ba0       _HB_FUN_GETHOSTBYNAME      00416ba0 f   VXH:winapi.obj
 0001:00015bd0       _HB_FUN_URLGETPART         00416bd0 f   VXH:winapi.obj
 0001:00015c40       _HB_FUN_GETQUEUESTATUS     00416c40 f   VXH:winapi.obj
 0001:00015c60       _HB_FUN_WAITMESSAGE        00416c60 f   VXH:winapi.obj
 0001:00015c90       _HB_FUN_DWMENABLEBLURBEHINDWINDOW 00416c90 f   VXH:winapi.obj
 0001:00015d40       _HB_FUN_DWMEXTENDFRAMEINTOCLIENTAREA 00416d40 f   VXH:winapi.obj
 0001:00015e10       _HB_FUN_DWMGETCOLORIZATIONCOLOR 00416e10 f   VXH:winapi.obj
 0001:00015e80       _HB_FUN_DWMISCOMPOSITIONENABLED 00416e80 f   VXH:winapi.obj
 0001:00015ed0       _HB_FUN_INVALIDATERGN      00416ed0 f   VXH:winapi.obj
 0001:00015f30       _HB_FUN_SHFILEOPERATION    00416f30 f   VXH:winapi.obj
 0001:00016060       _HB_FUN_CREATEUUID         00417060 f   VXH:winapi.obj
 0001:000160a0       _HB_FUN_QUERYSERVICESTATUS 004170a0 f   VXH:winapi.obj
 0001:000161d0       _HB_FUN_QUERYSERVICECONFIG 004171d0 f   VXH:winapi.obj
 0001:00016370       _HB_FUN_QUERYSERVICECONFIG2 00417370 f   VXH:winapi.obj
 0001:00016500       _HB_FUN_CHANGESERVICEDESCRIPTION 00417500 f   VXH:winapi.obj
 0001:00016530       _HB_FUN_SHELLEXECUTEEX     00417530 f   VXH:winapi.obj
 0001:00016670       _HB_FUN_SETSTRETCHBLTMODE  00417670 f   VXH:winapi.obj
 0001:000166b0       _HB_FUN_STRETCHDIBITS      004176b0 f   VXH:winapi.obj
 0001:00016990       _HB_FUN_OLEGETICONOFCLASS  00417990 f   VXH:winapi.obj
 0001:00016a00       _HB_FUN_IMAGELISTDRAWINDIRECT 00417a00 f   VXH:winapi.obj
 0001:00016aa0       _HB_FUN_SETDCBRUSHCOLOR    00417aa0 f   VXH:winapi.obj
 0001:00016ad0       _HB_FUN_SHOWSCROLLBAR      00417ad0 f   VXH:winapi.obj
 0001:00016b30       _HB_FUN_ENABLESCROLLBAR    00417b30 f   VXH:winapi.obj
 0001:00016b90       _HB_FUN_GETUSERDEFAULTUILANGUAGE 00417b90 f   VXH:winapi.obj
 0001:00016bb0       _HB_FUN_GETSYSTEMDEFAULTUILANGUAGE 00417bb0 f   VXH:winapi.obj
 0001:00016bd0       _HB_FUN_XGRADIENTFILL      00417bd0 f   VXH:winapi.obj
 0001:00016e60       _HB_FUN_GETCURRENTDIRECTORY 00417e60 f   VXH:winapi.obj
 0001:00016eb0       _HB_FUN_SETCURRENTDIRECTORY 00417eb0 f   VXH:winapi.obj
 0001:00016ef0       _HB_FUN_REMOVEDIRECTORY    00417ef0 f   VXH:winapi.obj
 0001:00016f30       _HB_FUN_MAKEWPARAM         00417f30 f   VXH:winapi.obj
 0001:00016f70       _HB_FUN_UNICODETOSTRING    00417f70 f   VXH:winapi.obj
 0001:00016fe0       _HB_FUN_EXTFLOODFILL       00417fe0 f   VXH:winapi.obj
 0001:00017060       _HB_FUN_FLOODFILL          00418060 f   VXH:winapi.obj
 0001:000170d0       _HB_FUN_CREATEPOLYGONRGN   004180d0 f   VXH:winapi.obj
 0001:000171c0       _HB_FUN_FILLRGN            004181c0 f   VXH:winapi.obj
 0001:00017220       _HB_FUN_GETCOMBOBOXINFO    00418220 f   VXH:winapi.obj
 0001:000173a0       _HB_FUN_SHOWCURSOR         004183a0 f   VXH:winapi.obj
 0001:000173e0       _HB_FUN_CERTIFICATEDIALOG  004183e0 f   VXH:winapi.obj
 0001:000174e0       _Array2Button              004184e0 f   VXH:winapi.obj
 0001:00017540       _HB_FUN_TASKDIALOGINDIRECT 00418540 f   VXH:winapi.obj
 0001:00017760       _HB_FUN_MULTIBYTETOWIDECHAR 00418760 f   VXH:winapi.obj
 0001:00017800       _HB_FUN_CHANGESERVICECONFIG 00418800 f   VXH:winapi.obj
 0001:00017a10       _HB_FUN_REPLACETEXT        00418a10 f   VXH:winapi.obj
 0001:00017aa0       _HB_FUN_FINDTEXT           00418aa0 f   VXH:winapi.obj
 0001:00017b30       _HB_FUN_ROUNDRECT          00418b30 f   VXH:winapi.obj
 0001:00017bc0       _MainProcFunction@16       00418bc0 f   VXH:winapi.obj
 0001:00017c40       _HB_FUN_VXH_CALLBACK       00418c40 f   VXH:winapi.obj
 0001:00017c60       _HB_FUN_VXH_SUBCLASS       00418c60 f   VXH:winapi.obj
 0001:00017cb0       _HB_FUN_GETSCROLLPOS       00418cb0 f   VXH:winapi.obj
 0001:00017cf0       _HB_FUN_SETSCROLLPOS       00418cf0 f   VXH:winapi.obj
 0001:00017d50       _HB_FUN_REGDISABLEREFLECTIONKEY 00418d50 f   VXH:winapi.obj
 0001:00017db0       _HB_FUN_REGENABLEREFLECTIONKEY 00418db0 f   VXH:winapi.obj
 0001:00017e10       _HB_FUN_REGQUERYREFLECTIONKEY 00418e10 f   VXH:winapi.obj
 0001:00017e70       _HB_FUN_REGDELETEKEYEX     00418e70 f   VXH:winapi.obj
 0001:00017ed0       _HB_FUN__REGCREATEKEYEX    00418ed0 f   VXH:winapi.obj
 0001:00017fd0       _HB_FUN_GETENVIRONMENTVARIABLE 00418fd0 f   VXH:winapi.obj
 0001:00018040       _HB_FUN_WOW64DISABLEWOW64FSREDIRECTION 00419040 f   VXH:winapi.obj
 0001:00018080       _HB_FUN_WOW64REVERTWOW64FSREDIRECTION 00419080 f   VXH:winapi.obj
 0001:000180c0       _HB_FUN_INTERNETOPENURL    004190c0 f   VXH:winapi.obj
 0001:00018160       _HB_FUN_ISCARET            00419160 f   VXH:winapi.obj
 0001:000181a0       _HB_FUN_EXTCREATEPEN       004191a0 f   VXH:winapi.obj
 0001:00018290       _HB_FUN_DRAWMENUBAR        00419290 f   VXH:winapi.obj
 0001:000182d0       _HB_FUN_GETCURSORINFO      004192d0 f   VXH:winapi.obj
 0001:00018440       _HB_FUN_SETPROCESSDPIAWARE 00419440 f   VXH:winapi.obj
 0001:000184d0       _HB_FUN_ALERT              004194d0 f   VXH:Alert.obj
 0001:000184f0       _HB_FUN_ALERTDIALOG        004194f0 f   VXH:Alert.obj
 0001:00019a00       _HB_FUN___GETSYSTEM        0041aa00 f   VXH:System.obj
 0001:00019a20       _HB_FUN_SYSTEM             0041aa20 f   VXH:System.obj
 0001:00019b80       _HB_FUN_GC2RGB             0041ab80 f   VXH:System.obj
 0001:00019bc0       _HB_FUN___SYSTIME          0041abc0 f   VXH:System.obj
 0001:00019c40       _HB_FUN___GETMESSAGEFONT   0041ac40 f   VXH:System.obj
 0001:00019c60       _HB_FUN_WINOS              0041ac60 f   VXH:System.obj
 0001:00019ca0       _Array2Rect                0041aca0 f   VXH:winXPapi.obj
 0001:00019d20       _Rect2ArrayEx              0041ad20 f   VXH:winXPapi.obj
 0001:00019dc0       _HB_FUN___INITUXTHEME      0041adc0 f   VXH:winXPapi.obj
 0001:00019de0       _HB_FUN___ENDUXTHEME       0041ade0 f   VXH:winXPapi.obj
 0001:00019e00       _HB_FUN_ISTHEMEACTIVE      0041ae00 f   VXH:winXPapi.obj
 0001:00019e60       _HB_FUN_GETTHEMESYSFONT    0041ae60 f   VXH:winXPapi.obj
 0001:00019ee0       _HB_FUN_GETTHEMEFONT       0041aee0 f   VXH:winXPapi.obj
 0001:00019fc0       _HB_FUN_GETTHEMECOLOR      0041afc0 f   VXH:winXPapi.obj
 0001:0001a050       _HB_FUN_OPENTHEMEDATA      0041b050 f   VXH:winXPapi.obj
 0001:0001a0d0       _HB_FUN_CLOSETHEMEDATA     0041b0d0 f   VXH:winXPapi.obj
 0001:0001a130       _HB_FUN_DRAWTHEMEBACKGROUND 0041b130 f   VXH:winXPapi.obj
 0001:0001a270       _HB_FUN_DRAWTHEMETEXTEX    0041b270 f   VXH:winXPapi.obj
 0001:0001a350       _HB_FUN_DRAWTHEMETEXT      0041b350 f   VXH:winXPapi.obj
 0001:0001a430       _HB_FUN_GETTHEMEMETRIC     0041b430 f   VXH:winXPapi.obj
 0001:0001a4d0       _HB_FUN_GETTHEMEINT        0041b4d0 f   VXH:winXPapi.obj
 0001:0001a550       _HB_FUN_GETTHEMERECT       0041b550 f   VXH:winXPapi.obj
 0001:0001a620       _HB_FUN_GETTHEMEPARTSIZE   0041b620 f   VXH:winXPapi.obj
 0001:0001a740       _HB_FUN_DRAWTHEMEPARENTBACKGROUND 0041b740 f   VXH:winXPapi.obj
 0001:0001a7f0       _HB_FUN_GETCURRENTTHEMENAME 0041b7f0 f   VXH:winXPapi.obj
 0001:0001a930       _HB_FUN_GETTHEMEDOCUMENTATIONPROPERTY 0041b930 f   VXH:winXPapi.obj
 0001:0001a9f0       _HB_FUN_GETTHEMEBACKGROUNDCONTENTRECT 0041b9f0 f   VXH:winXPapi.obj
 0001:0001aad0       _HB_FUN_GETTHEMEBACKGROUNDEXTENT 0041bad0 f   VXH:winXPapi.obj
 0001:0001abb0       _HB_FUN_SETWINDOWTHEME     0041bbb0 f   VXH:winXPapi.obj
 0001:0001acc0       _HB_FUN_GETWINDOWTHEME     0041bcc0 f   VXH:winXPapi.obj
 0001:0001ad20       _HB_FUN_SETTHEMEAPPPROPERTIES 0041bd20 f   VXH:winXPapi.obj
 0001:0001ad60       _HB_FUN_GETTHEMESYSCOLOR   0041bd60 f   VXH:winXPapi.obj
 0001:0001adc0       _HB_FUN_ENABLETHEMEDIALOGTEXTURE 0041bdc0 f   VXH:winXPapi.obj
 0001:0001ae30       _LoadAtlAx                 0041be30 f   VXH:WinUtil.obj
 0001:0001ae70       _GetNamedPipeServerProcessId@8 0041be70 f   VXH:WinUtil.obj
 0001:0001aeb0       _HB_FUN_BITMAPTOREGION     0041beb0 f   VXH:WinUtil.obj
 0001:0001b2e0       _HB_FUN_GETBMPSIZE         0041c2e0 f   VXH:WinUtil.obj
 0001:0001b370       _HB_FUN_MOVETO             0041c370 f   VXH:WinUtil.obj
 0001:0001b3d0       _HB_FUN_NOT                0041c3d0 f   VXH:WinUtil.obj
 0001:0001b400       _HB_FUN_WINSETCURSOR       0041c400 f   VXH:WinUtil.obj
 0001:0001b430       _HB_FUN_IMAGELISTBEGINDRAG 0041c430 f   VXH:WinUtil.obj
 0001:0001b4a0       _HB_FUN_IMAGELISTDRAGMOVE  0041c4a0 f   VXH:WinUtil.obj
 0001:0001b4f0       _HB_FUN_IMAGELISTENDDRAG   0041c4f0 f   VXH:WinUtil.obj
 0001:0001b500       _HB_FUN_IMAGELISTDRAGENTER 0041c500 f   VXH:WinUtil.obj
 0001:0001b560       _HB_FUN_IMAGELISTDRAGSHOWNOLOCK 0041c560 f   VXH:WinUtil.obj
 0001:0001b580       _HB_FUN_IMAGELISTGETIMAGECOUNT 0041c580 f   VXH:WinUtil.obj
 0001:0001b5b0       _HB_FUN_IMAGELISTGETBITMAPS 0041c5b0 f   VXH:WinUtil.obj
 0001:0001b610       _HB_FUN_IMAGELISTDESTROY   0041c610 f   VXH:WinUtil.obj
 0001:0001b650       _HB_FUN_IMAGELISTLOADIMAGE 0041c650 f   VXH:WinUtil.obj
 0001:0001b6e0       _HB_FUN_IMAGELISTREMOVEALL 0041c6e0 f   VXH:WinUtil.obj
 0001:0001b720       _HB_FUN_IMAGELISTREMOVE    0041c720 f   VXH:WinUtil.obj
 0001:0001b770       _HB_FUN_IMAGELISTCOPY      0041c770 f   VXH:WinUtil.obj
 0001:0001b7e0       _HB_FUN_IMAGELISTGETICON   0041c7e0 f   VXH:WinUtil.obj
 0001:0001b830       _HB_FUN_IMAGELISTCREATE    0041c830 f   VXH:WinUtil.obj
 0001:0001b8a0       _HB_FUN_IMAGELISTADDMASKED 0041c8a0 f   VXH:WinUtil.obj
 0001:0001b8f0       _HB_FUN_IMAGELISTADD       0041c8f0 f   VXH:WinUtil.obj
 0001:0001b940       _HB_FUN_IMAGELISTREPLACEICON 0041c940 f   VXH:WinUtil.obj
 0001:0001b990       _HB_FUN_IMAGELISTADDICON   0041c990 f   VXH:WinUtil.obj
 0001:0001b9d0       _HB_FUN_IMAGELISTDUPLICATE 0041c9d0 f   VXH:WinUtil.obj
 0001:0001ba00       _HB_FUN_IMAGELISTGETICONSIZE 0041ca00 f   VXH:WinUtil.obj
 0001:0001ba70       _HB_FUN_IMAGELISTSETICONSIZE 0041ca70 f   VXH:WinUtil.obj
 0001:0001bad0       _HB_FUN_IMAGELISTMERGE     0041cad0 f   VXH:WinUtil.obj
 0001:0001bb60       _HB_FUN_IMAGELISTDRAW      0041cb60 f   VXH:WinUtil.obj
 0001:0001bbf0       _HB_FUN_IMAGELISTDRAWEX    0041cbf0 f   VXH:WinUtil.obj
 0001:0001bcb0       _HB_FUN_HEADERSETIMAGELIST 0041ccb0 f   VXH:WinUtil.obj
 0001:0001bd00       _HB_FUN_HEADERINSERTITEM   0041cd00 f   VXH:WinUtil.obj
 0001:0001bd60       _HB_FUN_PEEKW              0041cd60 f   VXH:WinUtil.obj
 0001:0001bd90       _HB_FUN_PEEKL              0041cd90 f   VXH:WinUtil.obj
 0001:0001bdc0       _HB_FUN_PEEK               0041cdc0 f   VXH:WinUtil.obj
 0001:0001be30       _HB_FUN_POKE               0041ce30 f   VXH:WinUtil.obj
 0001:0001beb0       _HB_FUN_BIN2F              0041ceb0 f   VXH:WinUtil.obj
 0001:0001bee0       _HB_FUN_BIN2D              0041cee0 f   VXH:WinUtil.obj
 0001:0001bf10       _HB_FUN_LISTVIEWSETITEMSTATE 0041cf10 f   VXH:WinUtil.obj
 0001:0001bf60       _HB_FUN_LISTVIEWDELETEALLITEMS 0041cf60 f   VXH:WinUtil.obj
 0001:0001bf80       _HB_FUN_LISTVIEWDELETECOLUMN 0041cf80 f   VXH:WinUtil.obj
 0001:0001bfb0       _HB_FUN_LISTVIEWSETITEMCOUNT 0041cfb0 f   VXH:WinUtil.obj
 0001:0001bfe0       _HB_FUN_LISTVIEWGETNEXTITEM 0041cfe0 f   VXH:WinUtil.obj
 0001:0001c040       _HB_FUN_LISTVIEWINSERTCOLUMN 0041d040 f   VXH:WinUtil.obj
 0001:0001c090       _HB_FUN_TVGETSELTEXT       0041d090 f   VXH:WinUtil.obj
 0001:0001c120       _HB_FUN_TVGETSELECTED      0041d120 f   VXH:WinUtil.obj
 0001:0001c160       _HB_FUN_TVSETIMAGELIST     0041d160 f   VXH:WinUtil.obj
 0001:0001c1c0       _HB_FUN_TVDELETEITEM       0041d1c0 f   VXH:WinUtil.obj
 0001:0001c1f0       _HB_FUN_TVITEMSETCHECK     0041d1f0 f   VXH:WinUtil.obj
 0001:0001c250       _HB_FUN_TVITEMGETCHECK     0041d250 f   VXH:WinUtil.obj
 0001:0001c2b0       _HB_FUN_CREATEDIRECTORY    0041d2b0 f   VXH:WinUtil.obj
 0001:0001c3d0       _HB_FUN_TABCTRL_INSERTITEM 0041d3d0 f   VXH:WinUtil.obj
 0001:0001c470       _HB_FUN_TABCTRL_SETCURSEL  0041d470 f   VXH:WinUtil.obj
 0001:0001c4c0       _HB_FUN_TABCTRL_GETCURSEL  0041d4c0 f   VXH:WinUtil.obj
 0001:0001c500       _HB_FUN_TABCTRL_GETITEM    0041d500 f   VXH:WinUtil.obj
 0001:0001c550       _HB_FUN_TABCTRL_GETITEMCOUNT 0041d550 f   VXH:WinUtil.obj
 0001:0001c590       _HB_FUN_TABCTRL_GETITEMRECT 0041d590 f   VXH:WinUtil.obj
 0001:0001c670       _HB_FUN_TABCTRL_GETROWCOUNT 0041d670 f   VXH:WinUtil.obj
 0001:0001c6b0       _HB_FUN_TABCTRL_GETIMAGELIST 0041d6b0 f   VXH:WinUtil.obj
 0001:0001c6f0       _HB_FUN_TABCTRL_SETIMAGELIST 0041d6f0 f   VXH:WinUtil.obj
 0001:0001c740       _HB_FUN_TABCTRL_SETITEM    0041d740 f   VXH:WinUtil.obj
 0001:0001c7b0       _HB_FUN_TABCTRL_DELETEALLITEMS 0041d7b0 f   VXH:WinUtil.obj
 0001:0001c7f0       _HB_FUN_TABCTRL_DELETEITEM 0041d7f0 f   VXH:WinUtil.obj
 0001:0001c840       _HB_FUN_TABCTRL_HITTEST    0041d840 f   VXH:WinUtil.obj
 0001:0001c870       _HB_FUN_TABCTRL_SETITEMEXTRA 0041d870 f   VXH:WinUtil.obj
 0001:0001c8c0       _HB_FUN_TABCTRL_ADJUSTRECT 0041d8c0 f   VXH:WinUtil.obj
 0001:0001c990       _HB_FUN_TABCTRL_SETITEMSIZE 0041d990 f   VXH:WinUtil.obj
 0001:0001ca00       _HB_FUN_TABCTRL_REMOVEIMAGE 0041da00 f   VXH:WinUtil.obj
 0001:0001ca30       _HB_FUN_TABCTRL_SETPADDING 0041da30 f   VXH:WinUtil.obj
 0001:0001ca80       _HB_FUN_TABCTRL_GETTOOLTIPS 0041da80 f   VXH:WinUtil.obj
 0001:0001cac0       _HB_FUN_TABCTRL_SETTOOLTIPS 0041dac0 f   VXH:WinUtil.obj
 0001:0001caf0       _HB_FUN_TABCTRL_GETCURFOCUS 0041daf0 f   VXH:WinUtil.obj
 0001:0001cb30       _HB_FUN_TABCTRL_SETCURFOCUS 0041db30 f   VXH:WinUtil.obj
 0001:0001cb80       _HB_FUN_TABCTRL_SETMINTABWIDTH 0041db80 f   VXH:WinUtil.obj
 0001:0001cbd0       _HB_FUN_TABCTRL_DESELECTALL 0041dbd0 f   VXH:WinUtil.obj
 0001:0001cc00       _HB_FUN_TABCTRL_HIGHLIGHTITEM 0041dc00 f   VXH:WinUtil.obj
 0001:0001cc70       _HB_FUN_TABCTRL_SETEXTENDEDSTYLE 0041dc70 f   VXH:WinUtil.obj
 0001:0001ccc0       _HB_FUN_TABCTRL_GETEXTENDEDSTYLE 0041dcc0 f   VXH:WinUtil.obj
 0001:0001cd00       _HB_FUN_TABCTRL_SETUNICODEFORMAT 0041dd00 f   VXH:WinUtil.obj
 0001:0001cd50       _HB_FUN_TABCTRL_GETUNICODEFORMAT 0041dd50 f   VXH:WinUtil.obj
 0001:0001cd90       _HB_FUN_OR                 0041dd90 f   VXH:WinUtil.obj
 0001:0001cdd0       _HB_FUN_SHGETSPECIALFOLDERLOCATION 0041ddd0 f   VXH:WinUtil.obj
 0001:0001ce40       _ConvertPathToLpItemIdList 0041de40 f   VXH:WinUtil.obj
 0001:0001cec0       _HB_FUN_CONVERTPATHTOLPITEMIDLIST 0041dec0 f   VXH:WinUtil.obj
 0001:0001cef0       _HB_FUN__SHGETFILEINFO     0041def0 f   VXH:WinUtil.obj
 0001:0001cf70       _HB_FUN_WAITEXECUTE        0041df70 f   VXH:WinUtil.obj
 0001:0001d000       _HB_FUN_SHGETDESKTOPFOLDER 0041e000 f   VXH:WinUtil.obj
 0001:0001d080       _HB_FUN_SHBROWSEFORFOLDER  0041e080 f   VXH:WinUtil.obj
 0001:0001d210       _HB_FUN_SHGETPATHFROMIDLIST 0041e210 f   VXH:WinUtil.obj
 0001:0001d250       _DrawShadow                0041e250 f   VXH:WinUtil.obj
 0001:0001d560       _HB_FUN__DRAWSHADOW        0041e560 f   VXH:WinUtil.obj
 0001:0001d5c0       _HB_FUN_GETWHEELDELTA      0041e5c0 f   VXH:WinUtil.obj
 0001:0001d600       _HB_FUN_GETSCREENBITMAP    0041e600 f   VXH:WinUtil.obj
 0001:0001d750       _HB_FUN_DRAWBITMAP         0041e750 f   VXH:WinUtil.obj
 0001:0001d940       _HB_FUN_XDRAWBITMAP        0041e940 f   VXH:WinUtil.obj
 0001:0001da90       _HB_FUN__GETCLASSNAME      0041ea90 f   VXH:WinUtil.obj
 0001:0001dad0       _HB_FUN_DRAWGRID           0041ead0 f   VXH:WinUtil.obj
 0001:0001db50       _HB_FUN_DRAWGRIDOLD        0041eb50 f   VXH:WinUtil.obj
 0001:0001dc20       _HB_FUN_GETXPARAM          0041ec20 f   VXH:WinUtil.obj
 0001:0001dc50       _HB_FUN_GETYPARAM          0041ec50 f   VXH:WinUtil.obj
 0001:0001dc80       _HB_FUN__REGISTERCLASSEX   0041ec80 f   VXH:WinUtil.obj
 0001:0001dcc0       _HB_FUN__GETCLASSINFO      0041ecc0 f   VXH:WinUtil.obj
 0001:0001dd30       _HB_FUN_ISREGISTERED       0041ed30 f   VXH:WinUtil.obj
 0001:0001ddb0       _HB_FUN_ISBADCODEPTR       0041edb0 f   VXH:WinUtil.obj
 0001:0001ddf0       ___DarkenColorXP           0041edf0 f   VXH:WinUtil.obj
 0001:0001de70       _HB_FUN_DRAWSHADOWXP       0041ee70 f   VXH:WinUtil.obj
 0001:0001df50       _HB_FUN_DARKENCOLORXP      0041ef50 f   VXH:WinUtil.obj
 0001:0001df90       __MixedColor               0041ef90 f   VXH:WinUtil.obj
 0001:0001e080       __MidColor                 0041f080 f   VXH:WinUtil.obj
 0001:0001e170       __LightenColor             0041f170 f   VXH:WinUtil.obj
 0001:0001e210       __DarkenColor              0041f210 f   VXH:WinUtil.obj
 0001:0001e290       __BleachColor              0041f290 f   VXH:WinUtil.obj
 0001:0001e370       __GetAlphaBlendColor       0041f370 f   VXH:WinUtil.obj
 0001:0001e440       _HB_FUN_MIXEDCOLOR         0041f440 f   VXH:WinUtil.obj
 0001:0001e480       _HB_FUN_MIDCOLOR           0041f480 f   VXH:WinUtil.obj
 0001:0001e4c0       _HB_FUN_LIGHTENCOLOR       0041f4c0 f   VXH:WinUtil.obj
 0001:0001e500       _HB_FUN___COLORLIGHTEN     0041f500 f   VXH:WinUtil.obj
 0001:0001e5a0       _HB_FUN_DARKENCOLOR        0041f5a0 f   VXH:WinUtil.obj
 0001:0001e5e0       _HB_FUN_BLEACHCOLOR        0041f5e0 f   VXH:WinUtil.obj
 0001:0001e620       _HB_FUN_GETALPHABLENDCOLOR 0041f620 f   VXH:WinUtil.obj
 0001:0001e670       _HB_FUN_DRAWRIGHTSHADOW    0041f670 f   VXH:WinUtil.obj
 0001:0001e760       _GetSystemImageList        0041f760 f   VXH:WinUtil.obj
 0001:0001e7f0       _HB_FUN_SYSGETIMAGELIST    0041f7f0 f   VXH:WinUtil.obj
 0001:0001e850       _HB_FUN_GETCSTR            0041f850 f   VXH:WinUtil.obj
 0001:0001e870       _ResetAdapter              0041f870 f   VXH:WinUtil.obj
 0001:0001e8d0       _GetAdapterStatus          0041f8d0 f   VXH:WinUtil.obj
 0001:0001e970       _GetMacAddress             0041f970 f   VXH:WinUtil.obj
 0001:0001eac0       _HB_FUN_GETMACADDRESS      0041fac0 f   VXH:WinUtil.obj
 0001:0001eaf0       _HB_FUN___ATLAXCREATECONTROL 0041faf0 f   VXH:WinUtil.obj
 0001:0001eb70       _HB_FUN___ATLAXCREATECONTROLLIC 0041fb70 f   VXH:WinUtil.obj
 0001:0001ec00       _HB_FUN___ATLAXGETHOST     0041fc00 f   VXH:WinUtil.obj
 0001:0001ec60       _HB_FUN___AXTRANSLATEBYHANDLE 0041fc60 f   VXH:WinUtil.obj
 0001:0001ecc0       _AxGetUnknown              0041fcc0 f   VXH:WinUtil.obj
 0001:0001ed00       _HB_FUN___AXGETUNKNOWN     0041fd00 f   VXH:WinUtil.obj
 0001:0001ed30       _AxTranslateMessage        0041fd30 f   VXH:WinUtil.obj
 0001:0001ed90       _HB_FUN___AXTRANSLATEMESSAGE 0041fd90 f   VXH:WinUtil.obj
 0001:0001eee0       _HB_FUN___MSGHOOKFUNC      0041fee0 f   VXH:WinUtil.obj
 0001:0001ef10       _HB_FUN___MSGUNHOOKFUNC    0041ff10 f   VXH:WinUtil.obj
 0001:0001ef30       _HB_FUN___AXTRANSLATEMESSAGEEX 0041ff30 f   VXH:WinUtil.obj
 0001:0001ef80       _HB_FUN___AXGETDISPATCH    0041ff80 f   VXH:WinUtil.obj
 0001:0001f020       _HB_FUN___AXGETMISCSTATUS  00420020 f   VXH:WinUtil.obj
 0001:0001f090       _HB_FUN___AXCLOSE          00420090 f   VXH:WinUtil.obj
 0001:0001f0d0       _HB_FUN___AXGETPROPERTIESDIALOG 004200d0 f   VXH:WinUtil.obj
 0001:0001f150       _AxAtlSetProp              00420150 f   VXH:WinUtil.obj
 0001:0001f2f0       _HB_FUN___AXSETPROPERTY    004202f0 f   VXH:WinUtil.obj
 0001:0001f350       _HB_FUN___AXGETPROPERTY    00420350 f   VXH:WinUtil.obj
 0001:0001f530       _HB_FUN___AXCALLMETHOD     00420530 f   VXH:WinUtil.obj
 0001:0001f800       _HB_FUN___AXRELEASEUNKNOWN 00420800 f   VXH:WinUtil.obj
 0001:0001f820       _HB_FUN___AXRELEASEDISPATCH 00420820 f   VXH:WinUtil.obj
 0001:0001f840       _HB_FUN___LOADATLAX        00420840 f   VXH:WinUtil.obj
 0001:0001f850       _HB_FUN___UNLOADATLAX      00420850 f   VXH:WinUtil.obj
 0001:0001f880       _HB_FUN___GETPIXELFROMBMP  00420880 f   VXH:WinUtil.obj
 0001:0001f8f0       _HB_FUN___ENUMSERVICES     004208f0 f   VXH:WinUtil.obj
 0001:0001fa90       _HB_FUN__REGENUMVALUE      00420a90 f   VXH:WinUtil.obj
 0001:0001fb50       _ListViewCompareProc@12    00420b50 f   VXH:WinUtil.obj
 0001:0001fc60       _ListViewCompareProc2@12   00420c60 f   VXH:WinUtil.obj
 0001:0001fcc0       _HB_FUN___LISTVIEWSORTCOLUMN 00420cc0 f   VXH:WinUtil.obj
 0001:0001fd00       _HB_FUN___LISTVIEWGETSUBITEM 00420d00 f   VXH:WinUtil.obj
 0001:0001fd30       _HB_FUN___LISTVIEWGETNEWSTATE 00420d30 f   VXH:WinUtil.obj
 0001:0001fd60       ___SystemShutdown          00420d60 f   VXH:WinUtil.obj
 0001:0001fe10       _HB_FUN_SYSTEMSHUTDOWN     00420e10 f   VXH:WinUtil.obj
 0001:0001fe50       _CreateBitmapInfoStruct    00420e50 f   VXH:WinUtil.obj
 0001:0001ff50       _HB_FUN_SENDBITMAP         00420f50 f   VXH:WinUtil.obj
 0001:00020050       _HB_FUN_GETBITMAPBITS      00421050 f   VXH:WinUtil.obj
 0001:00020100       _CreateBMPFile             00421100 f   VXH:WinUtil.obj
 0001:00020200       _HB_FUN_IMAGELISTSAVEIMAGE 00421200 f   VXH:WinUtil.obj
 0001:00020290       _HB_FUN_CREATEBMPFILE      00421290 f   VXH:WinUtil.obj
 0001:00020310       _HB_FUN_GETREALKEYNAME     00421310 f   VXH:WinUtil.obj
 0001:000203e0       _CreateDIBPalette          004213e0 f   VXH:WinUtil.obj
 0001:000204e0       __InternetStatusCallback@20 004214e0 f   VXH:WinUtil.obj
 0001:00020550       _HB_FUN__INTERNETSETSTATUSCALLBACK 00421550 f   VXH:WinUtil.obj
 0001:00020590       _HB_FUN__BMPREPLACECOLOR   00421590 f   VXH:WinUtil.obj
 0001:000207b0       _HB_FUN_PICTUREDISPLAYBLACKANDWHITE 004217b0 f   VXH:WinUtil.obj
 0001:00020950       _HB_FUN_PICTUREINVERTCOLORS 00421950 f   VXH:WinUtil.obj
 0001:00020af0       _HB_FUN_GETFILESIZE        00421af0 f   VXH:WinUtil.obj
 0001:00020b60       _HB_FUN___GETHEADERITEM    00421b60 f   VXH:WinUtil.obj
 0001:00020b90       _HB_FUN_GETOSDISPLAYSTRING 00421b90 f   VXH:WinUtil.obj
 0001:000215e0       _HB_FUN_IS64               004225e0 f   VXH:WinUtil.obj
 0001:00021650       _HB_FUN_SETSYSTEXTCOLOR    00422650 f   VXH:WinUtil.obj
 0001:000216b0       _HB_FUN___SETTBBTTNTTT     004226b0 f   VXH:WinUtil.obj
 0001:000216d0       _HB_FUN_EDITSETCUEBANNERTEXT 004226d0 f   VXH:WinUtil.obj
 0001:00021720       _HB_FUN___GETBKARRAY       00422720 f   VXH:WinUtil.obj
 0001:00021860       _HB_FUN___SETBKTRANSPARENT 00422860 f   VXH:WinUtil.obj
 0001:000218e0       _HB_FUN___SETBKARRAY       004228e0 f   VXH:WinUtil.obj
 0001:00021970       _HB_FUN_LISTBOXGETSELITEMS 00422970 f   VXH:WinUtil.obj
 0001:00021a20       _HB_FUN___GETTREEVIEWOLDITEM 00422a20 f   VXH:WinUtil.obj
 0001:00021a50       _HB_FUN___GETTREEVIEWNEWITEM 00422a50 f   VXH:WinUtil.obj
 0001:00021a80       _HB_FUN___FINDPIXELCOLOR   00422a80 f   VXH:WinUtil.obj
 0001:00021b50       _HB_FUN___RESOURCETOSTRING 00422b50 f   VXH:WinUtil.obj
 0001:00021bf0       _HB_FUN___RESICONTOSTRING  00422bf0 f   VXH:WinUtil.obj
 0001:00021c80       _HB_FUN_DBGN               00422c80 f   VXH:WinUtil.obj
 0001:00021cc0       _HB_FUN_TVDISPINFOIMAGE    00422cc0 f   VXH:WinUtil.obj
 0001:00021d00       _HB_FUN_TVDISPINFOGETHITEM 00422d00 f   VXH:WinUtil.obj
 0001:00021d30       _HB_FUN_SET_NCCALCSIZE_PARAMS 00422d30 f   VXH:WinUtil.obj
 0001:00021d50       _HB_FUN_SET_CONTROL_NCCALCSIZE_PARAMS 00422d50 f   VXH:WinUtil.obj
 0001:00021d80       _HB_FUN_SET_WINDOWPOS      00422d80 f   VXH:WinUtil.obj
 0001:00021dc0       _HB_FUN_TOOLSTRIP_NCCALCSIZE_PARAMS 00422dc0 f   VXH:WinUtil.obj
 0001:00021de0       _HB_FUN___GETMSG           00422de0 f   VXH:WinUtil.obj
 0001:00021e90       _HB_FUN___GETNMHDR         00422e90 f   VXH:WinUtil.obj
 0001:00021ed0       _HB_FUN___GETWINDOWPOS     00422ed0 f   VXH:WinUtil.obj
 0001:00021fd0       _HB_FUN___GETMEASUREITEMSTRUCT 00422fd0 f   VXH:WinUtil.obj
 0001:000220c0       _HB_FUN_KEYMENUHOOKCWP     004230c0 f   VXH:WinUtil.obj
 0001:00022110       _HB_FUN_MENUITEMINFOITEMDATA 00423110 f   VXH:WinUtil.obj
 0001:00022170       _HB_FUN___GETMENUITEMINFO  00423170 f   VXH:WinUtil.obj
 0001:000221f0       _HB_FUN_MENUITEMINFOITEMID 004231f0 f   VXH:WinUtil.obj
 0001:00022250       _HB_FUN___INSERTMENUSTRIPITEM 00423250 f   VXH:WinUtil.obj
 0001:00022320       _HB_FUN___DRAWITEMSTRUCT   00423320 f   VXH:WinUtil.obj
 0001:000224e0       _HB_FUN___DOEVENTS         004234e0 f   VXH:WinUtil.obj
 0001:00022520       _HB_FUN_EDITGETSEL         00423520 f   VXH:WinUtil.obj
 0001:00022580       _HB_FUN_EDITSETSEL         00423580 f   VXH:WinUtil.obj
 0001:000225e0       _HB_FUN_VXH_SETTOOLBARTOOLTIP 004235e0 f   VXH:WinUtil.obj
 0001:00022600       _HB_FUN_VXH_SETTOOLBARTOOLTIPW 00423600 f   VXH:WinUtil.obj
 0001:00022630       _HB_FUN_SAVEBMP            00423630 f   VXH:WinUtil.obj
 0001:00022780       _HB_FUN_GETBMPSTRING       00423780 f   VXH:WinUtil.obj
 0001:00022890       _HB_FUN___SETSCROLLINFO    00423890 f   VXH:WinUtil.obj
 0001:00022910       _HB_FUN_ENUMREGDLL         00423910 f   VXH:WinUtil.obj
 0001:00022d40       _HB_FUN_GETOLEICON         00423d40 f   VXH:WinUtil.obj
 0001:00022e10       _HB_FUN___LISTVIEWSETVIEW  00423e10 f   VXH:WinUtil.obj
 0001:00022ec0       _HB_FUN_SETFILETIME        00423ec0 f   VXH:WinUtil.obj
 0001:000230a0       _HB_FUN_NEXTLINE           004240a0 f   VXH:WinUtil.obj
 0001:000231d0       _HB_FUN_SENDEDITORSTRING   004241d0 f   VXH:WinUtil.obj
 0001:00023230       _HB_FUN_SENDEDITOR         00424230 f   VXH:WinUtil.obj
 0001:00023280       _HB_FUN_SCISETPROPERTY     00424280 f   VXH:WinUtil.obj
 0001:000232c0       _HB_FUN_SCIGETFOLD         004242c0 f   VXH:WinUtil.obj
 0001:00023300       _HB_FUN_SCISETKEYWORDS     00424300 f   VXH:WinUtil.obj
 0001:00023340       _HB_FUN_SCIREGISTEREVENTIMAGE 00424340 f   VXH:WinUtil.obj
 0001:00023380       _HB_FUN_SCIREGISTERMETHODIMAGE 00424380 f   VXH:WinUtil.obj
 0001:000233c0       _HB_FUN_SCIREGISTERPROPERTYIMAGE 004243c0 f   VXH:WinUtil.obj
 0001:00023400       _HB_FUN_TASKBARPROGRESSVALUE 00424400 f   VXH:WinUtil.obj
 0001:000234b0       _HB_FUN_TASKBARPROGRESSSTATE 004244b0 f   VXH:WinUtil.obj
 0001:00023540       _AxTranslateMessageEx      00424540 f   VXH:WinUtil.obj
 0001:00023600       _TranslateVXHAccel         00424600 f   VXH:WinUtil.obj
 0001:00023700       _HB_FUN___VXHYIELD         00424700 f   VXH:WinUtil.obj
 0001:00023740       _HB_FUN_VXH_MAINLOOP       00424740 f   VXH:WinUtil.obj
 0001:000237f0       _HB_FUN_GETPROCESSMEMORY   004247f0 f   VXH:WinUtil.obj
 0001:00023820       _HB_FUN_ISWOW64            00424820 f   VXH:WinUtil.obj
 0001:00023890       _HB_FUN___GETPROPERTYCASE  00424890 f   VXH:WinUtil.obj
 0001:000238c0       _HB_FUN_RUNASADMIN         004248c0 f   VXH:WinUtil.obj
 0001:00023ab0       _HB_FUN__GETOPENFILENAME   00424ab0 f   VXH:WinUtil.obj
 0001:00024240       _HB_FUN_ISRGB              00425240 f   VXH:WinUtil.obj
 0001:00024260       _HB_FUN_SYSTEMTIMETOLOCALTIME 00425260 f   VXH:WinUtil.obj
 0001:00024310       _HB_FUN_KILLPROCESS        00425310 f   VXH:WinUtil.obj
 0001:000243b0       _HB_FUN_ISPROCESSRUNNING   004253b0 f   VXH:WinUtil.obj
 0001:00024450       _HB_FUN_ASPTR              00425450 f   VXH:WinUtil.obj
 0001:00024480       _HB_FUN_ASLONG             00425480 f   VXH:WinUtil.obj
 0001:000244b0       _HB_FUN_VXH_FREECALLBACKPOINTER 004254b0 f   VXH:WinUtil.obj
 0001:00024540       _HB_FUN_VXH_FREECALLBACKOBJECT 00425540 f   VXH:WinUtil.obj
 0001:00024590       _HB_FUN_GETDISPLAYWORKAREA 00425590 f   VXH:WinUtil.obj
 0001:00024640       _HB_FUN_GETDEVMODEFIELDS   00425640 f   VXH:WinUtil.obj
 0001:00024700       _HB_FUN_CREATEIMAGELISTBITMAP 00425700 f   VXH:WinUtil.obj
 0001:00024860       _HB_FUN_VXH_GETNOTIFYCODE  00425860 f   VXH:WinUtil.obj
 0001:00024890       _HB_FUN_VXH_SETMENUBACKCOLOR 00425890 f   VXH:WinUtil.obj
 0001:000248f0       _HB_FUN_GETOLECOLOR        004258f0 f   VXH:WinUtil.obj
 0001:00024920       _EnumFontProc@16           00425920 f   VXH:WinUtil.obj
 0001:00024990       _HB_FUN__ENUMFONTS         00425990 f   VXH:WinUtil.obj
 0001:00024a00       _ChooseColorProc@16        00425a00 f   VXH:WinUtil.obj
 0001:00024a70       _HB_FUN__CHOOSECOLOR       00425a70 f   VXH:WinUtil.obj
 0001:00024c10       _HB_FUN_VXH_WSASTARTUP     00425c10 f   VXH:WinUtil.obj
 0001:00024c50       _HB_FUN_VXH_WSACLEANUP     00425c50 f   VXH:WinUtil.obj
 0001:00024c80       _HB_FUN_VXH_GETHOSTNAME    00425c80 f   VXH:WinUtil.obj
 0001:00024cc0       _HB_FUN_VXH_GETHOSTBYNAME  00425cc0 f   VXH:WinUtil.obj
 0001:00024d40       _HB_FUN_MESSAGEBOXINDIRECT 00425d40 f   VXH:WinUtil.obj
 0001:00024e60       _HB_FUN_GETSPECIALFOLDER   00425e60 f   VXH:WinUtil.obj
 0001:00024ef0       _HB_FUN_LISTVIEWSETBKIMAGE 00425ef0 f   VXH:WinUtil.obj
 0001:00024fd0       _GetAppVersion             00425fd0 f   VXH:WinUtil.obj
 0001:000250a0       _HB_FUN_GETFILEVERSION     004260a0 f   VXH:WinUtil.obj
 0001:00025110       _HB_FUN_FOLDERSHARE        00426110 f   VXH:WinUtil.obj
 0001:00025250       _HB_FUN_FOLDERUNSHARE      00426250 f   VXH:WinUtil.obj
 0001:00025270       _HB_FUN_GETSHAREFOLDER     00426270 f   VXH:WinUtil.obj
 0001:000252d0       _HB_FUN_GETSHARELIST       004262d0 f   VXH:WinUtil.obj
 0001:00025480       _HB_FUN_INIFILE            00426480 f   VXH:IniFile.obj
 0001:00025710       _HB_FUN_PROFESSIONALCOLORTABLE 00426710 f   VXH:ProfessionalColorTable.obj
 0001:000257b0       _HB_FUN_FLATGRAYCOLORTABLE 004267b0 f   VXH:ProfessionalColorTable.obj
 0001:000257f0       _HB_FUN_VSCOLORTABLE       004267f0 f   VXH:ProfessionalColorTable.obj
 0001:000258a0       _HB_FUN_REGISTRY           004268a0 f   VXH:Misc.obj
 0001:00025980       _HB_FUN___PROPER           00426980 f   VXH:Misc.obj
 0001:00025a30       _HB_FUN_DIALOG             00426a30 f   VXH:Dialog.obj
 0001:00025af0       _HB_FUN___GETTEMPLATE      00426af0 f   VXH:Dialog.obj
 0001:00025b70       _HB_FUN___GETFONTRATIO     00426b70 f   VXH:Dialog.obj
 0001:00025b90       _HB_FUN___GETTRUEAVEFONT   00426b90 f   VXH:Dialog.obj
 0001:00025bd0       _Rect2Array                00426bd0 f   VXH:FastWinAPI.obj
 0001:00025c70       _Array2Point               00426c70 f   VXH:FastWinAPI.obj
 0001:00025cc0       _Point2Array               00426cc0 f   VXH:FastWinAPI.obj
 0001:00025d20       _Array2Size                00426d20 f   VXH:FastWinAPI.obj
 0001:00025d70       _Size2Array                00426d70 f   VXH:FastWinAPI.obj
 0001:00025dd0       _Point2ArrayEx             00426dd0 f   VXH:FastWinAPI.obj
 0001:00025e30       _HB_FUN__INFLATERECT       00426e30 f   VXH:FastWinAPI.obj
 0001:00025ed0       _HB_FUN__INTERSECTRECT     00426ed0 f   VXH:FastWinAPI.obj
 0001:00025f70       _HB_FUN__UNIONRECT         00426f70 f   VXH:FastWinAPI.obj
 0001:00026010       _HB_FUN__SUBTRACTRECT      00427010 f   VXH:FastWinAPI.obj
 0001:000260b0       _HB_FUN__OFFSETRECT        004270b0 f   VXH:FastWinAPI.obj
 0001:00026160       _HB_FUN__ISRECTEMPTY       00427160 f   VXH:FastWinAPI.obj
 0001:000261e0       _HB_FUN__EQUALRECT         004271e0 f   VXH:FastWinAPI.obj
 0001:00026270       _HB_FUN__PTINRECT          00427270 f   VXH:FastWinAPI.obj
 0001:00026320       _HB_FUN__WINDOWFROMPOINT   00427320 f   VXH:FastWinAPI.obj
 0001:00026380       _HB_FUN__RECTVISIBLE       00427380 f   VXH:FastWinAPI.obj
 0001:00026400       _HB_FUN__VALIDATERECT      00427400 f   VXH:FastWinAPI.obj
 0001:000264a0       _HB_FUN__INVALIDATERECT    004274a0 f   VXH:FastWinAPI.obj
 0001:00026590       _HB_FUN__GETCLIENTRECT     00427590 f   VXH:FastWinAPI.obj
 0001:000265d0       _HB_FUN__GETWINDOWRECT     004275d0 f   VXH:FastWinAPI.obj
 0001:00026610       _HB_FUN__SETSCROLLINFO     00427610 f   VXH:FastWinAPI.obj
 0001:00026670       _HB_FUN__GETTEXTEXTENTPOINT32 00427670 f   VXH:FastWinAPI.obj
 0001:000266e0       _HB_FUN__GETTEXTEXTENTEXPOINT 004276e0 f   VXH:FastWinAPI.obj
 0001:00026760       _HB_FUN__POLYLINE          00427760 f   VXH:FastWinAPI.obj
 0001:00026890       _HB_FUN__POLYGON           00427890 f   VXH:FastWinAPI.obj
 0001:000269c0       _HB_FUN__CREATEPOLYGONRGN  004279c0 f   VXH:FastWinAPI.obj
 0001:00026ad0       _HB_FUN__EXTTEXTOUT        00427ad0 f   VXH:FastWinAPI.obj
 0001:00026c50       _HB_FUN__DRAWFRAMECONTROL  00427c50 f   VXH:FastWinAPI.obj
 0001:00026d00       _HB_FUN__CLIENTTOSCREEN    00427d00 f   VXH:FastWinAPI.obj
 0001:00026d90       _HB_FUN__SCREENTOCLIENT    00427d90 f   VXH:FastWinAPI.obj
 0001:00026e20       _HB_FUN__DRAWFOCUSRECT     00427e20 f   VXH:FastWinAPI.obj
 0001:00026ea0       _HB_FUN__GETSCROLLINFO     00427ea0 f   VXH:FastWinAPI.obj
 0001:00026f00       _HB_FUN__SCROLLWINDOW      00427f00 f   VXH:FastWinAPI.obj
 0001:00027000       _HB_FUN__GETCURSORPOS      00428000 f   VXH:FastWinAPI.obj
 0001:00027040       _HB_FUN__BEGINPAINT        00428040 f   VXH:FastWinAPI.obj
 0001:00027090       _HB_FUN__ENDPAINT          00428090 f   VXH:FastWinAPI.obj
 0001:000270e0       _HB_FUN__GETTEXTMETRICS    004280e0 f   VXH:FastWinAPI.obj
 0001:00027120       _HB_FUN__SENDMESSAGE       00428120 f   VXH:FastWinAPI.obj
 0001:00027290       _HB_FUN__POSTMESSAGE       00428290 f   VXH:FastWinAPI.obj
 0001:00027400       _HB_FUN__FILLRECT          00428400 f   VXH:FastWinAPI.obj
 0001:000274c0       _HB_FUN__DRAWEDGE          004284c0 f   VXH:FastWinAPI.obj
 0001:00027560       _HB_FUN__DRAWTEXT          00428560 f   VXH:FastWinAPI.obj
 0001:000276a0       _HB_FUN__GETSCROLLBARINFO  004286a0 f   VXH:FastWinAPI.obj
 0001:000276f0       _HB_FUN__CREATEFONT        004286f0 f   VXH:FastWinAPI.obj
 0001:00027a10       _HB_FUN__REDRAWWINDOW      00428a10 f   VXH:FastWinAPI.obj
 0001:00027af0       _HB_FUN__CHOOSEFONT        00428af0 f   VXH:FastWinAPI.obj
 0001:00027b50       _HB_FUN__GETWINDOWTEXT     00428b50 f   VXH:FastWinAPI.obj
 0001:00027ba0       _HB_FUN_DATETIME_GETRANGE  00428ba0 f   VXH:FastWinAPI.obj
 0001:00027ec0       _HB_FUN_DATETIME_SETRANGE  00428ec0 f   VXH:FastWinAPI.obj
 0001:00027fb0       _HB_FUN_MONTHCAL_SETRANGE  00428fb0 f   VXH:FastWinAPI.obj
 0001:000280a0       _HB_FUN_ISWINDOWCOVERED    004290a0 f   VXH:FastWinAPI.obj
 0001:000280f0       _HB_FUN__INVERTRECT        004290f0 f   VXH:FastWinAPI.obj
 0001:00028140       _HB_FUN__MAKEPOINTS        00429140 f   VXH:FastWinAPI.obj
 0001:00028170       _HB_FUN__CLIPCURSOR        00429170 f   VXH:FastWinAPI.obj
 0001:000281f0       _HB_FUN__GETMENUITEMINFO   004291f0 f   VXH:FastWinAPI.obj
 0001:00028260       _HB_FUN__SETWINDOWORGEX    00429260 f   VXH:FastWinAPI.obj
 0001:000282c0       _HB_FUN__SETWINDOWEXTEX    004292c0 f   VXH:FastWinAPI.obj
 0001:00028320       _HB_FUN__SETVIEWPORTEXTEX  00429320 f   VXH:FastWinAPI.obj
 0001:00028380       _HB_FUN__SETVIEWPORTORGEX  00429380 f   VXH:FastWinAPI.obj
 0001:000283e0       _HB_FUN__FTPFINDFIRSTFILE  004293e0 f   VXH:FastWinAPI.obj
 0001:00028480       _HB_FUN__INTERNETFINDNEXTFILE 00429480 f   VXH:FastWinAPI.obj
 0001:000284f0       _HB_FUN__FILETIMETOSYSTEMTIME 004294f0 f   VXH:FastWinAPI.obj
 0001:00028550       _HB_FUN__SYSTEMTIMETOTZSPECIFICLOCALTIME 00429550 f   VXH:FastWinAPI.obj
 0001:000285b0       _HB_FUN__FILETIMETOLOCALFILETIME 004295b0 f   VXH:FastWinAPI.obj
 0001:00028610       _HB_FUN__LOCALFILETIMETOFILETIME 00429610 f   VXH:FastWinAPI.obj
 0001:00028670       _HB_FUN_LOCALFILETIMETOSYSTEMTIME 00429670 f   VXH:FastWinAPI.obj
 0001:000286e0       _HB_FUN_GETTIMESTAMP       004296e0 f   VXH:FastWinAPI.obj
 0001:00028780       _HB_FUN_GETLOCALTIMESTAMP  00429780 f   VXH:FastWinAPI.obj
 0001:00028820       _HB_FUN__ALPHABLEND        00429820 f   VXH:FastWinAPI.obj
 0001:00028900       _HB_FUN__MONITORFROMPOINT  00429900 f   VXH:FastWinAPI.obj
 0001:00028960       _HB_FUN__GETMONITORINFO    00429960 f   VXH:FastWinAPI.obj
 0001:00028a20       _HB_FUN_OBJECT             00429a20 f   VXH:Object.obj
 0001:00028b80       _HB_FUN___SETWINDOWOBJPTR  00429b80 f   VXH:Object.obj
 0001:00028ba0       _HB_FUN_OBJFROMHANDLE      00429ba0 f   VXH:Object.obj
 0001:00028bc0       _HB_FUN___OBJPTR           00429bc0 f   VXH:Object.obj
 0001:00028be0       _HB_FUN___OBJFROMPTR       00429be0 f   VXH:Object.obj
 0001:00028c00       _HB_FUN___OBJRELPTR        00429c00 f   VXH:Object.obj
 0001:00028c20       _HB_FUN___OBJFROMID        00429c20 f   VXH:Object.obj
 0001:00028c40       _HB_FUN_OBJ2XML            00429c40 f   VXH:Object.obj
 0001:00028cd0       _HB_FUN_FONT               00429cd0 f   VXH:Font.obj
 0001:00028ea0       _HB_FUN_TOOLTIP            00429ea0 f   VXH:ToolTip.obj
 0001:00029090       _HB_FUN_DRAWING            0042a090 f   VXH:Drawing.obj
 0001:00029230       _HB_FUN_VXHENUMFONTS       0042a230 f   VXH:Drawing.obj
 0001:000292c0       _HB_FUN_MDICLIENT          0042a2c0 f   VXH:MDIClient.obj
 0001:00029470       _HB_FUN_SPLASH             0042a470 f   VXH:Splash.obj
 0001:00029490       _HB_FUN___SPLASHDLGPROC    0042a490 f   VXH:Splash.obj
 0001:000294b0       _HB_FUN_MESSAGEWAIT        0042a4b0 f   VXH:Splash.obj
 0001:00029570       _HB_FUN___MSGWAIT          0042a570 f   VXH:Splash.obj
 0001:00029590       _HB_FUN___MSGWAITDLGPROC   0042a590 f   VXH:Splash.obj
 0001:00029620       _HB_FUN_TREEVIEW           0042a620 f   VXH:TreeView.obj
 0001:00029720       _HB_FUN_FINDTREEITEM       0042a720 f   VXH:TreeView.obj
 0001:00029910       _HB_FUN_CONTROL            0042a910 f   VXH:Control.obj
 0001:00029b10       _HB_FUN_COMMONCONTROLS     0042ab10 f   VXH:Control.obj
 0001:00029b30       _HB_FUN_USERCONTROL        0042ab30 f   VXH:Control.obj
 0001:00029b70       _HB_FUN_TITLECONTROL       0042ab70 f   VXH:Control.obj
 0001:00029da0       _HB_FUN_TOOLSTRIPCONTAINER 0042ada0 f   VXH:ToolStrip.obj
 0001:00029f40       _HB_FUN_TOOLSTRIP          0042af40 f   VXH:ToolStrip.obj
 0001:0002a320       _HB_FUN_TOOLSTRIPITEM      0042b320 f   VXH:ToolStrip.obj
 0001:0002a520       _HB_FUN_TOOLSTRIPBUTTON    0042b520 f   VXH:ToolStrip.obj
 0001:0002a6c0       _HB_FUN____OPENMENU        0042b6c0 f   VXH:ToolStrip.obj
 0001:0002a780       _HB_FUN___KEYMENUHOOK      0042b780 f   VXH:ToolStrip.obj
 0001:0002a7a0       _HB_FUN___GETHOTITEM       0042b7a0 f   VXH:ToolStrip.obj
 0001:0002a7e0       _HB_FUN___MENUDIALOGHOOK   0042b7e0 f   VXH:ToolStrip.obj
 0001:0002a800       _HB_FUN_TOOLSTRIPCOMBOBOX  0042b800 f   VXH:ToolStrip.obj
 0001:0002a860       _HB_FUN_TOOLSTRIPLABEL     0042b860 f   VXH:ToolStrip.obj
 0001:0002a8c0       _HB_FUN_MENUSTRIPITEM      0042b8c0 f   VXH:ToolStrip.obj
 0001:0002a9c0       _HB_FUN_RESTORESHADOW      0042b9c0 f   VXH:ToolStrip.obj
 0001:0002a9e0       _HB_FUN___MENUSTRIPITEMSHORTCUT 0042b9e0 f   VXH:ToolStrip.obj
 0001:0002aa60       _HB_FUN___GRADIENTFILL     0042ba60 f   VXH:ToolStrip.obj
 0001:0002aa80       _HB_FUN_CONTEXTSTRIP       0042ba80 f   VXH:ToolStrip.obj
 0001:0002ab20       _HB_FUN___ADDNEWMENUITEM   0042bb20 f   VXH:ToolStrip.obj
 0001:0002abb0       _HB_FUN_DATAGRID           0042bbb0 f   VXH:DataGrid.obj
 0001:0002b490       _HB_FUN_GRIDCOLUMN         0042c490 f   VXH:DataGrid.obj
 0001:0002b700       _HB_FUN___SYSTEMCOLORS     0042c700 f   VXH:SysColors.obj
 0001:0002b750       _Pt2FontHeight             0042c750 f   VXH:ExplorBar.obj
 0001:0002b7c0       _FreeExplorerBarInfo@4     0042c7c0 f   VXH:ExplorBar.obj
 0001:0002ba10       _GetExplorerBarInfo@8      0042ca10 f   VXH:ExplorBar.obj
 0001:00030c90       _GetLogFont@8              00431c90 f   VXH:ExplorBar.obj
 0001:00030e50       _HB_FUN_GETEXPLORERBARINFO 00431e50 f   VXH:ExplorBar.obj
 0001:00030e90       _HB_FUN_EXPLORERBARINFO    00431e90 f   VXH:ExplorBar.obj
 0001:00030eb0       _HB_FUN_FREEEXPLORERBARINFO 00431eb0 f   VXH:ExplorBar.obj
 0001:00030ed0       _HB_FUN_ALPHABLENDHEADERBITMAP 00431ed0 f   VXH:ExplorBar.obj
 0001:00030f50       _HB_FUN_CHGCOLORREF        00431f50 f   VXH:ExplorBar.obj
 0001:00030fb0       _HB_FUN_FROMARGB           00431fb0 f   VXH:ExplorBar.obj
 0001:00031080       _HB_FUN_IMAGELIST          00432080 f   VXH:ImageList.obj
 0001:00031240       _HB_FUN___IMAGELISTCOMBOBOX 00432240 f   VXH:ImageList.obj
 0001:00031330       _HB_FUN_LISTVIEW           00432330 f   VXH:ListView.obj
 0001:000315d0       _HB_FUN_SYSLISTVIEW32      004325d0 f   VXH:ListView.obj
 0001:000315f0       _HB_FUN_LISTVIEWCOLUMN     004325f0 f   VXH:ListView.obj
 0001:00031670       _HB_FUN_LISTVIEWGROUP      00432670 f   VXH:ListView.obj
 0001:00031770       _HB_FUN_LISTVIEWNOTIFY     00432770 f   VXH:ListView.obj
 0001:000318c0       _HB_FUN_GROUPBOX           004328c0 f   VXH:GroupBox.obj
 0001:000319d0       _HB_FUN_RADIOBUTTON        004329d0 f   VXH:Radio.obj
 0001:00031ab0       _LoadPicture               00432ab0 f   VXH:LoadPic.obj
 0001:00031b50       _LoadResIcon               00432b50 f   VXH:LoadPic.obj
 0001:00031bd0       _PictureFromIcon           00432bd0 f   VXH:LoadPic.obj
 0001:00031c40       _LoadResImage              00432c40 f   VXH:LoadPic.obj
 0001:00031d20       _PictureFromBitmap         00432d20 f   VXH:LoadPic.obj
 0001:00031d90       _PictureRemove             00432d90 f   VXH:LoadPic.obj
 0001:00031dc0       _PictureGetSize            00432dc0 f   VXH:LoadPic.obj
 0001:00031e50       _PicturePaint              00432e50 f   VXH:LoadPic.obj
 0001:00032090       _PictureLoadImageFromResource 00433090 f   VXH:LoadPic.obj
 0001:000320d0       _PictureLoadIcon           004330d0 f   VXH:LoadPic.obj
 0001:00032100       _PictureLoadBitmap         00433100 f   VXH:LoadPic.obj
 0001:00032130       _PictureLoadFromResource   00433130 f   VXH:LoadPic.obj
 0001:000321b0       _hBitmapFromResource       004331b0 f   VXH:LoadPic.obj
 0001:00032260       _PictureLoadFromFile       00433260 f   VXH:LoadPic.obj
 0001:00032300       _SizeToArray               00433300 f   VXH:LoadPic.obj
 0001:00032360       _HB_FUN_PICTURESIZE        00433360 f   VXH:LoadPic.obj
 0001:00032390       _HB_FUN_LOAD_PICTURE       00433390 f   VXH:LoadPic.obj
 0001:000323c0       _HB_FUN_PICTURELOADFROMFILE 004333c0 f   VXH:LoadPic.obj
 0001:000323f0       _HB_FUN_PICTURELOADFROMRESOURCE 004333f0 f   VXH:LoadPic.obj
 0001:00032440       _HB_FUN_HBITMAPFROMRESOURCE 00433440 f   VXH:LoadPic.obj
 0001:00032490       _HB_FUN_PICTURELOADIMAGEFROMRESOURCE 00433490 f   VXH:LoadPic.obj
 0001:000324e0       _HB_FUN_PICTURELOADBITMAP  004334e0 f   VXH:LoadPic.obj
 0001:00032510       _HB_FUN_PICTURELOADICON    00433510 f   VXH:LoadPic.obj
 0001:00032540       _HB_FUN_PICTUREPAINT       00433540 f   VXH:LoadPic.obj
 0001:000325d0       _HB_FUN_PICTUREREMOVE      004335d0 f   VXH:LoadPic.obj
 0001:000325f0       _HB_FUN_PICTUREGETSIZE     004335f0 f   VXH:LoadPic.obj
 0001:00032630       _HB_FUN_HBITMAPFROMBUFFER  00433630 f   VXH:LoadPic.obj
 0001:00032700       _HB_FUN_TREEVIEWITEM       00433700 f   VXH:TreeViewItem.obj
 0001:00032930       _HB_FUN_SPLITTER           00433930 f   VXH:Splitter.obj
 0001:00032b20       _HB_FUN_COMPONENT          00433b20 f   VXH:Component.obj
 0001:00032c50       _HB_FUN_MASKEDIT           00433c50 f   VXH:MaskEdit.obj
 0001:00032e70       _HB_FUN_RESETCARET         00433e70 f   VXH:MaskEdit.obj
 0001:00032e90       _HB_FUN_VXHGET             00433e90 f   VXH:MaskEdit.obj
 0001:00032ed0       _VerQueryValueA@16         00433ed0     ActiveX:VERSION.dll
 0001:00032ed6       _GetFileVersionInfoSizeA@8 00433ed6     ActiveX:VERSION.dll
 0001:00032edc       _GetFileVersionInfoA@16    00433edc     ActiveX:VERSION.dll
 0001:00032ef0       _hb_vmAtInit               00433ef0 f   OptG:hvm.obj
 0001:00032f40       _hb_vmAtExit               00433f40 f   OptG:hvm.obj
 0001:00032fe0       _hb_vmIsMt                 00433fe0 f   OptG:hvm.obj
 0001:00032ff0       _hb_vmLock                 00433ff0 f   OptG:hvm.obj
 0001:00033000       _hb_vmUnlock               00434000 f   OptG:hvm.obj
 0001:00033150       _hb_vmSymbolResolveDeferred 00434150 f   OptG:hvm.obj
 0001:00033280       _hb_vmInit                 00434280 f   OptG:hvm.obj
 0001:00033570       _hb_vmReleaseLocalSymbols  00434570 f   OptG:hvm.obj
 0001:00033620       _hb_vmQuit                 00434620 f   OptG:hvm.obj
 0001:00033930       _hb_vmExecute              00434930 f   OptG:hvm.obj
 0001:00037a80       _HB_FUN_HB_VMEXECUTE       00438a80 f   OptG:hvm.obj
 0001:00040cb0       _hb_vmOperatorCall         00441cb0 f   OptG:hvm.obj
 0001:00040d80       _hb_vmOperatorCallUnary    00441d80 f   OptG:hvm.obj
 0001:00041090       _hb_vmDo                   00442090 f   OptG:hvm.obj
 0001:00041370       _hb_vmSend                 00442370 f   OptG:hvm.obj
 0001:00041d60       _hb_vmEvalBlock            00442d60 f   OptG:hvm.obj
 0001:00041d90       _hb_vmEvalBlockV           00442d90 f   OptG:hvm.obj
 0001:00041de0       _hb_vmEvalBlockOrMacro     00442de0 f   OptG:hvm.obj
 0001:00041ec0       _hb_vmDestroyBlockOrMacro  00442ec0 f   OptG:hvm.obj
 0001:00041f00       _hb_vmFunction             00442f00 f   OptG:hvm.obj
 0001:000433e0       _hb_vmPush                 004443e0 f   OptG:hvm.obj
 0001:00043420       _hb_vmPushState            00444420 f   OptG:hvm.obj
 0001:00043480       _hb_vmPushNil              00444480 f   OptG:hvm.obj
 0001:000434b0       _hb_vmPushLogical          004444b0 f   OptG:hvm.obj
 0001:000434f0       _hb_vmPushNumber           004444f0 f   OptG:hvm.obj
 0001:00043510       _hb_vmPushNumType          00444510 f   OptG:hvm.obj
 0001:000435c0       _hb_vmPushNumInt           004445c0 f   OptG:hvm.obj
 0001:00043670       _hb_vmPushInteger          00444670 f   OptG:hvm.obj
 0001:00043720       _hb_vmPushLong             00444720 f   OptG:hvm.obj
 0001:00043870       _hb_vmPushDouble           00444870 f   OptG:hvm.obj
 0001:000439a0       _hb_vmPushDate             004449a0 f   OptG:hvm.obj
 0001:000439e0       _hb_vmPushDateTime         004449e0 f   OptG:hvm.obj
 0001:00043a20       _hb_vmPushPointer          00444a20 f   OptG:hvm.obj
 0001:00043a60       _hb_vmPushString           00444a60 f   OptG:hvm.obj
 0001:00043aa0       _hb_vmPushSymbol           00444aa0 f   OptG:hvm.obj
 0001:00043b00       _hb_vmPushDynSym           00444b00 f   OptG:hvm.obj
 0001:00043b20       _hb_vmPushEvalSym          00444b20 f   OptG:hvm.obj
 0001:00044270       _hb_vmPopState             00445270 f   OptG:hvm.obj
 0001:00044c00       _hb_vmGetRealFuncSym       00445c00 f   OptG:hvm.obj
 0001:00044c40       _hb_vmFindModuleSymbols    00445c40 f   OptG:hvm.obj
 0001:00044d90       _hb_vmFreeSymbols          00445d90 f   OptG:hvm.obj
 0001:00044e10       _hb_vmBeginSymbolGroup     00445e10 f   OptG:hvm.obj
 0001:00044e30       _hb_vmInitSymbolGroup      00445e30 f   OptG:hvm.obj
 0001:00044fa0       _hb_vmExitSymbolGroup      00445fa0 f   OptG:hvm.obj
 0001:00045060       _hb_vmRegisterSymbols      00446060 f   OptG:hvm.obj
 0001:00045690       _hb_vmProcessSymbols       00446690 f   OptG:hvm.obj
 0001:00045710       _hb_vmProcessSysDllSymbols 00446710 f   OptG:hvm.obj
 0001:00045790       _hb_vmProcessPrgDllSymbols 00446790 f   OptG:hvm.obj
 0001:00045820       _hb_vmProcessExeUsesDllSymbols 00446820 f   OptG:hvm.obj
 0001:000458a0       _hb_vmSymbols              004468a0 f   OptG:hvm.obj
 0001:000458b0       _hb_vmLastModule           004468b0 f   OptG:hvm.obj
 0001:000458d0       _hb_vmExplicitStartup      004468d0 f   OptG:hvm.obj
 0001:00045950       _hb_vmDoExitFunctions      00446950 f   OptG:hvm.obj
 0001:00045ac0       _hb_vmFindModule           00446ac0 f   OptG:hvm.obj
 0001:00045af0       _hb_vmFindModuleByName     00446af0 f   OptG:hvm.obj
 0001:00045b90       _hb_vmForceLink            00446b90 f   OptG:hvm.obj
 0001:00045ba0       _HB_FUN_ERRORLEVEL         00446ba0 f   OptG:hvm.obj
 0001:00045be0       _hb_vmRequestQuit          00446be0 f   OptG:hvm.obj
 0001:00045c00       _hb_vmRequestEndProc       00446c00 f   OptG:hvm.obj
 0001:00045c20       _hb_vmRequestBreak         00446c20 f   OptG:hvm.obj
 0001:00045c90       _hb_vmRequestCancel        00446c90 f   OptG:hvm.obj
 0001:00045dc0       _hb_vmRequestQuery         00446dc0 f   OptG:hvm.obj
 0001:00045dd0       _hb_vmRequestReenter       00446dd0 f   OptG:hvm.obj
 0001:00045e30       _hb_vmRequestRestore       00446e30 f   OptG:hvm.obj
 0001:00045f30       _hb_vmRequestReset         00446f30 f   OptG:hvm.obj
 0001:00045f50       _hb_vmRequest              00446f50 f   OptG:hvm.obj
 0001:00045f70       _hb_vmIsLocalRef           00446f70 f   OptG:hvm.obj
 0001:00046040       _hb_vmIsStaticRef          00447040 f   OptG:hvm.obj
 0001:00046050       _hb_vmRegisterGlobals      00447050 f   OptG:hvm.obj
 0001:000460d0       _hb_vmIsGlobalRef          004470d0 f   OptG:hvm.obj
 0001:000460e0       _HB_FUN___SETPROFILER      004470e0 f   OptG:hvm.obj
 0001:000460f0       _HB_FUN___TRACEPRGCALLS    004470f0 f   OptG:hvm.obj
 0001:00046110       _hb_vmPushBaseArray        00447110 f   OptG:hvm.obj
 0001:000461a0       _hb_vmPushItemRef          004471a0 f   OptG:hvm.obj
 0001:000461e0       _HB_FUN_HB_FUNCPTR         004471e0 f   OptG:hvm.obj
 0001:00046270       _HB_FUN_HB_QSELF           00447270 f   OptG:hvm.obj
 0001:000462e0       _HB_FUN___OPCOUNT          004472e0 f   OptG:hvm.obj
 0001:00046300       _HB_FUN___OPGETPRF         00447300 f   OptG:hvm.obj
 0001:00046330       _HB_FUN_HB_SAVEBLOCK       00447330 f   OptG:hvm.obj
 0001:00046450       _HB_FUN_HB_RESTOREBLOCK    00447450 f   OptG:hvm.obj
 0001:00046760       _HB_FUN_HB_NOMOUSE         00447760 f   OptG:hvm.obj
 0001:00046770       _HB_FUN_HB_NOSTARTUPWINDOW 00447770 f   OptG:hvm.obj
 0001:00046780       _HB_FUN_HB_RESETWITH       00447780 f   OptG:hvm.obj
 0001:000467e0       _HB_FUN_HB_WITHOBJECTCOUNTER 004477e0 f   OptG:hvm.obj
 0001:00046800       _HB_FUN___TEXTINTO         00447800 f   OptG:hvm.obj
 0001:00046840       _HB_FUN_HB_MULTITHREAD     00447840 f   OptG:hvm.obj
 0001:00046860       _HB_FUN_HB_VMMODE          00447860 f   OptG:hvm.obj
 0001:000468b0       _hb_xvmExitProc            004478b0 f   OptG:hvm.obj
 0001:000468d0       _hb_xvmSeqBegin            004478d0 f   OptG:hvm.obj
 0001:00046960       _hb_xvmSeqEnd              00447960 f   OptG:hvm.obj
 0001:00046a30       _hb_xvmSeqRecover          00447a30 f   OptG:hvm.obj
 0001:00046aa0       _hb_xvmTryBegin            00447aa0 f   OptG:hvm.obj
 0001:00046ad0       _hb_xvmTryEnd              00447ad0 f   OptG:hvm.obj
 0001:00046b10       _hb_xvmTryEndFin           00447b10 f   OptG:hvm.obj
 0001:00046bf0       _hb_xvmTryRecover          00447bf0 f   OptG:hvm.obj
 0001:00046c30       _hb_xvmBeginFinally        00447c30 f   OptG:hvm.obj
 0001:00046c50       _hb_xvmEndFinally          00447c50 f   OptG:hvm.obj
 0001:00046c90       _hb_xvmSetLine             00447c90 f   OptG:hvm.obj
 0001:00046cc0       _hb_xvmBaseLine            00447cc0 f   OptG:hvm.obj
 0001:00046d00       _hb_xvmLineOffset          00447d00 f   OptG:hvm.obj
 0001:00046d40       _hb_xvmClassSetModule      00447d40 f   OptG:hvm.obj
 0001:00046df0       _hb_xvmIVarRef             00447df0 f   OptG:hvm.obj
 0001:00047170       _hb_xvmFrame               00448170 f   OptG:hvm.obj
 0001:00047190       _hb_xvmSFrame              00448190 f   OptG:hvm.obj
 0001:000471a0       _hb_xvmDo                  004481a0 f   OptG:hvm.obj
 0001:000471d0       _hb_xvmFunction            004481d0 f   OptG:hvm.obj
 0001:00047250       _hb_xvmSend                00448250 f   OptG:hvm.obj
 0001:000472d0       _hb_xvmSendWith            004482d0 f   OptG:hvm.obj
 0001:00047350       _hb_xvmRetValue            00448350 f   OptG:hvm.obj
 0001:000473c0       _hb_xvmStatics             004483c0 f   OptG:hvm.obj
 0001:000473e0       _hb_xvmParameter           004483e0 f   OptG:hvm.obj
 0001:00047400       _hb_xvmPushLocal           00448400 f   OptG:hvm.obj
 0001:00047410       _hb_xvmPushLocalByRef      00448410 f   OptG:hvm.obj
 0001:00047420       _hb_xvmPopLocal            00448420 f   OptG:hvm.obj
 0001:00047430       _hb_xvmPushStatic          00448430 f   OptG:hvm.obj
 0001:00047440       _hb_xvmPushStaticByRef     00448440 f   OptG:hvm.obj
 0001:00047450       _hb_xvmPopStatic           00448450 f   OptG:hvm.obj
 0001:00047460       _hb_xvmPushGlobal          00448460 f   OptG:hvm.obj
 0001:00047480       _hb_xvmPushGlobalByRef     00448480 f   OptG:hvm.obj
 0001:000474d0       _hb_xvmPopGlobal           004484d0 f   OptG:hvm.obj
 0001:000475b0       _hb_xvmPushVariable        004485b0 f   OptG:hvm.obj
 0001:000475e0       _hb_xvmPopVariable         004485e0 f   OptG:hvm.obj
 0001:00047670       _hb_xvmPushBlockShort      00448670 f   OptG:hvm.obj
 0001:00047690       _hb_xvmPushBlock           00448690 f   OptG:hvm.obj
 0001:000476b0       _hb_xvmPushSelf            004486b0 f   OptG:hvm.obj
 0001:000476d0       _hb_xvmPopLogical          004486d0 f   OptG:hvm.obj
 0001:00047700       _hb_xvmPopAlias            00448700 f   OptG:hvm.obj
 0001:00047760       _hb_xvmSwapAlias           00448760 f   OptG:hvm.obj
 0001:00047790       _hb_xvmPushField           00448790 f   OptG:hvm.obj
 0001:000477e0       _hb_xvmPushAlias           004487e0 f   OptG:hvm.obj
 0001:00047810       _hb_xvmPushAliasedField    00448810 f   OptG:hvm.obj
 0001:00047840       _hb_xvmPushAliasedVar      00448840 f   OptG:hvm.obj
 0001:00047870       _hb_xvmPopField            00448870 f   OptG:hvm.obj
 0001:00047900       _hb_xvmPushMemvar          00448900 f   OptG:hvm.obj
 0001:00047950       _hb_xvmPushMemvarByRef     00448950 f   OptG:hvm.obj
 0001:000479a0       _hb_xvmPopMemvar           004489a0 f   OptG:hvm.obj
 0001:00047a30       _hb_xvmPopAliasedField     00448a30 f   OptG:hvm.obj
 0001:00047a60       _hb_xvmPopAliasedVar       00448a60 f   OptG:hvm.obj
 0001:00047a90       _hb_xvmLocalAddInt         00448a90 f   OptG:hvm.obj
 0001:00047ad0       _hb_xvmLocalAdd            00448ad0 f   OptG:hvm.obj
 0001:00047ba0       _hb_xvmEqual               00448ba0 f   OptG:hvm.obj
 0001:00047bd0       _hb_xvmAnd                 00448bd0 f   OptG:hvm.obj
 0001:00047c00       _hb_xvmOr                  00448c00 f   OptG:hvm.obj
 0001:00047c30       _hb_xvmNot                 00448c30 f   OptG:hvm.obj
 0001:00047c60       _hb_xvmNegate              00448c60 f   OptG:hvm.obj
 0001:00047c90       _hb_xvmPower               00448c90 f   OptG:hvm.obj
 0001:00047cc0       _hb_xvmDuplicate           00448cc0 f   OptG:hvm.obj
 0001:00047cd0       _hb_xvmDuplTwo             00448cd0 f   OptG:hvm.obj
 0001:00047ce0       _hb_xvmForTest             00448ce0 f   OptG:hvm.obj
 0001:00047d10       _hb_xvmFuncPtr             00448d10 f   OptG:hvm.obj
 0001:00047d20       _hb_xvmNotEqual            00448d20 f   OptG:hvm.obj
 0001:00047d50       _hb_xvmLess                00448d50 f   OptG:hvm.obj
 0001:00047d80       _hb_xvmLessEqual           00448d80 f   OptG:hvm.obj
 0001:00047db0       _hb_xvmGreater             00448db0 f   OptG:hvm.obj
 0001:00047de0       _hb_xvmGreaterEqual        00448de0 f   OptG:hvm.obj
 0001:00047e10       _hb_xvmInstring            00448e10 f   OptG:hvm.obj
 0001:00047e40       _hb_xvmAddInt              00448e40 f   OptG:hvm.obj
 0001:00047e80       _hb_xvmPlus                00448e80 f   OptG:hvm.obj
 0001:00047f20       _hb_xvmMinus               00448f20 f   OptG:hvm.obj
 0001:00047f50       _hb_xvmMultByInt           00448f50 f   OptG:hvm.obj
 0001:000480c0       _hb_xvmMult                004490c0 f   OptG:hvm.obj
 0001:000480f0       _hb_xvmDivideByInt         004490f0 f   OptG:hvm.obj
 0001:00048300       _hb_xvmDivide              00449300 f   OptG:hvm.obj
 0001:00048330       _hb_xvmModulus             00449330 f   OptG:hvm.obj
 0001:00048360       _hb_xvmInc                 00449360 f   OptG:hvm.obj
 0001:00048390       _hb_xvmDec                 00449390 f   OptG:hvm.obj
 0001:000483c0       _hb_xvmBitAnd              004493c0 f   OptG:hvm.obj
 0001:000483f0       _hb_xvmBitOr               004493f0 f   OptG:hvm.obj
 0001:00048420       _hb_xvmBitXor              00449420 f   OptG:hvm.obj
 0001:00048450       _hb_xvmBitShiftL           00449450 f   OptG:hvm.obj
 0001:00048480       _hb_xvmBitShiftR           00449480 f   OptG:hvm.obj
 0001:000484b0       _hb_xvmLeft                004494b0 f   OptG:hvm.obj
 0001:000485b0       _hb_xvmRight               004495b0 f   OptG:hvm.obj
 0001:00048610       _hb_xvmLike                00449610 f   OptG:hvm.obj
 0001:000486c0       _hb_xvmMatch               004496c0 f   OptG:hvm.obj
 0001:00048770       _hb_xvmArrayDim            00449770 f   OptG:hvm.obj
 0001:00048780       _hb_xvmArrayGen            00449780 f   OptG:hvm.obj
 0001:000487a0       _hb_xvmHashGen             004497a0 f   OptG:hvm.obj
 0001:00048f00       _hb_xvmArrayPush           00449f00 f   OptG:hvm.obj
 0001:00048f30       _hb_xvmArrayPushRef        00449f30 f   OptG:hvm.obj
 0001:00048f60       _hb_xvmArrayItemPush       00449f60 f   OptG:hvm.obj
 0001:00048f90       _hb_xvmArrayPop            00449f90 f   OptG:hvm.obj
 0001:00048fc0       _hb_xvmArrayPopPlus        00449fc0 f   OptG:hvm.obj
 0001:00048ff0       _hb_xvmArrayItemPop        00449ff0 f   OptG:hvm.obj
 0001:00049020       _hb_xvmPushDouble          0044a020 f   OptG:hvm.obj
 0001:00049040       _hb_xvmPushLongLong        0044a040 f   OptG:hvm.obj
 0001:00049060       _hb_xvmLocalName           0044a060 f   OptG:hvm.obj
 0001:00049080       _hb_xvmStaticName          0044a080 f   OptG:hvm.obj
 0001:000490a0       _hb_xvmModuleName          0044a0a0 f   OptG:hvm.obj
 0001:000490b0       _hb_xvmMacroList           0044a0b0 f   OptG:hvm.obj
 0001:000490d0       _hb_xvmMacroListEnd        0044a0d0 f   OptG:hvm.obj
 0001:000490f0       _hb_xvmMacroPush           0044a0f0 f   OptG:hvm.obj
 0001:00049130       _hb_xvmPushMacroRef        0044a130 f   OptG:hvm.obj
 0001:00049170       _hb_xvmMacroPushIndex      0044a170 f   OptG:hvm.obj
 0001:000492a0       _hb_xvmMacroPushArg        0044a2a0 f   OptG:hvm.obj
 0001:00049300       _hb_xvmMacroPushList       0044a300 f   OptG:hvm.obj
 0001:00049340       _hb_xvmMacroPushPare       0044a340 f   OptG:hvm.obj
 0001:00049380       _hb_xvmMacroPushAliased    0044a380 f   OptG:hvm.obj
 0001:000493c0       _hb_xvmMacroPop            0044a3c0 f   OptG:hvm.obj
 0001:00049400       _hb_xvmMacroPopAliased     0044a400 f   OptG:hvm.obj
 0001:00049440       _hb_xvmMacroSymbol         0044a440 f   OptG:hvm.obj
 0001:00049470       _hb_xvmMacroText           0044a470 f   OptG:hvm.obj
 0001:000494a0       _hb_xvmLocalSetInt         0044a4a0 f   OptG:hvm.obj
 0001:00049530       _hb_xvmLocalSetStr         0044a530 f   OptG:hvm.obj
 0001:000495d0       _hb_xvmSwitchCase          0044a5d0 f   OptG:hvm.obj
 0001:000496b0       _hb_xvmPushWith            0044a6b0 f   OptG:hvm.obj
 0001:000496f0       _hb_xvmWithObject          0044a6f0 f   OptG:hvm.obj
 0001:000497b0       _hb_xvmEndWithObject       0044a7b0 f   OptG:hvm.obj
 0001:00049800       _hb_xvmEnumIndex           0044a800 f   OptG:hvm.obj
 0001:00049890       _hb_xvmForEach             0044a890 f   OptG:hvm.obj
 0001:00049a80       _hb_xvmEnumerate           0044aa80 f   OptG:hvm.obj
 0001:00049c50       _hb_xvmEndEnumerate        0044ac50 f   OptG:hvm.obj
 0001:00049d40       _hb_xvmLocalSetStringHidden 0044ad40 f   OptG:hvm.obj
 0001:00049df0       _hb_xvmPushStringHidden    0044adf0 f   OptG:hvm.obj
 0001:00049e20       _hb_xvmDivert              0044ae20 f   OptG:hvm.obj
 0001:00049e30       _hb_vmRequestDebug         0044ae30 f   OptG:hvm.obj
 0001:00049e40       _hb_dbg_InvokeDebug        0044ae40 f   OptG:hvm.obj
 0001:00049e60       _hb_dbg_SetEntry           0044ae60 f   OptG:hvm.obj
 0001:00049e80       _hb_dbg_vmVarSGet          0044ae80 f   OptG:hvm.obj
 0001:00049ea0       _hb_dbg_ProcLevel          0044aea0 f   OptG:hvm.obj
 0001:00049eb0       _HB_FUN_HB_DBG_INVOKEDEBUG 0044aeb0 f   OptG:hvm.obj
 0001:00049f00       _HB_FUN_HB_DBG_VMVARSLIST  0044af00 f   OptG:hvm.obj
 0001:00049f30       _HB_FUN_HB_DBG_VMVARSLEN   0044af30 f   OptG:hvm.obj
 0001:00049f50       _HB_FUN_HB_DBG_VMVARSGET   0044af50 f   OptG:hvm.obj
 0001:00049f90       _HB_FUN_HB_DBG_VMVARSSET   0044af90 f   OptG:hvm.obj
 0001:00049fe0       _HB_FUN_HB_DBG_PROCLEVEL   0044afe0 f   OptG:hvm.obj
 0001:0004a000       _hb_dbg_vmVarGCount        0044b000 f   OptG:hvm.obj
 0001:0004a010       _hb_dbg_vmVarGGet          0044b010 f   OptG:hvm.obj
 0001:0004a030       _HB_FUN_HB_DBG_VMVARGLIST  0044b030 f   OptG:hvm.obj
 0001:0004a060       _HB_FUN_HB_DBG_VMVARGGET   0044b060 f   OptG:hvm.obj
 0001:0004a0a0       _HB_FUN_HB_DBG_VMVARGSET   0044b0a0 f   OptG:hvm.obj
 0001:0004a0f0       _HB_FUN___VMVARGLIST       0044b0f0 f   OptG:hvm.obj
 0001:0004a100       _HB_FUN___VMVARSLIST       0044b100 f   OptG:hvm.obj
 0001:0004a110       _HB_FUN___VMVARSLEN        0044b110 f   OptG:hvm.obj
 0001:0004a120       _HB_FUN___VMVARSGET        0044b120 f   OptG:hvm.obj
 0001:0004a130       _HB_FUN___VMVARSSET        0044b130 f   OptG:hvm.obj
 0001:0004a140       _hb_vmPushSize             0044b140 f   OptG:hvm.obj
 0001:0004a150       _hb_xalloc                 0044b150 f   OptG:fm.obj
 0001:0004a190       _hb_xgrab                  0044b190 f   OptG:fm.obj
 0001:0004a1e0       _hb_xrealloc               0044b1e0 f   OptG:fm.obj
 0001:0004a270       _hb_xfree                  0044b270 f   OptG:fm.obj
 0001:0004a2a0       _hb_xRefInc                0044b2a0 f   OptG:fm.obj
 0001:0004a2b0       _hb_xRefDec                0044b2b0 f   OptG:fm.obj
 0001:0004a2d0       _hb_xRefFree               0044b2d0 f   OptG:fm.obj
 0001:0004a2f0       _hb_xRefCount              0044b2f0 f   OptG:fm.obj
 0001:0004a300       _hb_xRefResize             0044b300 f   OptG:fm.obj
 0001:0004a3b0       _hb_xautorelease           0044b3b0 f   OptG:fm.obj
 0001:0004a3c0       _hb_xsize                  0044b3c0 f   OptG:fm.obj
 0001:0004a3d0       _hb_xinit                  0044b3d0 f   OptG:fm.obj
 0001:0004a3e0       _hb_xexit                  0044b3e0 f   OptG:fm.obj
 0001:0004a3f0       _hb_xquery                 0044b3f0 f   OptG:fm.obj
 0001:0004a590       _HB_FUN_MEMORY             0044b590 f   OptG:fm.obj
 0001:0004a5c0       _HB_FUN_HB_FM_NOSTAT       0044b5c0 f   OptG:fm.obj
 0001:0004a720       _hb_clsInit                0044b720 f   xhb:classes.obj
 0001:0004a890       _hb_clsDisableDestructors  0044b890 f   xhb:classes.obj
 0001:0004a8a0       _hb_clsDestructorsAllowed  0044b8a0 f   xhb:classes.obj
 0001:0004a8b0       _hb_clsClearAllClassDatas  0044b8b0 f   xhb:classes.obj
 0001:0004a8f0       _hb_clsClearAll            0044b8f0 f   xhb:classes.obj
 0001:0004a930       _hb_clsReleaseAll          0044b930 f   xhb:classes.obj
 0001:0004a9e0       _hb_clsIsClassRef          0044b9e0 f   xhb:classes.obj
 0001:0004af40       _hb_clsIsParent            0044bf40 f   xhb:classes.obj
 0001:0004afd0       _hb_objGetClsName          0044bfd0 f   xhb:classes.obj
 0001:0004b0e0       _hb_clsName                0044c0e0 f   xhb:classes.obj
 0001:0004b110       _hb_objGetRealCls          0044c110 f   xhb:classes.obj
 0001:0004b1a0       _hb_objGetRealClsName      0044c1a0 f   xhb:classes.obj
 0001:0004b2d0       _hb_objGetOpOver           0044c2d0 f   xhb:classes.obj
 0001:0004b300       _hb_objGetClsSymbol        0044c300 f   xhb:classes.obj
 0001:0004b530       _hb_objGetMethod           0044c530 f   xhb:classes.obj
 0001:0004b580       _hb_objGetMthd             0044c580 f   xhb:classes.obj
 0001:0004b7d0       _hb_clsHasMsg              0044c7d0 f   xhb:classes.obj
 0001:0004b850       _hb_objGetpMthd            0044c850 f   xhb:classes.obj
 0001:0004b8a0       _hb_objGetpMethod          0044c8a0 f   xhb:classes.obj
 0001:0004b8e0       _hb_objHasMsg              0044c8e0 f   xhb:classes.obj
 0001:0004b900       _hb_objHasMessage          0044c900 f   xhb:classes.obj
 0001:0004c9f0       _HB_FUN___CLSADDMSG        0044d9f0 f   xhb:classes.obj
 0001:0004cc20       ___cls_CntMethods          0044dc20 f   xhb:classes.obj
 0001:0004d940       _HB_FUN___CLSNEW           0044e940 f   xhb:classes.obj
 0001:0004dab0       _hb_clsDeactiveClass       0044eab0 f   xhb:classes.obj
 0001:0004db20       _HB_FUN___CLSISACTIVE      0044eb20 f   xhb:classes.obj
 0001:0004db80       _HB_FUN___CLSACTIVE        0044eb80 f   xhb:classes.obj
 0001:0004dc10       _HB_FUN___CLSSETMODULE     0044ec10 f   xhb:classes.obj
 0001:0004dc90       _HB_FUN___CLSDELMSG        0044ec90 f   xhb:classes.obj
 0001:0004dde0       _HB_FUN___CLSINST          0044ede0 f   xhb:classes.obj
 0001:0004de00       _hb_clsInst                0044ee00 f   xhb:classes.obj
 0001:0004e230       _HB_FUN___CLSMODMSG        0044f230 f   xhb:classes.obj
 0001:0004e560       _HB_FUN___CLSMSGASSIGNED   0044f560 f   xhb:classes.obj
 0001:0004e620       _HB_FUN___OBJGETCLSNAME    0044f620 f   xhb:classes.obj
 0001:0004e650       _HB_FUN___CLSHASMSG        0044f650 f   xhb:classes.obj
 0001:0004e720       _HB_FUN___OBJHASMSG        0044f720 f   xhb:classes.obj
 0001:0004e7b0       _hb_objClone               0044f7b0 f   xhb:classes.obj
 0001:0004e8a0       _HB_FUN___OBJCLONE         0044f8a0 f   xhb:classes.obj
 0001:0004e8f0       _hb_objSendMsg             0044f8f0 f   xhb:classes.obj
 0001:0004e980       _hb_objSendSymbol          0044f980 f   xhb:classes.obj
 0001:0004e9d0       _hb_objSendMessage         0044f9d0 f   xhb:classes.obj
 0001:0004ea20       _HB_FUN___OBJSENDMSG       0044fa20 f   xhb:classes.obj
 0001:0004eae0       _HB_FUN___OBJSENDMSGCASE   0044fae0 f   xhb:classes.obj
 0001:0004eba0       _HB_FUN___CLSINSTSUPER     0044fba0 f   xhb:classes.obj
 0001:0004ece0       _HB_FUN___CLS_CNTCLSDATA   0044fce0 f   xhb:classes.obj
 0001:0004ed40       _HB_FUN___CLS_CNTSHRDATA   0044fd40 f   xhb:classes.obj
 0001:0004ed80       _HB_FUN___CLS_CNTDATA      0044fd80 f   xhb:classes.obj
 0001:0004edd0       _HB_FUN___CLS_DECDATA      0044fdd0 f   xhb:classes.obj
 0001:0004ee20       _HB_FUN___CLS_INCDATA      0044fe20 f   xhb:classes.obj
 0001:0004ee90       _HB_FUN___CLASSNAME        0044fe90 f   xhb:classes.obj
 0001:0004eef0       _HB_FUN___CLASSSEL         0044fef0 f   xhb:classes.obj
 0001:0004efa0       _HB_FUN___GETMEMBERS       0044ffa0 f   xhb:classes.obj
 0001:0004f1b0       _HB_FUN___GETMESSAGE       004501b0 f   xhb:classes.obj
 0001:0004f1e0       _HB_FUN___CLSPARENT        004501e0 f   xhb:classes.obj
 0001:0004f230       _HB_FUN___SENDER           00450230 f   xhb:classes.obj
 0001:0004f2b0       _hb_objClassH              004502b0 f   xhb:classes.obj
 0001:0004f3d0       _HB_FUN___CLASSH           004503d0 f   xhb:classes.obj
 0001:0004f400       _HB_FUN___EVAL             00450400 f   xhb:classes.obj
 0001:0004fab0       _hb___msgGetClsData        00450ab0 f   xhb:classes.obj
 0001:0004fb00       _hb___msgSetClsData        00450b00 f   xhb:classes.obj
 0001:0004fb60       _hb___msgGetShrData        00450b60 f   xhb:classes.obj
 0001:0004fbb0       _hb___msgSetShrData        00450bb0 f   xhb:classes.obj
 0001:0004fc20       _hb___msgGetData           00450c20 f   xhb:classes.obj
 0001:0004fc70       _hb___msgSetData           00450c70 f   xhb:classes.obj
 0001:0004fdb0       _hb_clsClassesArray        00450db0 f   xhb:classes.obj
 0001:0004fdc0       _hb_clsMaxClasses          00450dc0 f   xhb:classes.obj
 0001:0004fdd0       _HB_FUN___GETMSGPRF        00450dd0 f   xhb:classes.obj
 0001:0004fe00       _hb_mthAddTime             00450e00 f   xhb:classes.obj
 0001:0004fe10       _hb_clsFinalize            00450e10 f   xhb:classes.obj
 0001:00050010       _HB_FUN___CLSGETPROPERTIES 00451010 f   xhb:classes.obj
 0001:000500d0       _HB_FUN___CLSGETPROPERTIESANDVALUES 004510d0 f   xhb:classes.obj
 0001:000501e0       _HB_FUN___CLSGETIVARNAMESANDVALUES 004511e0 f   xhb:classes.obj
 0001:00050320       _hb_clsSymbolFromFunction  00451320 f   xhb:classes.obj
 0001:00050390       _HB_FUN_HB_OBJMSGPTR       00451390 f   xhb:classes.obj
 0001:00050430       _hb_clsGetHandleFromName   00451430 f   xhb:classes.obj
 0001:000504a0       _HB_FUN___CLSGETHANDLEFROMNAME 004514a0 f   xhb:classes.obj
 0001:00050630       _hb_clsSetModule           00451630 f   xhb:classes.obj
 0001:00050670       _HB_FUN___SETCLASSSCOPE    00451670 f   xhb:classes.obj
 0001:000506c0       _hb_clsSetScope            004516c0 f   xhb:classes.obj
 0001:000506e0       _HB_FUN___SETCLASSAUTOINIT 004516e0 f   xhb:classes.obj
 0001:00050860       _HB_FUN___CLSADDFRIEND     00451860 f   xhb:classes.obj
 0001:000508a0       _HB_FUN___CLSFRIENDLY      004518a0 f   xhb:classes.obj
 0001:000509c0       _HB_FUN___CLSASSOCTYPE     004519c0 f   xhb:classes.obj
 0001:00050c30       _HB_FUN___CLSCNTCLASSES    00451c30 f   xhb:classes.obj
 0001:00050c50       _HB_FUN___CLSINSTNAME      00451c50 f   xhb:classes.obj
 0001:00050d30       _hb_clsCreate              00451d30 f   xhb:classes.obj
 0001:00050d60       _hb_clsAdd                 00451d60 f   xhb:classes.obj
 0001:00050d90       _hb_clsAddData             00451d90 f   xhb:classes.obj
 0001:00050dc0       _hb_clsAssociate           00451dc0 f   xhb:classes.obj
 0001:00050de0       _hb_clsAddDataInit         00451de0 f   xhb:classes.obj
 0001:00050e60       _HB_FUN_HBCLASS            00451e60 f   xhb:tclass.obj
 0001:000511a0       _HB_FUN_ARRAY              004521a0 f   xhb:arrayshb.obj
 0001:00051240       _HB_FUN_AADD               00452240 f   xhb:arrayshb.obj
 0001:00051370       _HB_FUN_HB_ARRAYID         00452370 f   xhb:arrayshb.obj
 0001:000513a0       _HB_FUN_HB_THISARRAY       004523a0 f   xhb:arrayshb.obj
 0001:000513f0       _HB_FUN_ASIZE              004523f0 f   xhb:arrayshb.obj
 0001:000514d0       _HB_FUN_ASIZEALLOC         004524d0 f   xhb:arrayshb.obj
 0001:00051540       _HB_FUN_ALENALLOC          00452540 f   xhb:arrayshb.obj
 0001:00051570       _HB_FUN_ATAIL              00452570 f   xhb:arrayshb.obj
 0001:000515a0       _HB_FUN_AINS               004525a0 f   xhb:arrayshb.obj
 0001:000516a0       _HB_FUN_HB_AINS            004526a0 f   xhb:arrayshb.obj
 0001:000516b0       _HB_FUN_ADEL               004526b0 f   xhb:arrayshb.obj
 0001:00051790       _HB_FUN_AFILL              00452790 f   xhb:arrayshb.obj
 0001:00051990       _HB_FUN_ASCAN              00452990 f   xhb:arrayshb.obj
 0001:00051a70       _HB_FUN_AEVAL              00452a70 f   xhb:arrayshb.obj
 0001:00051bc0       _HB_FUN_ACOPY              00452bc0 f   xhb:arrayshb.obj
 0001:00051ce0       _HB_FUN_ACLONE             00452ce0 f   xhb:arrayshb.obj
 0001:00051d20       _HB_FUN_HB_APARAMS         00452d20 f   xhb:arrayshb.obj
 0001:00051d80       _HB_FUN_HB_AEXPRESSIONS    00452d80 f   xhb:arrayshb.obj
 0001:00052020       _SizeOfCStructure          00453020 f   xhb:arrayshb.obj
 0001:00052370       _HB_FUN_HB_SIZEOFCSTRUCTURE 00453370 f   xhb:arrayshb.obj
 0001:00052400       _ArrayToStructure          00453400 f   xhb:arrayshb.obj
 0001:000542f0       _HB_FUN_HB_ARRAYTOSTRUCTURE 004552f0 f   xhb:arrayshb.obj
 0001:000543c0       _StructureToArray          004553c0 f   xhb:arrayshb.obj
 0001:00054cf0       _HB_FUN_HB_STRUCTURETOARRAY 00455cf0 f   xhb:arrayshb.obj
 0001:00054e00       _HB_FUN_RASCAN             00455e00 f   xhb:arrayshb.obj
 0001:00055250       _HB_FUN_ASPLICE            00456250 f   xhb:arrayshb.obj
 0001:000555b0       _HB_FUN_AREMOVE            004565b0 f   xhb:arrayshb.obj
 0001:000555c0       _HB_FUN_AMERGE             004565c0 f   xhb:arrayshb.obj
 0001:00055700       _HB_FUN_PCOUNT             00456700 f   xhb:pcount.obj
 0001:00055730       _hb_parcstruct             00456730 f   xhb:dllcall.obj
 0001:000558f0       _HB_FUN_DLLPREPARECALL     004568f0 f   xhb:dllcall.obj
 0001:00055b40       _HB_FUN_LOADLIBRARY        00456b40 f   xhb:dllcall.obj
 0001:00055b70       _HB_FUN_FREELIBRARY        00456b70 f   xhb:dllcall.obj
 0001:00055bb0       _HB_FUN_DLLLOAD            00456bb0 f   xhb:dllcall.obj
 0001:00055bc0       _HB_FUN_DLLUNLOAD          00456bc0 f   xhb:dllcall.obj
 0001:00055c00       _HB_FUN_SETLASTERROR       00456c00 f   xhb:dllcall.obj
 0001:00056510       _HB_FUN_DLLEXECUTECALL     00457510 f   xhb:dllcall.obj
 0001:00056580       _HB_FUN_DLLCALL            00457580 f   xhb:dllcall.obj
 0001:000566d0       _DynaCall                  004576d0 f   xhb:dllcall.obj
 0001:00056860       _HB_FUN_CALLDLL            00457860 f   xhb:dllcall.obj
 0001:000568b0       _HB_FUN_TRANSFORM          004578b0 f   xhb:transfrm.obj
 0001:00058fc0       _HB_FUN_CTOD               00459fc0 f   xhb:dateshb.obj
 0001:00059050       _HB_FUN_DTOC               0045a050 f   xhb:dateshb.obj
 0001:000590e0       _HB_FUN_DTOS               0045a0e0 f   xhb:dateshb.obj
 0001:00059150       _HB_FUN_STOD               0045a150 f   xhb:dateshb.obj
 0001:00059210       _HB_FUN_YEAR               0045a210 f   xhb:dateshb.obj
 0001:00059290       _HB_FUN_MONTH              0045a290 f   xhb:dateshb.obj
 0001:00059310       _HB_FUN_DAY                0045a310 f   xhb:dateshb.obj
 0001:00059390       _HB_FUN_TIME               0045a390 f   xhb:dateshb.obj
 0001:000593c0       _HB_FUN_TIMEOFDAY          0045a3c0 f   xhb:dateshb.obj
 0001:00059470       _HB_FUN_DATE               0045a470 f   xhb:dateshb.obj
 0001:000594b0       _HB_FUN_DOW                0045a4b0 f   xhb:dateshb.obj
 0001:00059520       _HB_FUN_DATETIME           0045a520 f   xhb:dateshb.obj
 0001:00059620       _HB_FUN_TTOD               0045a620 f   xhb:dateshb.obj
 0001:00059680       _HB_FUN_TTOS               0045a680 f   xhb:dateshb.obj
 0001:000596e0       _HB_FUN_TTOC               0045a6e0 f   xhb:dateshb.obj
 0001:00059820       _HB_FUN_HOUR               0045a820 f   xhb:dateshb.obj
 0001:00059890       _HB_FUN_MINUTE             0045a890 f   xhb:dateshb.obj
 0001:00059900       _HB_FUN_SECS               0045a900 f   xhb:dateshb.obj
 0001:00059960       _HB_FUN_CTOT               0045a960 f   xhb:dateshb.obj
 0001:00059af0       _HB_FUN_STOT               0045aaf0 f   xhb:dateshb.obj
 0001:00059bd0       _HB_FUN_HMS2D              0045abd0 f   xhb:dateshb.obj
 0001:00059c40       _HB_FUN_HB_TSTOSTR         0045ac40 f   xhb:dateshb.obj
 0001:00059d50       _HB_FUN_FOPEN              0045ad50 f   xhb:philes.obj
 0001:00059e00       _HB_FUN_FCREATE            0045ae00 f   xhb:philes.obj
 0001:00059ea0       _HB_FUN_HB_FCREATE         0045aea0 f   xhb:philes.obj
 0001:00059f70       _HB_FUN_FREAD              0045af70 f   xhb:philes.obj
 0001:0005a080       _HB_FUN_FWRITE             0045b080 f   xhb:philes.obj
 0001:0005a170       _HB_FUN_FERROR             0045b170 f   xhb:philes.obj
 0001:0005a1a0       _HB_FUN_FCLOSE             0045b1a0 f   xhb:philes.obj
 0001:0005a220       _HB_FUN_FERASE             0045b220 f   xhb:philes.obj
 0001:0005a290       _HB_FUN_FRENAME            0045b290 f   xhb:philes.obj
 0001:0005a310       _HB_FUN_FSEEK              0045b310 f   xhb:philes.obj
 0001:0005a3f0       _HB_FUN_FREADSTR           0045b3f0 f   xhb:philes.obj
 0001:0005a4e0       _HB_FUN_CURDIR             0045b4e0 f   xhb:philes.obj
 0001:0005a560       _HB_FUN_HB_F_EOF           0045b560 f   xhb:philes.obj
 0001:0005a5e0       _HB_FUN_CURDIRX            0045b5e0 f   xhb:philes.obj
 0001:0005a6d0       _HB_FUN_HB_FCOMMIT         0045b6d0 f   xhb:philes.obj
 0001:0005a720       _HB_FUN_HB_FLOCK           0045b720 f   xhb:philes.obj
 0001:0005a810       _HB_FUN_HB_FUNLOCK         0045b810 f   xhb:philes.obj
 0001:0005a8d0       _HB_FUN_HB_OSERROR         0045b8d0 f   xhb:philes.obj
 0001:0005a900       _HB_FUN_HB_OSPATHSEPARATOR 0045b900 f   xhb:philes.obj
 0001:0005a920       _HB_FUN_HB_OSPATHLISTSEPARATOR 0045b920 f   xhb:philes.obj
 0001:0005a940       _HB_FUN_HB_OSPATHDELIMITERS 0045b940 f   xhb:philes.obj
 0001:0005a960       _HB_FUN_HB_OSDRIVESEPARATOR 0045b960 f   xhb:philes.obj
 0001:0005a980       _HB_FUN_HB_OSFILEMASK      0045b980 f   xhb:philes.obj
 0001:0005a9a0       _HB_FUN_HB_OPENPROCESS     0045b9a0 f   xhb:philes.obj
 0001:0005acf0       _HB_FUN_HB_CLOSEPROCESS    0045bcf0 f   xhb:philes.obj
 0001:0005add0       _HB_FUN_HB_PROCESSVALUE    0045bdd0 f   xhb:philes.obj
 0001:0005aeb0       _Base64Encode              0045beb0 f   xhb:base64.obj
 0001:0005b020       _Base64Decode              0045c020 f   xhb:base64.obj
 0001:0005b2f0       _HB_FUN_HB_BASE64ENCODE    0045c2f0 f   xhb:base64.obj
 0001:0005b350       _HB_FUN_HB_BASE64DECODE    0045c350 f   xhb:base64.obj
 0001:0005b420       _HB_FUN_HB_BASE64ENCODEFILE 0045c420 f   xhb:base64.obj
 0001:0005b4e0       _HB_FUN_HB_BASE64DECODEFILE 0045c4e0 f   xhb:base64.obj
 0001:0005b590       _HB_FUN_LEN                0045c590 f   xhb:len.obj
 0001:0005b650       _hb_stack_init             0045c650 f   xhb:estack.obj
 0001:0005b710       _hb_stackInit              0045c710 f   xhb:estack.obj
 0001:0005b750       _hb_stackFree              0045c750 f   xhb:estack.obj
 0001:0005b820       _hb_stackId                0045c820 f   xhb:estack.obj
 0001:0005b830       _hb_s_hb_exc               0045c830 f   xhb:estack.obj
 0001:0005b840       _hb_stackSetStruct         0045c840 f   xhb:estack.obj
 0001:0005b850       _hb_stackPop               0045c850 f   xhb:estack.obj
 0001:0005b8b0       _hb_stackPopReturn         0045c8b0 f   xhb:estack.obj
 0001:0005b920       _hb_stackDec               0045c920 f   xhb:estack.obj
 0001:0005b950       _hb_stackDecrease          0045c950 f   xhb:estack.obj
 0001:0005b990       _hb_stackPush              0045c990 f   xhb:estack.obj
 0001:0005b9c0       _hb_stackAllocItem         0045c9c0 f   xhb:estack.obj
 0001:0005b9f0       _hb_stackPushReturn        0045c9f0 f   xhb:estack.obj
 0001:0005ba40       _hb_stackIncrease          0045ca40 f   xhb:estack.obj
 0001:0005bb10       _hb_stackRemove            0045cb10 f   xhb:estack.obj
 0001:0005bb40       _hb_stackNewFrame          0045cb40 f   xhb:estack.obj
 0001:0005bbb0       _hb_stackOldFrame          0045cbb0 f   xhb:estack.obj
 0001:0005bcc0       _hb_stackClearPrivateBases 0045ccc0 f   xhb:estack.obj
 0001:0005bcf0       _hb_stackTopOffset         0045ccf0 f   xhb:estack.obj
 0001:0005bd10       _hb_stackBaseOffset        0045cd10 f   xhb:estack.obj
 0001:0005bd30       _hb_stackBaseProcOffset    0045cd30 f   xhb:estack.obj
 0001:0005bd90       _hb_stackTotalItems        0045cd90 f   xhb:estack.obj
 0001:0005bda0       _hb_stackIOErrors          0045cda0 f   xhb:estack.obj
 0001:0005bdb0       _hb_stackRDD               0045cdb0 f   xhb:estack.obj
 0001:0005bdc0       _hb_stackRDDTLS            0045cdc0 f   xhb:estack.obj
 0001:0005bdd0       _hb_stackGetStaticsBase    0045cdd0 f   xhb:estack.obj
 0001:0005bde0       _hb_stackSetStaticsBase    0045cde0 f   xhb:estack.obj
 0001:0005bdf0       _hb_stackItemBasePtr       0045cdf0 f   xhb:estack.obj
 0001:0005be00       _hb_stackItem              0045ce00 f   xhb:estack.obj
 0001:0005be30       _hb_stackItemFromTop       0045ce30 f   xhb:estack.obj
 0001:0005be60       _hb_stackItemFromBase      0045ce60 f   xhb:estack.obj
 0001:0005be90       _hb_stackLocalVariable     0045ce90 f   xhb:estack.obj
 0001:0005bec0       _hb_stackTopItem           0045cec0 f   xhb:estack.obj
 0001:0005bed0       _hb_stackBaseItem          0045ced0 f   xhb:estack.obj
 0001:0005bee0       _hb_stackSelfItem          0045cee0 f   xhb:estack.obj
 0001:0005bef0       _hb_stackReturnItem        0045cef0 f   xhb:estack.obj
 0001:0005bf00       _hb_stackDateBuffer        0045cf00 f   xhb:estack.obj
 0001:0005bf10       _hb_stackGetBase           0045cf10 f   xhb:estack.obj
 0001:0005bf90       _hb_stackGetActionRequest  0045cf90 f   xhb:estack.obj
 0001:0005bfa0       _hb_stackSetActionRequest  0045cfa0 f   xhb:estack.obj
 0001:0005bfc0       _hb_stackDispLocal         0045cfc0 f   xhb:estack.obj
 0001:0005c2d0       _hb_stackDispCall          0045d2d0 f   xhb:estack.obj
 0001:0005c3e0       _hb_param                  0045d3e0 f   xhb:extend.obj
 0001:0005c480       _hb_paramError             0045d480 f   xhb:extend.obj
 0001:0005c4b0       _hb_extIsArray             0045d4b0 f   xhb:extend.obj
 0001:0005c510       _hb_extIsObject            0045d510 f   xhb:extend.obj
 0001:0005c5a0       _hb_parc                   0045d5a0 f   xhb:extend.obj
 0001:0005c640       _hb_parcx                  0045d640 f   xhb:extend.obj
 0001:0005c6e0       _hb_parclen                0045d6e0 f   xhb:extend.obj
 0001:0005c780       _hb_parcsiz                0045d780 f   xhb:extend.obj
 0001:0005c820       _hb_pards                  0045d820 f   xhb:extend.obj
 0001:0005c8e0       _hb_pardts                 0045d8e0 f   xhb:extend.obj
 0001:0005c9a0       _hb_pardsbuff              0045d9a0 f   xhb:extend.obj
 0001:0005ca50       _hb_pardl                  0045da50 f   xhb:extend.obj
 0001:0005caf0       _hb_pardtsbuff             0045daf0 f   xhb:extend.obj
 0001:0005cbb0       _hb_part                   0045dbb0 f   xhb:extend.obj
 0001:0005cc50       _hb_pardtsec               0045dc50 f   xhb:extend.obj
 0001:0005cd00       _hb_pardtd                 0045dd00 f   xhb:extend.obj
 0001:0005cdb0       _hb_parl                   0045ddb0 f   xhb:extend.obj
 0001:0005cf00       _hb_parnd                  0045df00 f   xhb:extend.obj
 0001:0005d010       _hb_parni                  0045e010 f   xhb:extend.obj
 0001:0005d110       _hb_parnl                  0045e110 f   xhb:extend.obj
 0001:0005d230       _hb_parnint                0045e230 f   xhb:extend.obj
 0001:0005d350       _hb_parptr                 0045e350 f   xhb:extend.obj
 0001:0005d3e0       _hb_parptrGC               0045e3e0 f   xhb:extend.obj
 0001:0005d4b0       _hb_parinfa                0045e4b0 f   xhb:extend.obj
 0001:0005d4f0       _hb_parinfo                0045e4f0 f   xhb:extend.obj
 0001:0005d5a0       _hb_pcount                 0045e5a0 f   xhb:extend.obj
 0001:0005d5c0       _hb_ret                    0045e5c0 f   xhb:extend.obj
 0001:0005d5f0       _hb_reta                   0045e5f0 f   xhb:extend.obj
 0001:0005d610       _hb_retc                   0045e610 f   xhb:extend.obj
 0001:0005d630       _hb_retc_null              0045e630 f   xhb:extend.obj
 0001:0005d650       _hb_retclen                0045e650 f   xhb:extend.obj
 0001:0005d670       _hb_retds                  0045e670 f   xhb:extend.obj
 0001:0005d690       _hb_retdts                 0045e690 f   xhb:extend.obj
 0001:0005d6b0       _hb_retd                   0045e6b0 f   xhb:extend.obj
 0001:0005d6d0       _hb_retdt                  0045e6d0 f   xhb:extend.obj
 0001:0005d710       _hb_retdl                  0045e710 f   xhb:extend.obj
 0001:0005d730       _hb_retdtd                 0045e730 f   xhb:extend.obj
 0001:0005d750       _hb_retdtl                 0045e750 f   xhb:extend.obj
 0001:0005d770       _hb_retl                   0045e770 f   xhb:extend.obj
 0001:0005d790       _hb_retnd                  0045e790 f   xhb:extend.obj
 0001:0005d7b0       _hb_retni                  0045e7b0 f   xhb:extend.obj
 0001:0005d7d0       _hb_retnl                  0045e7d0 f   xhb:extend.obj
 0001:0005d7f0       _hb_retnlen                0045e7f0 f   xhb:extend.obj
 0001:0005d820       _hb_retndlen               0045e820 f   xhb:extend.obj
 0001:0005d850       _hb_retnilen               0045e850 f   xhb:extend.obj
 0001:0005d870       _hb_retnllen               0045e870 f   xhb:extend.obj
 0001:0005d890       _hb_retptr                 0045e890 f   xhb:extend.obj
 0001:0005d8b0       _hb_retptrGC               0045e8b0 f   xhb:extend.obj
 0001:0005d8d0       _hb_retnint                0045e8d0 f   xhb:extend.obj
 0001:0005d8f0       _hb_retnintlen             0045e8f0 f   xhb:extend.obj
 0001:0005d910       _hb_stor                   0045e910 f   xhb:extend.obj
 0001:0005d980       _hb_storc                  0045e980 f   xhb:extend.obj
 0001:0005da40       _hb_storclen               0045ea40 f   xhb:extend.obj
 0001:0005db10       _hb_storclenAdopt          0045eb10 f   xhb:extend.obj
 0001:0005dbf0       _hb_stords                 0045ebf0 f   xhb:extend.obj
 0001:0005dcb0       _hb_stordts                0045ecb0 f   xhb:extend.obj
 0001:0005dd70       _hb_stordl                 0045ed70 f   xhb:extend.obj
 0001:0005de30       _hb_stordtd                0045ee30 f   xhb:extend.obj
 0001:0005df00       _hb_stordtl                0045ef00 f   xhb:extend.obj
 0001:0005dfd0       _hb_stord                  0045efd0 f   xhb:extend.obj
 0001:0005e0a0       _hb_stordt                 0045f0a0 f   xhb:extend.obj
 0001:0005e1a0       _hb_storl                  0045f1a0 f   xhb:extend.obj
 0001:0005e270       _hb_storni                 0045f270 f   xhb:extend.obj
 0001:0005e330       _hb_stornl                 0045f330 f   xhb:extend.obj
 0001:0005e3f0       _hb_stornint               0045f3f0 f   xhb:extend.obj
 0001:0005e4c0       _hb_stornd                 0045f4c0 f   xhb:extend.obj
 0001:0005e590       _hb_storptr                0045f590 f   xhb:extend.obj
 0001:0005e650       _hb_stornll                0045f650 f   xhb:extend.obj
 0001:0005e720       _hb_parnll                 0045f720 f   xhb:extend.obj
 0001:0005e820       _hb_retnll                 0045f820 f   xhb:extend.obj
 0001:0005e840       _hb_retnlllen              0045f840 f   xhb:extend.obj
 0001:0005e860       _hb_retns                  0045f860 f   xhb:extend.obj
 0001:0005e880       _hb_parns                  0045f880 f   xhb:extend.obj
 0001:0005e970       _hb_storns                 0045f970 f   xhb:extend.obj
 0001:0005ea30       _hb_partdt                 0045fa30 f   xhb:extend.obj
 0001:0005eaa0       _hb_itemapiCheck           0045faa0 f   xhb:itemapi.obj
 0001:0005ead0       _hb_itemNew                0045fad0 f   xhb:itemapi.obj
 0001:0005eaf0       _hb_itemParam              0045faf0 f   xhb:itemapi.obj
 0001:0005eb10       _hb_itemParamPtr           0045fb10 f   xhb:itemapi.obj
 0001:0005eb30       _hb_itemPCount             0045fb30 f   xhb:itemapi.obj
 0001:0005eb50       _hb_itemRelease            0045fb50 f   xhb:itemapi.obj
 0001:0005eb70       _hb_itemArrayNew           0045fb70 f   xhb:itemapi.obj
 0001:0005eb90       _hb_itemArrayGet           0045fb90 f   xhb:itemapi.obj
 0001:0005ebc0       _hb_itemArrayPut           0045fbc0 f   xhb:itemapi.obj
 0001:0005ebf0       _hb_itemSetCMemo           0045fbf0 f   xhb:itemapi.obj
 0001:0005ec10       _hb_itemGetC               0045fc10 f   xhb:itemapi.obj
 0001:0005ec60       _hb_itemGetCPtr            0045fc60 f   xhb:itemapi.obj
 0001:0005ec80       _hb_itemGetCLen            0045fc80 f   xhb:itemapi.obj
 0001:0005eca0       _hb_itemCopyC              0045fca0 f   xhb:itemapi.obj
 0001:0005ecf0       _hb_itemFreeC              0045fcf0 f   xhb:itemapi.obj
 0001:0005ed10       _hb_itemGetDS              0045fd10 f   xhb:itemapi.obj
 0001:0005ed50       _hb_itemGetDTS             0045fd50 f   xhb:itemapi.obj
 0001:0005ed90       _hb_itemGetDL              0045fd90 f   xhb:itemapi.obj
 0001:0005edb0       _hb_itemGetT               0045fdb0 f   xhb:itemapi.obj
 0001:0005edd0       _hb_itemGetTsec            0045fdd0 f   xhb:itemapi.obj
 0001:0005ee00       _hb_itemGetDTsec           0045fe00 f   xhb:itemapi.obj
 0001:0005ee40       _hb_itemGetDTD             0045fe40 f   xhb:itemapi.obj
 0001:0005ee80       _hb_itemGetDTL             0045fe80 f   xhb:itemapi.obj
 0001:0005eec0       _hb_itemGetD               0045fec0 f   xhb:itemapi.obj
 0001:0005ef20       _hb_itemGetDT              0045ff20 f   xhb:itemapi.obj
 0001:0005efd0       _hb_itemGetL               0045ffd0 f   xhb:itemapi.obj
 0001:0005f0c0       _hb_itemGetND              004600c0 f   xhb:itemapi.obj
 0001:0005f1a0       _hb_itemGetNDDec           004601a0 f   xhb:itemapi.obj
 0001:0005f2a0       _hb_itemGetNI              004602a0 f   xhb:itemapi.obj
 0001:0005f360       _hb_itemGetNL              00460360 f   xhb:itemapi.obj
 0001:0005f420       _hb_itemGetPtr             00460420 f   xhb:itemapi.obj
 0001:0005f440       _hb_itemGetPtrGC           00460440 f   xhb:itemapi.obj
 0001:0005f480       _hb_itemGetSymbol          00460480 f   xhb:itemapi.obj
 0001:0005f4a0       _hb_itemPutDate            004604a0 f   xhb:itemapi.obj
 0001:0005f4e0       _hb_itemPutDS              004604e0 f   xhb:itemapi.obj
 0001:0005f500       _hb_itemPutDTS             00460500 f   xhb:itemapi.obj
 0001:0005f540       _hb_itemPutD               00460540 f   xhb:itemapi.obj
 0001:0005f570       _hb_itemPutDT              00460570 f   xhb:itemapi.obj
 0001:0005f5d0       _hb_itemPutTDT             004605d0 f   xhb:itemapi.obj
 0001:0005f600       _hb_itemPutDL              00460600 f   xhb:itemapi.obj
 0001:0005f620       _hb_itemPutDTL             00460620 f   xhb:itemapi.obj
 0001:0005f670       _hb_itemPutDTsec           00460670 f   xhb:itemapi.obj
 0001:0005f6c0       _hb_itemPutDTD             004606c0 f   xhb:itemapi.obj
 0001:0005f700       _hb_itemPutL               00460700 f   xhb:itemapi.obj
 0001:0005f730       _hb_itemPutND              00460730 f   xhb:itemapi.obj
 0001:0005f750       _hb_itemPutNDDec           00460750 f   xhb:itemapi.obj
 0001:0005f7d0       _hb_itemPutNI              004607d0 f   xhb:itemapi.obj
 0001:0005f820       _hb_itemPutNL              00460820 f   xhb:itemapi.obj
 0001:0005f870       _hb_itemPutNLen            00460870 f   xhb:itemapi.obj
 0001:0005f960       _hb_itemPutNDLen           00460960 f   xhb:itemapi.obj
 0001:0005f9f0       _hb_itemPutNILen           004609f0 f   xhb:itemapi.obj
 0001:0005fa50       _hb_itemPutNLLen           00460a50 f   xhb:itemapi.obj
 0001:0005fab0       _hb_itemPutSymbol          00460ab0 f   xhb:itemapi.obj
 0001:0005fb20       _hb_itemGetNLen            00460b20 f   xhb:itemapi.obj
 0001:0005fbd0       _hb_itemSize               00460bd0 f   xhb:itemapi.obj
 0001:0005fc20       _hb_itemType               00460c20 f   xhb:itemapi.obj
 0001:0005fc40       _hb_itemTypeStr            00460c40 f   xhb:itemapi.obj
 0001:0005fde0       _hb_itemUnRef              00460de0 f   xhb:itemapi.obj
 0001:0005fe10       _hb_itemUnRefOnce          00460e10 f   xhb:itemapi.obj
 0001:0005ff40       _hb_itemUnShareString      00460f40 f   xhb:itemapi.obj
 0001:00060000       _hb_itemUnShare            00461000 f   xhb:itemapi.obj
 0001:00060040       _hb_itemGetWriteCL         00461040 f   xhb:itemapi.obj
 0001:000600a0       _hb_itemClone              004610a0 f   xhb:itemapi.obj
 0001:000600f0       _hb_itemStrCmp             004610f0 f   xhb:itemapi.obj
 0001:00060230       _hb_itemStrBuf             00461230 f   xhb:itemapi.obj
 0001:00060810       _hb_itemStr                00461810 f   xhb:itemapi.obj
 0001:00060900       _hb_itemString             00461900 f   xhb:itemapi.obj
 0001:00060bb0       _hb_itemPadConv            00461bb0 f   xhb:itemapi.obj
 0001:00060c80       _hb_itemValToStr           00461c80 f   xhb:itemapi.obj
 0001:00060cd0       _hb_itemGetNLL             00461cd0 f   xhb:itemapi.obj
 0001:00060d90       _hb_itemPutNLL             00461d90 f   xhb:itemapi.obj
 0001:00060e00       _hb_itemPutNLLLen          00461e00 f   xhb:itemapi.obj
 0001:00060e90       _hb_itemPutNInt            00461e90 f   xhb:itemapi.obj
 0001:00060ee0       _hb_itemPutNIntLen         00461ee0 f   xhb:itemapi.obj
 0001:00060f40       _hb_itemGetNInt            00461f40 f   xhb:itemapi.obj
 0001:00061000       _hb_itemPutHBLong          00462000 f   xhb:itemapi.obj
 0001:00061070       _hb_itemPutNumType         00462070 f   xhb:itemapi.obj
 0001:00061130       _hb_itemPutNull            00462130 f   xhb:itemapi.obj
 0001:00061150       _hb_itemPutNS              00462150 f   xhb:itemapi.obj
 0001:000611a0       _hb_itemGetNS              004621a0 f   xhb:itemapi.obj
 0001:00061210       _hb_itemEqual              00462210 f   xhb:itemapi.obj
 0001:000615c0       _HB_FUN___INIT_LONGLONGS   004625c0 f   xhb:cstruct.obj
 0001:000615e0       _HB_FUN___ACTIVESTRUCTURE  004625e0 f   xhb:cstruct.obj
 0001:00061600       _HB_FUN_HB_MEMBER          00462600 f   xhb:cstruct.obj
 0001:00061620       _HB_FUN_HB_CSTRUCTUREID    00462620 f   xhb:cstruct.obj
 0001:00061640       _HB_FUN_HB_CSTRUCTURECSYNTAX 00462640 f   xhb:cstruct.obj
 0001:00061660       _HB_FUN_HB_CSTRUCTURE      00462660 f   xhb:cstruct.obj
 0001:000616a0       _HB_FUN_HB_CSTRUCTUREFROMID 004626a0 f   xhb:cstruct.obj
 0001:000616c0       _HB_FUN_HB_CTYPEARRAYID    004626c0 f   xhb:cstruct.obj
 0001:000616e0       _HB_FUN_HB_IS_CSTRUCTURE   004626e0 f   xhb:cstruct.obj
 0001:00061aa0       _PRGUnhandledExceptionFilter@4 00462aa0 f   xhb:errorsys.obj
 0001:00061bb0       _HB_FUN_SETERRORMODE       00462bb0 f   xhb:errorsys.obj
 0001:00061be0       _HB_FUN_SETUNHANDLEDEXCEPTIONFILTER 00462be0 f   xhb:errorsys.obj
 0001:00062a60       _HB_FUN_ERRORNEW           00463a60 f   xhb:errorapi.obj
 0001:00062c70       _HB_FUN___ERRINHANDLER     00463c70 f   xhb:errorapi.obj
 0001:00062c90       _HB_FUN_ERRORBLOCK         00463c90 f   xhb:errorapi.obj
 0001:00062cd0       _hb_errorBlock             00463cd0 f   xhb:errorapi.obj
 0001:00062d00       _hb_errorHandler           00463d00 f   xhb:errorapi.obj
 0001:00062d30       _HB_FUN_DOSERROR           00463d30 f   xhb:errorapi.obj
 0001:00062d70       _hb_errInit                00463d70 f   xhb:errorapi.obj
 0001:00062de0       _hb_errExit                00463de0 f   xhb:errorapi.obj
 0001:00062e10       _hb_errNew                 00463e10 f   xhb:errorapi.obj
 0001:00062f60       _hb_errLaunch              00463f60 f   xhb:errorapi.obj
 0001:000631f0       _hb_errLaunchSubst         004641f0 f   xhb:errorapi.obj
 0001:000633c0       _hb_errRelease             004643c0 f   xhb:errorapi.obj
 0001:000633d0       _hb_errGetCargo            004643d0 f   xhb:errorapi.obj
 0001:000633f0       _hb_errPutCargo            004643f0 f   xhb:errorapi.obj
 0001:00063410       _hb_errGetArgs             00464410 f   xhb:errorapi.obj
 0001:00063430       _hb_errPutArgsArray        00464430 f   xhb:errorapi.obj
 0001:00063450       _hb_errGetDescription      00464450 f   xhb:errorapi.obj
 0001:00063470       _hb_errPutDescription      00464470 f   xhb:errorapi.obj
 0001:00063490       _hb_errGetFileName         00464490 f   xhb:errorapi.obj
 0001:000634b0       _hb_errPutFileName         004644b0 f   xhb:errorapi.obj
 0001:000634d0       _hb_errGetGenCode          004644d0 f   xhb:errorapi.obj
 0001:000634f0       _hb_errPutGenCode          004644f0 f   xhb:errorapi.obj
 0001:00063510       _hb_errGetOperation        00464510 f   xhb:errorapi.obj
 0001:00063530       _hb_errPutOperation        00464530 f   xhb:errorapi.obj
 0001:00063580       _hb_errGetOsCode           00464580 f   xhb:errorapi.obj
 0001:000635a0       _hb_errPutOsCode           004645a0 f   xhb:errorapi.obj
 0001:000635c0       _hb_errGetSeverity         004645c0 f   xhb:errorapi.obj
 0001:000635e0       _hb_errPutSeverity         004645e0 f   xhb:errorapi.obj
 0001:00063600       _hb_errGetSubCode          00464600 f   xhb:errorapi.obj
 0001:00063620       _hb_errPutSubCode          00464620 f   xhb:errorapi.obj
 0001:00063640       _hb_errGetSubSystem        00464640 f   xhb:errorapi.obj
 0001:00063660       _hb_errPutSubSystem        00464660 f   xhb:errorapi.obj
 0001:00063680       _hb_errGetProcName         00464680 f   xhb:errorapi.obj
 0001:000636a0       _hb_errPutProcName         004646a0 f   xhb:errorapi.obj
 0001:000636c0       _hb_errGetProcLine         004646c0 f   xhb:errorapi.obj
 0001:000636e0       _hb_errPutProcLine         004646e0 f   xhb:errorapi.obj
 0001:00063700       _hb_errGetThreadId         00464700 f   xhb:errorapi.obj
 0001:00063720       _hb_errPutThreadId         00464720 f   xhb:errorapi.obj
 0001:00063740       _hb_errGetRunningThreads   00464740 f   xhb:errorapi.obj
 0001:00063760       _hb_errPutRunningThreads   00464760 f   xhb:errorapi.obj
 0001:00063780       _hb_errGetVmThreadId       00464780 f   xhb:errorapi.obj
 0001:000637a0       _hb_errPutVmThreadId       004647a0 f   xhb:errorapi.obj
 0001:000637c0       _hb_errGetModuleName       004647c0 f   xhb:errorapi.obj
 0001:000637e0       _hb_errPutModuleName       004647e0 f   xhb:errorapi.obj
 0001:00063800       _hb_errGetCallStack        00464800 f   xhb:errorapi.obj
 0001:00063820       _hb_errPutCallStack        00464820 f   xhb:errorapi.obj
 0001:00063840       _hb_errGetTries            00464840 f   xhb:errorapi.obj
 0001:00063860       _hb_errPutTries            00464860 f   xhb:errorapi.obj
 0001:00063880       _hb_errGetFlags            00464880 f   xhb:errorapi.obj
 0001:000638a0       _hb_errPutFlags            004648a0 f   xhb:errorapi.obj
 0001:00063920       _hb_errPutArgs             00464920 f   xhb:errorapi.obj
 0001:00063970       _hb_errRT_New              00464970 f   xhb:errorapi.obj
 0001:00063a40       _hb_errRT_New_Subst        00464a40 f   xhb:errorapi.obj
 0001:00063b20       _hb_errRT_SubstParams      00464b20 f   xhb:errorapi.obj
 0001:00063ba0       _hb_errRT_FileError        00464ba0 f   xhb:errorapi.obj
 0001:00063c60       _HB_FUN___ERRRT_BASE       00464c60 f   xhb:errorapi.obj
 0001:00063cd0       _HB_FUN___ERRRT_SBASE      00464cd0 f   xhb:errorapi.obj
 0001:00063d40       _hb_errRT_BASE             00464d40 f   xhb:errorapi.obj
 0001:00063e30       _hb_errRT_BASE_Ext1        00464e30 f   xhb:errorapi.obj
 0001:00063f30       _hb_errRT_BASE_Subst       00464f30 f   xhb:errorapi.obj
 0001:00064020       _hb_errRT_BASE_SubstR      00465020 f   xhb:errorapi.obj
 0001:00064110       _hb_errRT_TERM             00465110 f   xhb:errorapi.obj
 0001:00064160       _hb_errRT_DBCMD            00465160 f   xhb:errorapi.obj
 0001:000641c0       _hb_errRT_DBCMD_Ext        004651c0 f   xhb:errorapi.obj
 0001:00064210       _hb_errRT_TOOLS            00465210 f   xhb:errorapi.obj
 0001:00064260       _hb_errInternal            00465260 f   xhb:errorapi.obj
 0001:000643e0       _HB_FUN_SUBSTR             004653e0 f   xhb:substr.obj
 0001:00064580       _HB_FUN_RAT                00465580 f   xhb:rat.obj
 0001:00064700       _HB_FUN_HBOBJECT           00465700 f   xhb:tobject.obj
 0001:000647c0       _HB_FUN_TASSOCIATIVEARRAY  004657c0 f   xhb:tobject.obj
 0001:000647e0       _HB_FUN_HASHENTRY          004657e0 f   xhb:tobject.obj
 0001:00064840       _HB_FUN_HASHADDMEMBER      00465840 f   xhb:tobject.obj
 0001:00064930       _HB_FUN_TYPE               00465930 f   xhb:type.obj
 0001:00065140       _hb_set_SetPrinterStart    00466140 f   xhb:set.obj
 0001:000651a0       _hb_set_SetPrinterStop     004661a0 f   xhb:set.obj
 0001:000651f0       _hb_setSetCentury          004661f0 f   xhb:set.obj
 0001:00065390       _HB_FUN___SETCENTURY       00466390 f   xhb:set.obj
 0001:000653e0       _HB_FUN_SETCANCEL          004663e0 f   xhb:set.obj
 0001:00065420       _HB_FUN_SET                00466420 f   xhb:set.obj
 0001:000671d0       _hb_setInitialize          004681d0 f   xhb:set.obj
 0001:00067660       _hb_setRelease             00468660 f   xhb:set.obj
 0001:00067940       _hb_setClone               00468940 f   xhb:set.obj
 0001:00067b00       _hb_setListenerAdd         00468b00 f   xhb:set.obj
 0001:00067b80       _hb_setListenerNotify      00468b80 f   xhb:set.obj
 0001:00067bb0       _hb_setListenerRemove      00468bb0 f   xhb:set.obj
 0001:00067e50       _hb_setSetItem             00468e50 f   xhb:set.obj
 0001:00068dc0       _hb_setSetItem2            00469dc0 f   xhb:set.obj
 0001:00068ea0       _hb_setGetL                00469ea0 f   xhb:set.obj
 0001:00069080       _hb_setGetCPtr             0046a080 f   xhb:set.obj
 0001:00069190       _hb_setGetNI               0046a190 f   xhb:set.obj
 0001:00069290       _hb_setGetNL               0046a290 f   xhb:set.obj
 0001:000692a0       _hb_setGetFirstSetPath     0046a2a0 f   xhb:set.obj
 0001:000692b0       _hb_setGetAltHan           0046a2b0 f   xhb:set.obj
 0001:000692c0       _hb_setGetCentury          0046a2c0 f   xhb:set.obj
 0001:000692d0       _hb_setGetExtraHan         0046a2d0 f   xhb:set.obj
 0001:000692e0       _hb_setGetPrintHan         0046a2e0 f   xhb:set.obj
 0001:000692f0       _hb_setGetAlternate        0046a2f0 f   xhb:set.obj
 0001:00069300       _hb_setGetAltFile          0046a300 f   xhb:set.obj
 0001:00069310       _hb_setGetAutOpen          0046a310 f   xhb:set.obj
 0001:00069320       _hb_setGetAutOrder         0046a320 f   xhb:set.obj
 0001:00069330       _hb_setGetAutoShare        0046a330 f   xhb:set.obj
 0001:00069340       _hb_setGetBell             0046a340 f   xhb:set.obj
 0001:00069350       _hb_setGetCancel           0046a350 f   xhb:set.obj
 0001:00069360       _hb_setGetColor            0046a360 f   xhb:set.obj
 0001:00069370       _hb_setGetConfirm          0046a370 f   xhb:set.obj
 0001:00069380       _hb_setGetConsole          0046a380 f   xhb:set.obj
 0001:00069390       _hb_setGetDateFormat       0046a390 f   xhb:set.obj
 0001:000693a0       _hb_setGetTimeFormat       0046a3a0 f   xhb:set.obj
 0001:000693b0       _hb_setGetDebug            0046a3b0 f   xhb:set.obj
 0001:000693c0       _hb_setGetDecimals         0046a3c0 f   xhb:set.obj
 0001:000693d0       _hb_setGetDefault          0046a3d0 f   xhb:set.obj
 0001:000693e0       _hb_setGetDeleted          0046a3e0 f   xhb:set.obj
 0001:000693f0       _hb_setGetDelimChars       0046a3f0 f   xhb:set.obj
 0001:00069400       _hb_setGetDelimiters       0046a400 f   xhb:set.obj
 0001:00069410       _hb_setGetDevice           0046a410 f   xhb:set.obj
 0001:00069420       _hb_setGetEOF              0046a420 f   xhb:set.obj
 0001:00069430       _hb_setGetEpoch            0046a430 f   xhb:set.obj
 0001:00069440       _hb_setGetEscape           0046a440 f   xhb:set.obj
 0001:00069450       _hb_setGetEventMask        0046a450 f   xhb:set.obj
 0001:00069460       _hb_setGetExact            0046a460 f   xhb:set.obj
 0001:00069470       _hb_setGetExclusive        0046a470 f   xhb:set.obj
 0001:00069480       _hb_setGetExit             0046a480 f   xhb:set.obj
 0001:00069490       _hb_setGetExtra            0046a490 f   xhb:set.obj
 0001:000694a0       _hb_setGetExtraFile        0046a4a0 f   xhb:set.obj
 0001:000694b0       _hb_setGetFixed            0046a4b0 f   xhb:set.obj
 0001:000694c0       _hb_setGetIdleRepeat       0046a4c0 f   xhb:set.obj
 0001:000694d0       _hb_setGetInsert           0046a4d0 f   xhb:set.obj
 0001:000694e0       _hb_setGetIntensity        0046a4e0 f   xhb:set.obj
 0001:000694f0       _hb_setGetPath             0046a4f0 f   xhb:set.obj
 0001:00069500       _hb_setGetMargin           0046a500 f   xhb:set.obj
 0001:00069510       _hb_setGetMBlockSize       0046a510 f   xhb:set.obj
 0001:00069520       _hb_setGetMCenter          0046a520 f   xhb:set.obj
 0001:00069530       _hb_setGetMessage          0046a530 f   xhb:set.obj
 0001:00069540       _hb_setGetMFileExt         0046a540 f   xhb:set.obj
 0001:00069550       _hb_setGetOptimize         0046a550 f   xhb:set.obj
 0001:00069560       _hb_setGetPrinter          0046a560 f   xhb:set.obj
 0001:00069570       _hb_setGetPrintFile        0046a570 f   xhb:set.obj
 0001:00069580       _hb_setGetScoreBoard       0046a580 f   xhb:set.obj
 0001:00069590       _hb_setGetScrollBreak      0046a590 f   xhb:set.obj
 0001:000695a0       _hb_setGetSoftSeek         0046a5a0 f   xhb:set.obj
 0001:000695b0       _hb_setGetStrictRead       0046a5b0 f   xhb:set.obj
 0001:000695c0       _hb_setGetTypeAhead        0046a5c0 f   xhb:set.obj
 0001:000695d0       _hb_setGetUnique           0046a5d0 f   xhb:set.obj
 0001:000695e0       _hb_setGetFileCase         0046a5e0 f   xhb:set.obj
 0001:000695f0       _hb_setGetDirCase          0046a5f0 f   xhb:set.obj
 0001:00069600       _hb_setGetDirSeparator     0046a600 f   xhb:set.obj
 0001:00069610       _hb_setGetVideoMode        0046a610 f   xhb:set.obj
 0001:00069620       _hb_setGetWrap             0046a620 f   xhb:set.obj
 0001:00069630       _hb_setGetDBFLockScheme    0046a630 f   xhb:set.obj
 0001:00069640       _hb_setGetHardCommit       0046a640 f   xhb:set.obj
 0001:00069650       _hb_setGetForceOpt         0046a650 f   xhb:set.obj
 0001:00069660       _hb_setGetDefExtension     0046a660 f   xhb:set.obj
 0001:00069670       _hb_setGetEOL              0046a670 f   xhb:set.obj
 0001:00069680       _hb_setGetTrimFileName     0046a680 f   xhb:set.obj
 0001:00069690       _hb_setGetOSCODEPAGE       0046a690 f   xhb:set.obj
 0001:000696a0       _hb_osEncodeCP             0046a6a0 f   xhb:set.obj
 0001:00069760       _hb_osDecodeCP             0046a760 f   xhb:set.obj
 0001:00069820       _hb_setGetAppendError      0046a820 f   xhb:set.obj
 0001:00069830       _hb_setGetErrorLog         0046a830 f   xhb:set.obj
 0001:00069840       _hb_setGetTrace            0046a840 f   xhb:set.obj
 0001:00069850       _hb_setGetTraceFile        0046a850 f   xhb:set.obj
 0001:00069860       _hb_setGetTraceStack       0046a860 f   xhb:set.obj
 0001:00069870       _hb_setGetErrorLoop        0046a870 f   xhb:set.obj
 0001:00069880       _hb_setGetOutputSafety     0046a880 f   xhb:set.obj
 0001:00069890       _hb_setGetBackgroundTasks  0046a890 f   xhb:set.obj
 0001:000698a0       _hb_setGetWinPrinter       0046a8a0 f   xhb:set.obj
 0001:000698b0       _hb_setGetWinHan           0046a8b0 f   xhb:set.obj
 0001:000698c0       _hb_setGetPrinterJob       0046a8c0 f   xhb:set.obj
 0001:000698d0       _hb_setGetBackGroundTick   0046a8d0 f   xhb:set.obj
 0001:000698e0       _hb_setGetWorkareasShared  0046a8e0 f   xhb:set.obj
 0001:00069db0       _hb_hashNew                0046adb0 f   xhb:hash.obj
 0001:00069ea0       _hb_hashAdd                0046aea0 f   xhb:hash.obj
 0001:0006a4f0       _hb_hashAddForward         0046b4f0 f   xhb:hash.obj
 0001:0006a780       _hb_hashScan               0046b780 f   xhb:hash.obj
 0001:0006a860       _hb_hashRemove             0046b860 f   xhb:hash.obj
 0001:0006aac0       _hb_hashSet                0046bac0 f   xhb:hash.obj
 0001:0006aba0       _hb_hashSetForward         0046bba0 f   xhb:hash.obj
 0001:0006ac80       _hb_hashGet                0046bc80 f   xhb:hash.obj
 0001:0006ad80       _hb_hashGetForward         0046bd80 f   xhb:hash.obj
 0001:0006ae80       _hb_hashPreallocate        0046be80 f   xhb:hash.obj
 0001:0006af60       _hb_hashClone              0046bf60 f   xhb:hash.obj
 0001:0006b0b0       _hb_hashMerge              0046c0b0 f   xhb:hash.obj
 0001:0006b530       _hb_hashSetAACompatibility 0046c530 f   xhb:hash.obj
 0001:0006b5e0       _hb_hashReleaseBase        0046c5e0 f   xhb:hash.obj
 0001:0006b6d0       _hb_hashRelease            0046c6d0 f   xhb:hash.obj
 0001:0006b750       _hb_hashReleaseGarbage     0046c750 f   xhb:hash.obj
 0001:0006b800       _hb_hashGetKeys            0046c800 f   xhb:hash.obj
 0001:0006b8f0       _hb_hashGetValues          0046c8f0 f   xhb:hash.obj
 0001:0006b9e0       _hb_hashGetKeyAt           0046c9e0 f   xhb:hash.obj
 0001:0006ba70       _hb_hashGetValueAt         0046ca70 f   xhb:hash.obj
 0001:0006baf0       _HB_FUN_HASH               0046caf0 f   xhb:hash.obj
 0001:0006bc10       _HB_FUN_HGETPOS            0046cc10 f   xhb:hash.obj
 0001:0006bcb0       _HB_FUN_HAAGETPOS          0046ccb0 f   xhb:hash.obj
 0001:0006bd90       _HB_FUN_HHASKEY            0046cd90 f   xhb:hash.obj
 0001:0006be30       _HB_FUN_HGET               0046ce30 f   xhb:hash.obj
 0001:0006bf00       _HB_FUN_HSET               0046cf00 f   xhb:hash.obj
 0001:0006bfa0       _HB_FUN_HDEL               0046cfa0 f   xhb:hash.obj
 0001:0006c060       _HB_FUN_HGETKEYAT          0046d060 f   xhb:hash.obj
 0001:0006c130       _HB_FUN_HAAGETKEYAT        0046d130 f   xhb:hash.obj
 0001:0006c250       _HB_FUN_HGETVALUEAT        0046d250 f   xhb:hash.obj
 0001:0006c320       _HB_FUN_HAAGETVALUEAT      0046d320 f   xhb:hash.obj
 0001:0006c440       _HB_FUN_HSETVALUEAT        0046d440 f   xhb:hash.obj
 0001:0006c550       _HB_FUN_HAASETVALUEAT      0046d550 f   xhb:hash.obj
 0001:0006c6b0       _HB_FUN_HGETPAIRAT         0046d6b0 f   xhb:hash.obj
 0001:0006c890       _HB_FUN_HDELAT             0046d890 f   xhb:hash.obj
 0001:0006c950       _HB_FUN_HAADELAT           0046d950 f   xhb:hash.obj
 0001:0006ca60       _HB_FUN_HGETKEYS           0046da60 f   xhb:hash.obj
 0001:0006cad0       _HB_FUN_HGETVALUES         0046dad0 f   xhb:hash.obj
 0001:0006cb40       _HB_FUN_HGETVAAPOS         0046db40 f   xhb:hash.obj
 0001:0006cbf0       _HB_FUN_HFILL              0046dbf0 f   xhb:hash.obj
 0001:0006ccd0       _HB_FUN_HSCAN              0046dcd0 f   xhb:hash.obj
 0001:0006ce00       _HB_FUN_HEVAL              0046de00 f   xhb:hash.obj
 0001:0006cf20       _HB_FUN_HCLONE             0046df20 f   xhb:hash.obj
 0001:0006cf90       _HB_FUN_HCOPY              0046df90 f   xhb:hash.obj
 0001:0006d0d0       _HB_FUN_HMERGE             0046e0d0 f   xhb:hash.obj
 0001:0006d180       _hb_hashSetCaseMatch       0046e180 f   xhb:hash.obj
 0001:0006d1d0       _HB_FUN_HSETCASEMATCH      0046e1d0 f   xhb:hash.obj
 0001:0006d260       _HB_FUN_HGETCASEMATCH      0046e260 f   xhb:hash.obj
 0001:0006d2c0       _HB_FUN_HSETAUTOADD        0046e2c0 f   xhb:hash.obj
 0001:0006d330       _HB_FUN_HGETAUTOADD        0046e330 f   xhb:hash.obj
 0001:0006d390       _HB_FUN_HSETPARTITION      0046e390 f   xhb:hash.obj
 0001:0006d560       _HB_FUN_HGETPARTITION      0046e560 f   xhb:hash.obj
 0001:0006d650       _HB_FUN_HALLOCATE          0046e650 f   xhb:hash.obj
 0001:0006d6e0       _HB_FUN_HSETAACOMPATIBILITY 0046e6e0 f   xhb:hash.obj
 0001:0006d770       _HB_FUN_HGETAACOMPATIBILITY 0046e770 f   xhb:hash.obj
 0001:0006d7d0       _HB_FUN_HAAGETREALPOS      0046e7d0 f   xhb:hash.obj
 0001:0006d850       _hb_hashAAGetRealPos       0046e850 f   xhb:hash.obj
 0001:0006d890       _hb_hashLen                0046e890 f   xhb:hash.obj
 0001:0006d8b0       _hb_hashGetCompatibility   0046e8b0 f   xhb:hash.obj
 0001:0006d8e0       _hb_hashId                 0046e8e0 f   xhb:hash.obj
 0001:0006d900       _HB_FUN_HB_HASHID          0046e900 f   xhb:hash.obj
 0001:0006d930       _HB_FUN_LEFT               0046e930 f   xhb:left.obj
 0001:0006da30       _hb_strLower               0046ea30 f   xhb:strcase.obj
 0001:0006dab0       _hb_strLowerCopy           0046eab0 f   xhb:strcase.obj
 0001:0006db40       _hb_strUpperCopy           0046eb40 f   xhb:strcase.obj
 0001:0006dbd0       _hb_strUpper               0046ebd0 f   xhb:strcase.obj
 0001:0006dc50       _hb_charLower              0046ec50 f   xhb:strcase.obj
 0001:0006dca0       _hb_charUpper              0046eca0 f   xhb:strcase.obj
 0001:0006dcf0       _HB_FUN_LOWER              0046ecf0 f   xhb:strcase.obj
 0001:0006dd70       _HB_FUN_UPPER              0046ed70 f   xhb:strcase.obj
 0001:0006ddf0       _HB_FUN_STRTRAN            0046edf0 f   xhb:strtran.obj
 0001:0006e180       _HB_FUN_VAL                0046f180 f   xhb:val.obj
 0001:0006e230       _HB_FUN_EMPTY              0046f230 f   xhb:empty.obj
 0001:0006e4f0       _HB_FUN_VALTYPE            0046f4f0 f   xhb:valtype.obj
 0001:0006e530       _HB_FUN_ISNULL             0046f530 f   xhb:valtype.obj
 0001:0006e590       _HB_FUN_SETNULL            0046f590 f   xhb:valtype.obj
 0001:0006e5c0       _HB_FUN_HB_ISBYREF         0046f5c0 f   xhb:valtype.obj
 0001:0006e630       _HB_FUN_HB_ISNIL           0046f630 f   xhb:valtype.obj
 0001:0006e690       _HB_FUN_HB_ISNUMERIC       0046f690 f   xhb:valtype.obj
 0001:0006e6d0       _HB_FUN_HB_ISLOGICAL       0046f6d0 f   xhb:valtype.obj
 0001:0006e710       _HB_FUN_HB_ISDATE          0046f710 f   xhb:valtype.obj
 0001:0006e750       _HB_FUN_HB_ISDATETIME      0046f750 f   xhb:valtype.obj
 0001:0006e790       _HB_FUN_HB_ISTIMESTAMP     0046f790 f   xhb:valtype.obj
 0001:0006e7c0       _HB_FUN_HB_ISBLOCK         0046f7c0 f   xhb:valtype.obj
 0001:0006e800       _HB_FUN_HB_ISPOINTER       0046f800 f   xhb:valtype.obj
 0001:0006e840       _HB_FUN_HB_ISSTRING        0046f840 f   xhb:valtype.obj
 0001:0006e880       _HB_FUN_HB_ISCHAR          0046f880 f   xhb:valtype.obj
 0001:0006e8c0       _HB_FUN_HB_ISMEMO          0046f8c0 f   xhb:valtype.obj
 0001:0006e900       _HB_FUN_HB_ISARRAY         0046f900 f   xhb:valtype.obj
 0001:0006e960       _HB_FUN_HB_ISOBJECT        0046f960 f   xhb:valtype.obj
 0001:0006e990       _HB_FUN_HB_ISHASH          0046f990 f   xhb:valtype.obj
 0001:0006e9d0       _HB_FUN_HB_ISNULL          0046f9d0 f   xhb:valtype.obj
 0001:0006eaa0       _HB_FUN_FILE               0046faa0 f   xhb:filehb.obj
 0001:0006eaf0       _HB_FUN_ISDIRECTORY        0046faf0 f   xhb:filehb.obj
 0001:0006ed40       _hb_selectWriteExceptSocket 0046fd40 f   xhb:inet.obj
 0001:0006f1b0       _HB_FUN_INETINIT           004701b0 f   xhb:inet.obj
 0001:0006f1f0       _HB_FUN_INETCLEANUP        004701f0 f   xhb:inet.obj
 0001:0006f210       _HB_FUN_INETCREATE         00470210 f   xhb:inet.obj
 0001:0006f2a0       _HB_FUN_INETCLOSE          004702a0 f   xhb:inet.obj
 0001:0006f340       _HB_FUN_INETDESTROY        00470340 f   xhb:inet.obj
 0001:0006f350       _HB_FUN_INETSTATUS         00470350 f   xhb:inet.obj
 0001:0006f3c0       _HB_FUN_INETERRORCODE      004703c0 f   xhb:inet.obj
 0001:0006f420       _HB_FUN_INETERRORDESC      00470420 f   xhb:inet.obj
 0001:0006f480       _HB_FUN_INETCLEARERROR     00470480 f   xhb:inet.obj
 0001:0006f4e0       _HB_FUN_INETCOUNT          004704e0 f   xhb:inet.obj
 0001:0006f540       _HB_FUN_INETADDRESS        00470540 f   xhb:inet.obj
 0001:0006f5b0       _HB_FUN_INETPORT           004705b0 f   xhb:inet.obj
 0001:0006f620       _HB_FUN_INETFD             00470620 f   xhb:inet.obj
 0001:0006f6a0       _HB_FUN_INETSETTIMEOUT     004706a0 f   xhb:inet.obj
 0001:0006f720       _HB_FUN_INETGETTIMEOUT     00470720 f   xhb:inet.obj
 0001:0006f780       _HB_FUN_INETCLEARTIMEOUT   00470780 f   xhb:inet.obj
 0001:0006f7d0       _HB_FUN_INETSETTIMELIMIT   004707d0 f   xhb:inet.obj
 0001:0006f850       _HB_FUN_INETGETTIMELIMIT   00470850 f   xhb:inet.obj
 0001:0006f8b0       _HB_FUN_INETCLEARTIMELIMIT 004708b0 f   xhb:inet.obj
 0001:0006f900       _HB_FUN_INETSETPERIODCALLBACK 00470900 f   xhb:inet.obj
 0001:0006f990       _HB_FUN_INETGETPERIODCALLBACK 00470990 f   xhb:inet.obj
 0001:0006fa00       _HB_FUN_INETCLEARPERIODCALLBACK 00470a00 f   xhb:inet.obj
 0001:0006fa60       _HB_FUN_INETGETSNDBUFSIZE  00470a60 f   xhb:inet.obj
 0001:0006faf0       _HB_FUN_INETGETRCVBUFSIZE  00470af0 f   xhb:inet.obj
 0001:0006fb80       _HB_FUN_INETSETSNDBUFSIZE  00470b80 f   xhb:inet.obj
 0001:0006fc10       _HB_FUN_INETSETRCVBUFSIZE  00470c10 f   xhb:inet.obj
 0001:0006ff00       _HB_FUN_INETRECV           00470f00 f   xhb:inet.obj
 0001:0006ff20       _HB_FUN_INETRECVALL        00470f20 f   xhb:inet.obj
 0001:00070220       _HB_FUN_INETRECVLINE       00471220 f   xhb:inet.obj
 0001:00070240       _HB_FUN_INETRECVENDBLOCK   00471240 f   xhb:inet.obj
 0001:000707b0       _HB_FUN_INETDATAREADY      004717b0 f   xhb:inet.obj
 0001:00070af0       _HB_FUN_INETSEND           00471af0 f   xhb:inet.obj
 0001:00070b10       _HB_FUN_INETSENDALL        00471b10 f   xhb:inet.obj
 0001:00070b30       _HB_FUN_INETGETHOSTS       00471b30 f   xhb:inet.obj
 0001:00070c00       _HB_FUN_INETGETALIAS       00471c00 f   xhb:inet.obj
 0001:00070cd0       _HB_FUN_INETSERVER         00471cd0 f   xhb:inet.obj
 0001:00070f50       _HB_FUN_INETACCEPT         00471f50 f   xhb:inet.obj
 0001:00071100       _HB_FUN_INETCONNECT        00472100 f   xhb:inet.obj
 0001:000712e0       _HB_FUN_INETCONNECTIP      004722e0 f   xhb:inet.obj
 0001:000714a0       _HB_FUN_INETDGRAMBIND      004724a0 f   xhb:inet.obj
 0001:00071720       _HB_FUN_INETDGRAM          00472720 f   xhb:inet.obj
 0001:00071810       _HB_FUN_INETDGRAMSEND      00472810 f   xhb:inet.obj
 0001:000719c0       _HB_FUN_INETDGRAMRECV      004729c0 f   xhb:inet.obj
 0001:00071bb0       _HB_FUN_INETCRLF           00472bb0 f   xhb:inet.obj
 0001:00071bd0       _HB_FUN_INETISSOCKET       00472bd0 f   xhb:inet.obj
 0001:00071c10       _HB_FUN_HB_INETFD          00472c10 f   xhb:inet.obj
 0001:000720b0       _HB_FUN_HB_TOKENCOUNT      004730b0 f   xhb:hbtoken.obj
 0001:00072130       _HB_FUN_HB_TOKENGET        00473130 f   xhb:hbtoken.obj
 0001:000721c0       _HB_FUN_HB_TOKENPTR        004731c0 f   xhb:hbtoken.obj
 0001:000722a0       _HB_FUN_HB_ATOKENS         004732a0 f   xhb:hbtoken.obj
 0001:00072310       _HB_FUN___STRTOKEN         00473310 f   xhb:hbtoken.obj
 0001:00072320       _HB_FUN___STRTKPTR         00473320 f   xhb:hbtoken.obj
 0001:00072330       _HB_FUN___STRTOKENCOUNT    00473330 f   xhb:hbtoken.obj
 0001:00072340       _HB_FUN_MAX                00473340 f   xhb:minmax.obj
 0001:000727a0       _HB_FUN_MIN                004737a0 f   xhb:minmax.obj
 0001:00072c00       _hb_strLTrim               00473c00 f   xhb:trim.obj
 0001:00072c40       _hb_strRTrimLen            00473c40 f   xhb:trim.obj
 0001:00072c90       _HB_FUN_LTRIM              00473c90 f   xhb:trim.obj
 0001:00072d20       _HB_FUN_RTRIM              00473d20 f   xhb:trim.obj
 0001:00072df0       _HB_FUN_TRIM               00473df0 f   xhb:trim.obj
 0001:00072e00       _HB_FUN_ALLTRIM            00473e00 f   xhb:trim.obj
 0001:00072ed0       _HB_FUN_BREAK              00473ed0 f   xhb:break.obj
 0001:00072ef0       _HB_FUN_METHODNAME         00473ef0 f   xhb:proc.obj
 0001:00072f30       _HB_FUN_PROCNAME           00473f30 f   xhb:proc.obj
 0001:00072f70       _HB_FUN_PROCLINE           00473f70 f   xhb:proc.obj
 0001:00072fb0       _HB_FUN_PROCFILE           00473fb0 f   xhb:proc.obj
 0001:00072ff0       _hb_procinfo               00473ff0 f   xhb:proc.obj
 0001:000732d0       _HB_FUN_STR                004742d0 f   xhb:str.obj
 0001:000735a0       _hb_winmainArgInit         004745a0 f   xhb:cmdarg.obj
 0001:000735d0       _hb_winmainArgGet          004745d0 f   xhb:cmdarg.obj
 0001:00073610       _hb_winmainGetInstance     00474610 f   xhb:cmdarg.obj
 0001:00073620       _hb_cmdargInit             00474620 f   xhb:cmdarg.obj
 0001:00073640       _hb_cmdargARGC             00474640 f   xhb:cmdarg.obj
 0001:00073650       _hb_cmdargARGV             00474650 f   xhb:cmdarg.obj
 0001:00073660       _hb_cmdargIsInternal       00474660 f   xhb:cmdarg.obj
 0001:00073890       _hb_cmdargCheck            00474890 f   xhb:cmdarg.obj
 0001:000738b0       _hb_cmdargString           004748b0 f   xhb:cmdarg.obj
 0001:000738d0       _hb_cmdargNum              004748d0 f   xhb:cmdarg.obj
 0001:00073910       _HB_FUN_HB_ARGCHECK        00474910 f   xhb:cmdarg.obj
 0001:00073970       _HB_FUN_HB_ARGSTRING       00474970 f   xhb:cmdarg.obj
 0001:000739d0       _HB_FUN_HB_ARGC            004749d0 f   xhb:cmdarg.obj
 0001:000739f0       _HB_FUN_HB_ARGV            004749f0 f   xhb:cmdarg.obj
 0001:00073a60       _hb_cmdargProcessVM        00474a60 f   xhb:cmdarg.obj
 0001:00073c50       _hb_verCvsID               00474c50 f   xhb:cmdarg.obj
 0001:00073c60       _hb_verSVNDateID           00474c60 f   xhb:cmdarg.obj
 0001:00073c70       _hb_verCvsChangeLogID      00474c70 f   xhb:cmdarg.obj
 0001:00073c80       _hb_verCvsLastEntry        00474c80 f   xhb:cmdarg.obj
 0001:00073c90       _hb_verFlagsC              00474c90 f   xhb:cmdarg.obj
 0001:00073ca0       _hb_verFlagsL              00474ca0 f   xhb:cmdarg.obj
 0001:00073cb0       _hb_verFlagsPRG            00474cb0 f   xhb:cmdarg.obj
 0001:00073cc0       _HB_FUN_HB_CMDARGARGV      00474cc0 f   xhb:cmdarg.obj
 0001:00073cf0       _HB_FUN_MEMOREAD           00474cf0 f   xhb:memofile.obj
 0001:00073ec0       _HB_FUN_HB_MEMOWRIT        00474ec0 f   xhb:memofile.obj
 0001:00073ef0       _HB_FUN_MEMOWRIT           00474ef0 f   xhb:memofile.obj
 0001:00073f60       _HB_FUN___QUIT             00474f60 f   xhb:initexit.obj
 0001:00073fa0       _hb_fsGetFileAttributes    00474fa0 f   xhb:files.obj
 0001:00073fd0       _HB_FUN_FILEATTR           00474fd0 f   xhb:files.obj
 0001:00074030       _HB_FUN_SETFATTR           00475030 f   xhb:files.obj
 0001:00074100       _HB_FUN_FILESEEK           00475100 f   xhb:files.obj
 0001:000741c0       _HB_FUN_FILESIZE           004751c0 f   xhb:files.obj
 0001:00074310       _HB_FUN_FILEDATE           00475310 f   xhb:files.obj
 0001:00074450       _HB_FUN_FILETIME           00475450 f   xhb:files.obj
 0001:000746c0       _HB_FUN_SETFDATI           004756c0 f   xhb:files.obj
 0001:00074830       _HB_FUN_FILEDELETE         00475830 f   xhb:files.obj
 0001:00074930       _HB_FUN_FILESMAX           00475930 f   xhb:files.obj
 0001:00074950       _HB_FUN_INT                00475950 f   xhb:round.obj
 0001:000749f0       _HB_FUN_ROUND              004759f0 f   xhb:round.obj
 0001:000751c0       _hb_arraySort              004761c0 f   xhb:asort.obj
 0001:00075270       _HB_FUN_ASORT              00476270 f   xhb:asort.obj
 0001:00075310       _HB_FUN_THROW              00476310 f   xhb:throw.obj
 0001:000753a0       _hb_evalNew                004763a0 f   xhb:eval.obj
 0001:000753e0       _hb_evalPutParam           004763e0 f   xhb:eval.obj
 0001:00075420       _hb_evalLaunch             00476420 f   xhb:eval.obj
 0001:00075530       _hb_evalRelease            00476530 f   xhb:eval.obj
 0001:00075590       _hb_itemDo                 00476590 f   xhb:eval.obj
 0001:00075720       _hb_itemDoC                00476720 f   xhb:eval.obj
 0001:000757c0       _hb_itemDoCRef             004767c0 f   xhb:eval.obj
 0001:000758c0       _hb_evalBlock0             004768c0 f   xhb:eval.obj
 0001:000758f0       _hb_evalBlock1             004768f0 f   xhb:eval.obj
 0001:00075920       _hb_evalBlock              00476920 f   xhb:eval.obj
 0001:00075970       _HB_FUN_HB_EXECFROMARRAY   00476970 f   xhb:eval.obj
 0001:00075d80       _hb_execFromArray          00476d80 f   xhb:eval.obj
 0001:00075f40       _HB_FUN_HB_EXEC            00476f40 f   xhb:eval.obj
 0001:00076090       _HB_FUN_ABS                00477090 f   xhb:abs.obj
 0001:00076260       _HB_FUN_AT                 00477260 f   xhb:at.obj
 0001:000763d0       _hb_AtSkipStrings          004773d0 f   xhb:at.obj
 0001:00076560       _HB_FUN_ATSKIPSTRINGS      00477560 f   xhb:at.obj
 0001:00076630       _HB_FUN_ATI                00477630 f   xhb:at.obj
 0001:000767a0       _HB_FUN_CHR                004777a0 f   xhb:chrasc.obj
 0001:00076810       _HB_FUN_ASC                00477810 f   xhb:chrasc.obj
 0001:00076920       _hb_gcAlloc                00477920 f   xhb:garbage.obj
 0001:00076980       _hb_gcIncRef               00477980 f   xhb:garbage.obj
 0001:00076990       _hb_gcDecRef               00477990 f   xhb:garbage.obj
 0001:000769f0       _hb_gcFree                 004779f0 f   xhb:garbage.obj
 0001:00076a70       _hb_gcFunc                 00477a70 f   xhb:garbage.obj
 0001:00076a80       _hb_gcDummyMark            00477a80 f   xhb:garbage.obj
 0001:00076aa0       _hb_gcGripGet              00477aa0 f   xhb:garbage.obj
 0001:00076b00       _hb_gcGripDrop             00477b00 f   xhb:garbage.obj
 0001:00076b60       _hb_gcLock                 00477b60 f   xhb:garbage.obj
 0001:00076bb0       _hb_gcUnlock               00477bb0 f   xhb:garbage.obj
 0001:00076c10       _hb_gcItemRef              00477c10 f   xhb:garbage.obj
 0001:00077510       _hb_gcCollect              00478510 f   xhb:garbage.obj
 0001:00077520       _hb_gcCollectAll           00478520 f   xhb:garbage.obj
 0001:00077730       _hb_gcReleaseAll           00478730 f   xhb:garbage.obj
 0001:00077850       _hb_gcInit                 00478850 f   xhb:garbage.obj
 0001:00077890       _hb_gcSetCollecting        00478890 f   xhb:garbage.obj
 0001:000778b0       _HB_FUN_HB_GCSTEP          004788b0 f   xhb:garbage.obj
 0001:000778c0       _HB_FUN_HB_GCALL           004788c0 f   xhb:garbage.obj
 0001:000778e0       _HB_FUN_HB_GCALLOCATED     004788e0 f   xhb:garbage.obj
 0001:00077900       _hb_OutDebugName           00478900 f   xhb:hboutdbg.obj
 0001:00077910       _hb_OutDebug               00478910 f   xhb:hboutdbg.obj
 0001:00077930       _HB_FUN_HB_OUTDEBUGNAME    00478930 f   xhb:hboutdbg.obj
 0001:00077980       _HB_FUN_HB_OUTDEBUG        00478980 f   xhb:hboutdbg.obj
 0001:00077a10       _HB_FUN_CSTR               00478a10 f   xhb:cstr.obj
 0001:00077a30       _HB_FUN_CSTRTOVAL          00478a30 f   xhb:cstr.obj
 0001:00077a50       _HB_FUN_STRINGTOLITERAL    00478a50 f   xhb:cstr.obj
 0001:00077a70       _HB_FUN_VALTOPRG           00478a70 f   xhb:cstr.obj
 0001:00077a90       _HB_FUN_VALTOPRGEXP        00478a90 f   xhb:cstr.obj
 0001:00077ab0       _HB_FUN_PRGEXPTOVAL        00478ab0 f   xhb:cstr.obj
 0001:00077ad0       _HB_FUN_VALTOARRAY         00478ad0 f   xhb:cstr.obj
 0001:00077af0       _HB_FUN_VALTOBLOCK         00478af0 f   xhb:cstr.obj
 0001:00077b10       _HB_FUN_VALTOCHARACTER     00478b10 f   xhb:cstr.obj
 0001:00077b30       _HB_FUN_VALTODATE          00478b30 f   xhb:cstr.obj
 0001:00077b50       _HB_FUN_VALTOHASH          00478b50 f   xhb:cstr.obj
 0001:00077b70       _HB_FUN_VALTOLOGICAL       00478b70 f   xhb:cstr.obj
 0001:00077b90       _HB_FUN_VALTONUMBER        00478b90 f   xhb:cstr.obj
 0001:00077bb0       _HB_FUN_VALTOOBJECT        00478bb0 f   xhb:cstr.obj
 0001:00077bd0       _HB_FUN_VALTOTYPE          00478bd0 f   xhb:cstr.obj
 0001:00077bf0       _HB_FUN_ANSITOWIDE         00478bf0 f   xhb:win_misc.obj
 0001:00077ca0       _HB_FUN_WIDETOANSI         00478ca0 f   xhb:win_misc.obj
 0001:00077de0       _HB_FUN_BIN2W              00478de0 f   xhb:binnum.obj
 0001:00077e50       _HB_FUN_BIN2I              00478e50 f   xhb:binnum.obj
 0001:00077ec0       _HB_FUN_BIN2L              00478ec0 f   xhb:binnum.obj
 0001:00077f40       _HB_FUN_I2BIN              00478f40 f   xhb:binnum.obj
 0001:00077f80       _HB_FUN_L2BIN              00478f80 f   xhb:binnum.obj
 0001:00077fb0       _HB_FUN_REPLICATE          00478fb0 f   xhb:replic.obj
 0001:00078130       _HB_FUN_SPACE              00479130 f   xhb:space.obj
 0001:000781d0       _hb_dynsymLog              004791d0 f   xhb:dynsym.obj
 0001:00078210       _hb_symbolNew              00479210 f   xhb:dynsym.obj
 0001:00078280       _hb_dynsymNew              00479280 f   xhb:dynsym.obj
 0001:000783a0       _hb_dynsymGet              004793a0 f   xhb:dynsym.obj
 0001:00078470       _hb_dynsymGetCase          00479470 f   xhb:dynsym.obj
 0001:000784e0       _hb_dynsymGetCaseWithNamespaces 004794e0 f   xhb:dynsym.obj
 0001:00078550       _hb_dynsymGetWithNamespaces 00479550 f   xhb:dynsym.obj
 0001:000785c0       _hb_dynsymFindName         004795c0 f   xhb:dynsym.obj
 0001:00078630       _hb_dynsymFind             00479630 f   xhb:dynsym.obj
 0001:00078710       _hb_dynsymFindWithNamespaces 00479710 f   xhb:dynsym.obj
 0001:00078780       _hb_dynsymFindNameWithNamespaces 00479780 f   xhb:dynsym.obj
 0001:00078870       _hb_dynsymGetSymbol        00479870 f   xhb:dynsym.obj
 0001:00078890       _hb_dynsymFindSymbol       00479890 f   xhb:dynsym.obj
 0001:000788b0       _hb_dynsymSymbol           004798b0 f   xhb:dynsym.obj
 0001:000788c0       _hb_dynsymName             004798c0 f   xhb:dynsym.obj
 0001:000788d0       _hb_dynsymIsFunction       004798d0 f   xhb:dynsym.obj
 0001:000788f0       _hb_dynsymMemvarHandle     004798f0 f   xhb:dynsym.obj
 0001:00078900       _hb_dynsymAreaHandle       00479900 f   xhb:dynsym.obj
 0001:00078910       _hb_dynsymSetAreaHandle    00479910 f   xhb:dynsym.obj
 0001:00078920       _hb_dynsymEval             00479920 f   xhb:dynsym.obj
 0001:00078960       _hb_dynsymRelease          00479960 f   xhb:dynsym.obj
 0001:000789d0       _hb_dynsymPos              004799d0 f   xhb:dynsym.obj
 0001:00078a00       _hb_dynsymItems            00479a00 f   xhb:dynsym.obj
 0001:00078a10       _hb_dynsymCount            00479a10 f   xhb:dynsym.obj
 0001:00078a20       _HB_FUN___DYNSCOUNT        00479a20 f   xhb:dynsym.obj
 0001:00078a40       _HB_FUN___DYNSGETNAME      00479a40 f   xhb:dynsym.obj
 0001:00078a90       _HB_FUN___DYNSGETINDEX     00479a90 f   xhb:dynsym.obj
 0001:00078ad0       _HB_FUN___DYNSISFUN        00479ad0 f   xhb:dynsym.obj
 0001:00078b30       _HB_FUN___DYNSGETPRF       00479b30 f   xhb:dynsym.obj
 0001:00078b60       _hb_itemPushForward        00479b60 f   xhb:fastitem.obj
 0001:00078ba0       _hb_itemForwardValue       00479ba0 f   xhb:fastitem.obj
 0001:00078c00       _hb_itemReturn             00479c00 f   xhb:fastitem.obj
 0001:00078c20       _hb_itemReturnForward      00479c20 f   xhb:fastitem.obj
 0001:00078c40       _hb_itemReturnRelease      00479c40 f   xhb:fastitem.obj
 0001:00078c70       _hb_itemReleaseString      00479c70 f   xhb:fastitem.obj
 0001:00078cd0       _hb_itemClear              00479cd0 f   xhb:fastitem.obj
 0001:00078e80       _hb_itemSwap               00479e80 f   xhb:fastitem.obj
 0001:00078ec0       _hb_itemCopy               00479ec0 f   xhb:fastitem.obj
 0001:00079090       _hb_itemPutC               0047a090 f   xhb:fastitem.obj
 0001:000790c0       _hb_itemPutCL              0047a0c0 f   xhb:fastitem.obj
 0001:000792f0       _hb_itemPutCPtr            0047a2f0 f   xhb:fastitem.obj
 0001:00079340       _hb_itemPutCRaw            0047a340 f   xhb:fastitem.obj
 0001:000793c0       _hb_itemPutCRawStatic      0047a3c0 f   xhb:fastitem.obj
 0001:00079400       _hb_itemPutCStatic         0047a400 f   xhb:fastitem.obj
 0001:00079430       _hb_itemPutCLStatic        0047a430 f   xhb:fastitem.obj
 0001:00079480       _hb_itemPutPtr             0047a480 f   xhb:fastitem.obj
 0001:000794c0       _hb_itemPutPtrGC           0047a4c0 f   xhb:fastitem.obj
 0001:000794f0       _hb_itemPushStaticString   0047a4f0 f   xhb:fastitem.obj
 0001:00079540       _hb_retcAdopt              0047a540 f   xhb:fastitem.obj
 0001:000795f0       _hb_retclenAdopt           0047a5f0 f   xhb:fastitem.obj
 0001:00079680       _hb_retclenAdoptRaw        0047a680 f   xhb:fastitem.obj
 0001:000796f0       _hb_retcStatic             0047a6f0 f   xhb:fastitem.obj
 0001:00079750       _hb_retclenStatic          0047a750 f   xhb:fastitem.obj
 0001:00079790       _hb_itemParamId            0047a790 f   xhb:fastitem.obj
 0001:000797e0       _hb_arrayNew               0047a7e0 f   xhb:arrays.obj
 0001:000798a0       _hb_arraySize              0047a8a0 f   xhb:arrays.obj
 0001:00079b10       _hb_arrayLen               0047ab10 f   xhb:arrays.obj
 0001:00079b30       _hb_arrayIsObject          0047ab30 f   xhb:arrays.obj
 0001:00079b60       _hb_arrayId                0047ab60 f   xhb:arrays.obj
 0001:00079b80       _hb_arrayAdd               0047ab80 f   xhb:arrays.obj
 0001:00079bf0       _hb_arrayAddForward        0047abf0 f   xhb:arrays.obj
 0001:00079c60       _hb_arrayDel               0047ac60 f   xhb:arrays.obj
 0001:00079d30       _hb_arrayIns               0047ad30 f   xhb:arrays.obj
 0001:00079dd0       _hb_arraySet               0047add0 f   xhb:arrays.obj
 0001:00079e40       _hb_arraySetForward        0047ae40 f   xhb:arrays.obj
 0001:00079eb0       _hb_arrayGet               0047aeb0 f   xhb:arrays.obj
 0001:00079f30       _hb_arrayGetForward        0047af30 f   xhb:arrays.obj
 0001:00079fb0       _hb_arrayGetByRef          0047afb0 f   xhb:arrays.obj
 0001:0007a0c0       _hb_arrayGetDS             0047b0c0 f   xhb:arrays.obj
 0001:0007a120       _hb_arrayGetDTS            0047b120 f   xhb:arrays.obj
 0001:0007a180       _hb_arrayGetDL             0047b180 f   xhb:arrays.obj
 0001:0007a1d0       _hb_arrayGetT              0047b1d0 f   xhb:arrays.obj
 0001:0007a220       _hb_arrayGetDTsec          0047b220 f   xhb:arrays.obj
 0001:0007a270       _hb_arrayGetDTD            0047b270 f   xhb:arrays.obj
 0001:0007a2c0       _hb_arrayGetItemPtr        0047b2c0 f   xhb:arrays.obj
 0001:0007a300       _hb_arrayGetL              0047b300 f   xhb:arrays.obj
 0001:0007a340       _hb_arrayGetNI             0047b340 f   xhb:arrays.obj
 0001:0007a380       _hb_arrayGetNL             0047b380 f   xhb:arrays.obj
 0001:0007a3c0       _hb_arrayGetNLL            0047b3c0 f   xhb:arrays.obj
 0001:0007a410       _hb_arrayGetNInt           0047b410 f   xhb:arrays.obj
 0001:0007a460       _hb_arrayGetND             0047b460 f   xhb:arrays.obj
 0001:0007a4b0       _hb_arrayCopyC             0047b4b0 f   xhb:arrays.obj
 0001:0007a520       _hb_arrayGetC              0047b520 f   xhb:arrays.obj
 0001:0007a580       _hb_arrayGetCPtr           0047b580 f   xhb:arrays.obj
 0001:0007a5e0       _hb_arrayGetCLen           0047b5e0 f   xhb:arrays.obj
 0001:0007a640       _hb_arrayGetPtr            0047b640 f   xhb:arrays.obj
 0001:0007a680       _hb_arrayGetType           0047b680 f   xhb:arrays.obj
 0001:0007a6c0       _hb_arraySetDS             0047b6c0 f   xhb:arrays.obj
 0001:0007a710       _hb_arraySetDL             0047b710 f   xhb:arrays.obj
 0001:0007a760       _hb_arraySetTDT            0047b760 f   xhb:arrays.obj
 0001:0007a7b0       _hb_arraySetL              0047b7b0 f   xhb:arrays.obj
 0001:0007a800       _hb_arraySetNI             0047b800 f   xhb:arrays.obj
 0001:0007a850       _hb_arraySetNL             0047b850 f   xhb:arrays.obj
 0001:0007a8a0       _hb_arraySetNLL            0047b8a0 f   xhb:arrays.obj
 0001:0007a8f0       _hb_arraySetNInt           0047b8f0 f   xhb:arrays.obj
 0001:0007a940       _hb_arraySetND             0047b940 f   xhb:arrays.obj
 0001:0007a990       _hb_arraySetC              0047b990 f   xhb:arrays.obj
 0001:0007a9e0       _hb_arraySetCL             0047b9e0 f   xhb:arrays.obj
 0001:0007aa30       _hb_arraySetCPtr           0047ba30 f   xhb:arrays.obj
 0001:0007aa80       _hb_arraySetPtr            0047ba80 f   xhb:arrays.obj
 0001:0007aad0       _hb_arraySetPtrGC          0047bad0 f   xhb:arrays.obj
 0001:0007ab20       _hb_arrayLast              0047bb20 f   xhb:arrays.obj
 0001:0007abc0       _hb_arrayFill              0047bbc0 f   xhb:arrays.obj
 0001:0007ac40       _hb_arrayScan              0047bc40 f   xhb:arrays.obj
 0001:0007b160       _hb_arrayEval              0047c160 f   xhb:arrays.obj
 0001:0007b400       _hb_arrayReleaseBase       0047c400 f   xhb:arrays.obj
 0001:0007b4d0       _hb_arrayRelease           0047c4d0 f   xhb:arrays.obj
 0001:0007b510       _hb_arrayCopy              0047c510 f   xhb:arrays.obj
 0001:0007b620       _hb_arrayClone2            0047c620 f   xhb:arrays.obj
 0001:0007b640       _hb_arrayCloneEx           0047c640 f   xhb:arrays.obj
 0001:0007b7f0       _hb_arrayClone             0047c7f0 f   xhb:arrays.obj
 0001:0007b830       _hb_arrayFromStack         0047c830 f   xhb:arrays.obj
 0001:0007b890       _hb_arrayFromParams        0047c890 f   xhb:arrays.obj
 0001:0007b960       _hb_arrayBaseParams        0047c960 f   xhb:arrays.obj
 0001:0007b980       _hb_arraySelfParams        0047c980 f   xhb:arrays.obj
 0001:0007b9f0       _hb_arrayReleaseGarbage    0047c9f0 f   xhb:arrays.obj
 0001:0007ba70       _hb_arrayMode              0047ca70 f   xhb:arrays.obj
 0001:0007ba80       _hb_arrayGetNS             0047ca80 f   xhb:arrays.obj
 0001:0007bac0       _hb_arraySetNS             0047cac0 f   xhb:arrays.obj
 0001:0007bb10       _dv_memcpy                 0047cb10 f   xhb:hbmem.obj
 0001:0007c370       _HB_FUN_HB_OLEINIT         0047d370 f   xhb:hbwinole.obj
 0001:0007c440       _HB_FUN_OLEENUMERATE_ENUMERATE 0047d440 f   xhb:hbwinole.obj
 0001:0007c480       _HB_FUN_OLEENUMERATE_END   0047d480 f   xhb:hbwinole.obj
 0001:0007c4a0       _hb_oleAnsiToSysString     0047d4a0 f   xhb:hbwinole.obj
 0001:0007c500       _hb_oleAnsiToWide          0047d500 f   xhb:hbwinole.obj
 0001:0007c560       _hb_oleWideToAnsi          0047d560 f   xhb:hbwinole.obj
 0001:0007c5c0       _hb_oleItemToVariant       0047d5c0 f   xhb:hbwinole.obj
 0001:0007cdb0       _HB_FUN_OLEANSITOWIDE      0047ddb0 f   xhb:hbwinole.obj
 0001:0007ce20       _HB_FUN_OLEWIDETOANSI      0047de20 f   xhb:hbwinole.obj
 0001:0007d780       _hb_oleVariantToItem       0047e780 f   xhb:hbwinole.obj
 0001:0007dd90       _HB_FUN_OLESHOWEXCEPTION   0047ed90 f   xhb:hbwinole.obj
 0001:0007ddf0       _HB_FUN_OLEEXCEPTIONSOURCE 0047edf0 f   xhb:hbwinole.obj
 0001:0007de40       _HB_FUN_OLEEXCEPTIONDESCRIPTION 0047ee40 f   xhb:hbwinole.obj
 0001:0007de90       _HB_FUN_OLEERROR           0047ee90 f   xhb:hbwinole.obj
 0001:0007e0e0       _HB_FUN_OLE2TXTERROR       0047f0e0 f   xhb:hbwinole.obj
 0001:0007e110       _HB_FUN_OLEMESSAGEBOX      0047f110 f   xhb:hbwinole.obj
 0001:0007e170       _HB_FUN_CREATEOLEOBJECT    0047f170 f   xhb:hbwinole.obj
 0001:0007e3b0       _HB_FUN_ISOLEOBJECTREGISTERED 0047f3b0 f   xhb:hbwinole.obj
 0001:0007e440       _HB_FUN_ISOLEOBJECTACTIVE  0047f440 f   xhb:hbwinole.obj
 0001:0007e4f0       _HB_FUN_GETOLEOBJECT       0047f4f0 f   xhb:hbwinole.obj
 0001:0007e620       _HB_FUN_OLEADDREF          0047f620 f   xhb:hbwinole.obj
 0001:0007e660       _HB_FUN_OLERELEASEOBJECT   0047f660 f   xhb:hbwinole.obj
 0001:0007e940       _HB_FUN_TOLEAUTO_OLEVALUE  0047f940 f   xhb:hbwinole.obj
 0001:0007e9c0       _HB_FUN_TOLEAUTO__OLEVALUE 0047f9c0 f   xhb:hbwinole.obj
 0001:0007ea70       _HB_FUN_TOLEAUTO_OLENEWENUMERATOR 0047fa70 f   xhb:hbwinole.obj
 0001:0007ecc0       _HB_FUN_TOLEAUTO_INVOKE    0047fcc0 f   xhb:hbwinole.obj
 0001:0007ed60       _HB_FUN_TOLEAUTO_SET       0047fd60 f   xhb:hbwinole.obj
 0001:0007ee00       _HB_FUN_TOLEAUTO_GET       0047fe00 f   xhb:hbwinole.obj
 0001:0007eea0       _HB_FUN_TOLEAUTO_ONERROR   0047fea0 f   xhb:hbwinole.obj
 0001:0007f1a0       _HB_FUN_OLEPTR2INT         004801a0 f   xhb:hbwinole.obj
 0001:0007f1d0       _HB_FUN_MOD                004801d0 f   xhb:mod.obj
 0001:0007f3e0       _HB_FUN_CREATEOBJECT       004803e0 f   xhb:win32ole.obj
 0001:0007f400       _HB_FUN_GETACTIVEOBJECT    00480400 f   xhb:win32ole.obj
 0001:0007f420       _HB_FUN_OLEDEFAULTARG      00480420 f   xhb:win32ole.obj
 0001:0007f440       _HB_FUN_VTWRAPPER          00480440 f   xhb:win32ole.obj
 0001:0007f480       _HB_FUN_VTARRAYWRAPPER     00480480 f   xhb:win32ole.obj
 0001:0007f4e0       _HB_FUN_TOLEAUTO           004804e0 f   xhb:win32ole.obj
 0001:0007f720       _hb_strAt                  00480720 f   xhb:hbstr.obj
 0001:0007f790       _hb_strupr                 00480790 f   xhb:hbstr.obj
 0001:0007f7c0       _hb_strlow                 004807c0 f   xhb:hbstr.obj
 0001:0007f7f0       _hb_strdup                 004807f0 f   xhb:hbstr.obj
 0001:0007f830       _hb_strndup                00480830 f   xhb:hbstr.obj
 0001:0007f880       _hb_strnlen                00480880 f   xhb:hbstr.obj
 0001:0007f8b0       _hb_strduptrim             004808b0 f   xhb:hbstr.obj
 0001:0007f910       _hb_strlentrim             00480910 f   xhb:hbstr.obj
 0001:0007f950       _hb_stricmp                00480950 f   xhb:hbstr.obj
 0001:0007f9e0       _hb_symcmp                 004809e0 f   xhb:hbstr.obj
 0001:0007fa60       _hb_strnicmp               00480a60 f   xhb:hbstr.obj
 0001:0007fb10       _hb_xstrcat                00480b10 f   xhb:hbstr.obj
 0001:0007fb70       _hb_xstrcpy                00480b70 f   xhb:hbstr.obj
 0001:0007fc60       _hb_numRound               00480c60 f   xhb:hbstr.obj
 0001:0007fd80       _hb_numInt                 00480d80 f   xhb:hbstr.obj
 0001:0007fdb0       _hb_numDecConv             00480db0 f   xhb:hbstr.obj
 0001:0007fe30       _hb_numExpConv             00480e30 f   xhb:hbstr.obj
 0001:00080540       _hb_compStrToNum           00481540 f   xhb:hbstr.obj
 0001:00080570       _hb_compStrToNumErr        00481570 f   xhb:hbstr.obj
 0001:000805a0       _hb_valStrnToNum           004815a0 f   xhb:hbstr.obj
 0001:000805d0       _hb_strToNum               004815d0 f   xhb:hbstr.obj
 0001:00080610       _hb_strnToNum              00481610 f   xhb:hbstr.obj
 0001:00080640       _hb_strVal                 00481640 f   xhb:hbstr.obj
 0001:00080680       _hb_strValInt              00481680 f   xhb:hbstr.obj
 0001:000806e0       _hb_numToStr               004816e0 f   xhb:hbstr.obj
 0001:000807e0       _hb_dblToStr               004817e0 f   xhb:hbstr.obj
 0001:00080ba0       _hb_strncpy                00481ba0 f   xhb:hbstr.obj
 0001:00080be0       _hb_strncat                00481be0 f   xhb:hbstr.obj
 0001:00080c40       _hb_strncpyLower           00481c40 f   xhb:hbstr.obj
 0001:00080ca0       _hb_strncpyUpper           00481ca0 f   xhb:hbstr.obj
 0001:00080d00       _hb_strncpyUpperTrim       00481d00 f   xhb:hbstr.obj
 0001:00080d80       _hb_strncpyTrim            00481d80 f   xhb:hbstr.obj
 0001:00080df0       _hb_strRemEscSeq           00481df0 f   xhb:hbstr.obj
 0001:00081030       _hb_stripOutComments       00482030 f   xhb:hbstr.obj
 0001:00081170       _hb_strerror               00482170 f   xhb:hbstr.obj
 0001:00081180       _hb_strtohex               00482180 f   xhb:hbstr.obj
 0001:00081200       _hb_strAtI                 00482200 f   xhb:hbstr.obj
 0001:000812f0       _HB_FUN_HB_SETINICOMMENT   004822f0 f   xhb:hbini.obj
 0001:00081310       _HB_FUN_HB_READINI         00482310 f   xhb:hbini.obj
 0001:00081350       _HB_FUN_HB_WRITEINI        00482350 f   xhb:hbini.obj
 0001:00081400       _HB_FUN_WIN32PRN           00482400 f   xhb:win32prn.obj
 0001:000818e0       _HB_FUN_WIN32BMP           004828e0 f   xhb:win32prn.obj
 0001:000819a0       _HB_FUN_XBPBITMAP          004829a0 f   xhb:win32prn.obj
 0001:00082020       _HB_FUN_MULDIV             00483020 f   xhb:win32prn.obj
 0001:00083100       _HB_FUN_TXMLNODE           00484100 f   xhb:txml.obj
 0001:000831e0       _HB_FUN_TXMLITERATOR       004841e0 f   xhb:txml.obj
 0001:000832e0       _HB_FUN_TXMLITERATORSCAN   004842e0 f   xhb:txml.obj
 0001:00083320       _HB_FUN_TXMLITERATORREGEX  00484320 f   xhb:txml.obj
 0001:00083360       _HB_FUN_TXMLDOCUMENT       00484360 f   xhb:txml.obj
 0001:00083460       _hb_dateTimeStamp          00484460 f   xhb:seconds.obj
 0001:000834c0       _hb_dateMilliSeconds       004844c0 f   xhb:seconds.obj
 0001:00083530       _hb_dateSeconds            00484530 f   xhb:seconds.obj
 0001:00083580       _HB_FUN_SECONDS            00484580 f   xhb:seconds.obj
 0001:000835b0       _HB_FUN_SECONDSCPU         004845b0 f   xhb:seconds.obj
 0001:000835f0       _HB_FUN_HB_CLOCKS2SECS     004845f0 f   xhb:seconds.obj
 0001:00083630       _hb_secondsCPU             00484630 f   xhb:seconds.obj
 0001:00083780       _HB_FUN_HB_ISREMOTEDISK    00484780 f   xhb:dirdrive.obj
 0001:00083800       _HB_FUN_HB_ISRAMDISK       00484800 f   xhb:dirdrive.obj
 0001:00083880       _HB_FUN_HB_ISHARDDISK      00484880 f   xhb:dirdrive.obj
 0001:00083900       _HB_FUN_HB_ISCDROM         00484900 f   xhb:dirdrive.obj
 0001:00083980       _HB_FUN_HB_ISDISKETTE      00484980 f   xhb:dirdrive.obj
 0001:00083a00       _HB_FUN_HB_DISKREADY       00484a00 f   xhb:dirdrive.obj
 0001:00083ab0       _HB_FUN_HB_DISKREADYW      00484ab0 f   xhb:dirdrive.obj
 0001:00083ac0       _HB_FUN_DIRCHANGE          00484ac0 f   xhb:dirdrive.obj
 0001:00083b40       _HB_FUN_MAKEDIR            00484b40 f   xhb:dirdrive.obj
 0001:00083bc0       _HB_FUN_DIRREMOVE          00484bc0 f   xhb:dirdrive.obj
 0001:00083c40       _HB_FUN_ISDISK             00484c40 f   xhb:dirdrive.obj
 0001:00083cf0       _HB_FUN_DISKCHANGE         00484cf0 f   xhb:dirdrive.obj
 0001:00083da0       _HB_FUN_DISKNAME           00484da0 f   xhb:dirdrive.obj
 0001:00083e30       _HB_FUN_GET                00484e30 f   xhb:tget.obj
 0001:00084370       _HB_FUN___GUICOLOR         00485370 f   xhb:tget.obj
 0001:00084390       _HB_FUN_ISDEFCOLOR         00485390 f   xhb:tget.obj
 0001:000843f0       _hb_conInit                004853f0 f   xhb:console.obj
 0001:00084480       _hb_conRelease             00485480 f   xhb:console.obj
 0001:000844b0       _hb_conNewLine             004854b0 f   xhb:console.obj
 0001:000844c0       _HB_FUN_HB_OSNEWLINE       004854c0 f   xhb:console.obj
 0001:000844e0       _hb_conOutStd              004854e0 f   xhb:console.obj
 0001:00084520       _hb_conOutErr              00485520 f   xhb:console.obj
 0001:00084580       _hb_conOutAlt              00485580 f   xhb:console.obj
 0001:00084800       _HB_FUN_OUTSTD             00485800 f   xhb:console.obj
 0001:00084870       _HB_FUN_OUTERR             00485870 f   xhb:console.obj
 0001:000848e0       _HB_FUN_QQOUT              004858e0 f   xhb:console.obj
 0001:00084950       _HB_FUN_QOUT               00485950 f   xhb:console.obj
 0001:00084a50       _HB_FUN___EJECT            00485a50 f   xhb:console.obj
 0001:00084ab0       _HB_FUN_PROW               00485ab0 f   xhb:console.obj
 0001:00084ad0       _HB_FUN_PCOL               00485ad0 f   xhb:console.obj
 0001:00084ce0       _HB_FUN_DEVPOS             00485ce0 f   xhb:console.obj
 0001:00084d40       _HB_FUN_SETPRC             00485d40 f   xhb:console.obj
 0001:00084da0       _HB_FUN_DEVOUT             00485da0 f   xhb:console.obj
 0001:00084e60       _HB_FUN_DISPOUT            00485e60 f   xhb:console.obj
 0001:00084f40       _HB_FUN_DISPOUTAT          00485f40 f   xhb:console.obj
 0001:00085050       _HB_FUN_HB_DISPOUTAT       00486050 f   xhb:console.obj
 0001:00085130       _HB_FUN_HB_GETSTDIN        00486130 f   xhb:console.obj
 0001:00085150       _HB_FUN_HB_GETSTDOUT       00486150 f   xhb:console.obj
 0001:00085170       _HB_FUN_HB_GETSTDERR       00486170 f   xhb:console.obj
 0001:00085190       _HB_FUN_HBCONSOLELOCK      00486190 f   xhb:console.obj
 0001:000851a0       _HB_FUN_HBCONSOLEUNLOCK    004861a0 f   xhb:console.obj
 0001:000851b0       _hb_memvarsClear           004861b0 f   xhb:memvars.obj
 0001:00085230       _hb_memvarsInit            00486230 f   xhb:memvars.obj
 0001:000852a0       _hb_memvarsRelease         004862a0 f   xhb:memvars.obj
 0001:00085350       _hb_memvarValueBaseAddress 00486350 f   xhb:memvars.obj
 0001:00085360       _hb_memvarValueNew         00486360 f   xhb:memvars.obj
 0001:00085470       _hb_memvarDetachLocal      00486470 f   xhb:memvars.obj
 0001:00085510       _hb_memvarGetPrivatesBase  00486510 f   xhb:memvars.obj
 0001:00085530       _hb_memvarSetPrivatesBase  00486530 f   xhb:memvars.obj
 0001:000855d0       _hb_memvarValueIncRef      004865d0 f   xhb:memvars.obj
 0001:00085650       _hb_memvarValueDecRef      00486650 f   xhb:memvars.obj
 0001:000856b0       _hb_memvarValueDecGarbageRef 004866b0 f   xhb:memvars.obj
 0001:00085720       _hb_memvarSetValue         00486720 f   xhb:memvars.obj
 0001:00085800       _hb_memvarGet              00486800 f   xhb:memvars.obj
 0001:00085890       _hb_memvarGetValue         00486890 f   xhb:memvars.obj
 0001:00085910       _hb_memvarGetRefer         00486910 f   xhb:memvars.obj
 0001:00085a60       _hb_memvarNewParameter     00486a60 f   xhb:memvars.obj
 0001:00085a80       _hb_memvarGetStrValuePtr   00486a80 f   xhb:memvars.obj
 0001:00085b20       _hb_memvarCreateFromItem   00486b20 f   xhb:memvars.obj
 0001:00085ee0       _hb_memvarScope            00486ee0 f   xhb:memvars.obj
 0001:00085ff0       _hb_memvarReleasePublic    00486ff0 f   xhb:memvars.obj
 0001:00086180       _HB_FUN___MVPUBLIC         00487180 f   xhb:memvars.obj
 0001:00086220       _HB_FUN___MVPRIVATE        00487220 f   xhb:memvars.obj
 0001:000862c0       _HB_FUN___MVXRELEASE       004872c0 f   xhb:memvars.obj
 0001:00086340       _HB_FUN___MVRELEASE        00487340 f   xhb:memvars.obj
 0001:000863e0       _HB_FUN___MVSCOPE          004873e0 f   xhb:memvars.obj
 0001:000864a0       _HB_FUN___MVCLEAR          004874a0 f   xhb:memvars.obj
 0001:000864b0       _HB_FUN___MVDBGINFO        004874b0 f   xhb:memvars.obj
 0001:000865b0       _HB_FUN___MVEXIST          004875b0 f   xhb:memvars.obj
 0001:00086600       _HB_FUN___MVGET            00487600 f   xhb:memvars.obj
 0001:000866f0       _HB_FUN___MVPUT            004876f0 f   xhb:memvars.obj
 0001:00086ae0       _HB_FUN___MVSAVE           00487ae0 f   xhb:memvars.obj
 0001:00086da0       _HB_FUN___MVRESTORE        00487da0 f   xhb:memvars.obj
 0001:00087530       _hb_memvarsIsMemvarRef     00488530 f   xhb:memvars.obj
 0001:00087590       _hb_memvarGetVarHandle     00488590 f   xhb:memvars.obj
 0001:000875c0       _hb_memvarGetValueByHandle 004885c0 f   xhb:memvars.obj
 0001:00087690       _HB_FUN___MVSYMBOLINFO     00488690 f   xhb:memvars.obj
 0001:000876d0       _hb_memvarGetValueBySym    004886d0 f   xhb:memvars.obj
 0001:00087700       _hb_i18nInit               00488700 f   xhb:hbi18n.obj
 0001:00087810       _hb_i18nExit               00488810 f   xhb:hbi18n.obj
 0001:00087830       _hb_i18n_scan_table        00488830 f   xhb:hbi18n.obj
 0001:00087950       _hb_i18n_build_table_filename 00488950 f   xhb:hbi18n.obj
 0001:00087a00       _hb_i18n_read_table_header 00488a00 f   xhb:hbi18n.obj
 0001:00087b10       _hb_i18n_write_table_header 00488b10 f   xhb:hbi18n.obj
 0001:00087c00       _hb_i18n_read_table        00488c00 f   xhb:hbi18n.obj
 0001:00087da0       _hb_i18n_read_memory_table 00488da0 f   xhb:hbi18n.obj
 0001:00087f10       _hb_i18n_write_table       00488f10 f   xhb:hbi18n.obj
 0001:00088010       _hb_i18n_load_language     00489010 f   xhb:hbi18n.obj
 0001:00088130       _HB_FUN_HB_I18NLOADTABLE   00489130 f   xhb:hbi18n.obj
 0001:00088270       _HB_FUN_HB_I18NSORTTABLE   00489270 f   xhb:hbi18n.obj
 0001:000883c0       _HB_FUN_HB_I18NSAVETABLE   004893c0 f   xhb:hbi18n.obj
 0001:00088500       _HB_FUN_I18N               00489500 f   xhb:hbi18n.obj
 0001:00088590       _HB_FUN_HB_I18NSETPATH     00489590 f   xhb:hbi18n.obj
 0001:000885f0       _HB_FUN_HB_I18NGETPATH     004895f0 f   xhb:hbi18n.obj
 0001:00088610       _HB_FUN_HB_I18NSETLANGUAGE 00489610 f   xhb:hbi18n.obj
 0001:00088700       _HB_FUN_HB_I18NGETLANGUAGE 00489700 f   xhb:hbi18n.obj
 0001:00088720       _HB_FUN_HB_I18NGETLANGUAGENAME 00489720 f   xhb:hbi18n.obj
 0001:00088740       _HB_FUN_HB_I18NGETBASELANGUAGE 00489740 f   xhb:hbi18n.obj
 0001:00088760       _HB_FUN_HB_I18NGETBASELANGUAGENAME 00489760 f   xhb:hbi18n.obj
 0001:00088780       _HB_FUN_HB_I18NSETBASELANGUAGE 00489780 f   xhb:hbi18n.obj
 0001:00088850       _HB_FUN_HB_I18NINITIALIZED 00489850 f   xhb:hbi18n.obj
 0001:00088880       _HB_FUN_HB_HFIND           00489880 f   xhb:hbi18n.obj
 0001:000894d0       _hb_fileRegister           0048a4d0 f   xhb:filebuf.obj
 0001:00089510       _hb_fileDelete             0048a510 f   xhb:filebuf.obj
 0001:00089560       _hb_fileExists             0048a560 f   xhb:filebuf.obj
 0001:000895b0       _hb_fileRename             0048a5b0 f   xhb:filebuf.obj
 0001:00089600       _hb_fileExtOpen            0048a600 f   xhb:filebuf.obj
 0001:00089680       _hb_fileClose              0048a680 f   xhb:filebuf.obj
 0001:00089690       _hb_fileLock               0048a690 f   xhb:filebuf.obj
 0001:000896c0       _hb_fileReadAt             0048a6c0 f   xhb:filebuf.obj
 0001:000896f0       _hb_fileWriteAt            0048a6f0 f   xhb:filebuf.obj
 0001:00089720       _hb_fileTruncAt            0048a720 f   xhb:filebuf.obj
 0001:00089740       _hb_fileSize               0048a740 f   xhb:filebuf.obj
 0001:00089750       _hb_fileSeekLarge          0048a750 f   xhb:filebuf.obj
 0001:00089770       _hb_fileWriteLarge         0048a770 f   xhb:filebuf.obj
 0001:00089790       _hb_fileReadLarge          0048a790 f   xhb:filebuf.obj
 0001:000897b0       _hb_fileFlush              0048a7b0 f   xhb:filebuf.obj
 0001:000897d0       _hb_fileCommit             0048a7d0 f   xhb:filebuf.obj
 0001:000897e0       _hb_fileHandle             0048a7e0 f   xhb:filebuf.obj
 0001:000897f0       _hb_fileCreateTemp         0048a7f0 f   xhb:filebuf.obj
 0001:00089840       _hb_fileCreateTempEx       0048a840 f   xhb:filebuf.obj
 0001:00089890       _hb_filebufInit            0048a890 f   xhb:filebuf.obj
 0001:000898a0       _hb_vmSymbolInit_RT        0048a8a0 f   xhb:initsymb.obj
 0001:000898c0       _hb_lang_ForceLink         0048a8c0 f   xhb:langapi.obj
 0001:00089920       _hb_langRegister           0048a920 f   xhb:langapi.obj
 0001:00089980       _hb_langDeRegister         0048a980 f   xhb:langapi.obj
 0001:000899b0       _hb_langFind               0048a9b0 f   xhb:langapi.obj
 0001:000899e0       _hb_langSelect             0048a9e0 f   xhb:langapi.obj
 0001:00089a20       _hb_langSelectID           0048aa20 f   xhb:langapi.obj
 0001:00089a50       _hb_langDGetItem           0048aa50 f   xhb:langapi.obj
 0001:00089a80       _hb_langID                 0048aa80 f   xhb:langapi.obj
 0001:00089aa0       _hb_langName               0048aaa0 f   xhb:langapi.obj
 0001:00089b10       _hb_langDGetErrorDesc      0048ab10 f   xhb:langapi.obj
 0001:00089b30       _HB_FUN_HB_LANGSELECT      0048ab30 f   xhb:langapi.obj
 0001:00089b80       _HB_FUN_HB_LANGNAME        0048ab80 f   xhb:langapi.obj
 0001:00089bc0       _HB_FUN_HB_LANGERRMSG      0048abc0 f   xhb:langapi.obj
 0001:00089bf0       _HB_FUN_HB_LANGMESSAGE     0048abf0 f   xhb:langapi.obj
 0001:00089c20       _hb_releaseCPU             0048ac20 f   xhb:idle.obj
 0001:00089c80       _hb_idleState              0048ac80 f   xhb:idle.obj
 0001:00089d50       _hb_idleReset              0048ad50 f   xhb:idle.obj
 0001:00089d80       _hb_idleShutDown           0048ad80 f   xhb:idle.obj
 0001:00089dd0       _hb_idleSleep              0048add0 f   xhb:idle.obj
 0001:00089e40       _HB_FUN_HB_IDLESTATE       0048ae40 f   xhb:idle.obj
 0001:00089e60       _HB_FUN_HB_IDLERESET       0048ae60 f   xhb:idle.obj
 0001:00089e70       _HB_FUN_HB_IDLESLEEP       0048ae70 f   xhb:idle.obj
 0001:00089ea0       _hb_idleAddFunc            0048aea0 f   xhb:idle.obj
 0001:00089f40       _HB_FUN_HB_IDLEADD         0048af40 f   xhb:idle.obj
 0001:00089fa0       _hb_idleDelFunc            0048afa0 f   xhb:idle.obj
 0001:0008a090       _HB_FUN_HB_IDLEDEL         0048b090 f   xhb:idle.obj
 0001:0008a0f0       _HB_FUN_HB_IDLESLEEPMSEC   0048b0f0 f   xhb:idle.obj
 0001:0008a140       _HB_FUN_HB_IDLEWAITNOCPU   0048b140 f   xhb:idle.obj
 0001:0008a180       _hb_backgroundAddFunc      0048b180 f   xhb:bkgtsks.obj
 0001:0008a270       _hb_backgroundRun          0048b270 f   xhb:bkgtsks.obj
 0001:0008a370       _hb_backgroundRunForced    0048b370 f   xhb:bkgtsks.obj
 0001:0008a3c0       _hb_backgroundRunSingle    0048b3c0 f   xhb:bkgtsks.obj
 0001:0008a410       _hb_backgroundReset        0048b410 f   xhb:bkgtsks.obj
 0001:0008a430       _hb_backgroundShutDown     0048b430 f   xhb:bkgtsks.obj
 0001:0008a4a0       _hb_backgroundDelFunc      0048b4a0 f   xhb:bkgtsks.obj
 0001:0008a5e0       _hb_backgroundFind         0048b5e0 f   xhb:bkgtsks.obj
 0001:0008a620       _hb_backgroundActive       0048b620 f   xhb:bkgtsks.obj
 0001:0008a650       _hb_backgroundTime         0048b650 f   xhb:bkgtsks.obj
 0001:0008a680       _HB_FUN_HB_BACKGROUNDRUN   0048b680 f   xhb:bkgtsks.obj
 0001:0008a6c0       _HB_FUN_HB_BACKGROUNDRUNFORCED 0048b6c0 f   xhb:bkgtsks.obj
 0001:0008a6f0       _HB_FUN_HB_BACKGROUNDRESET 0048b6f0 f   xhb:bkgtsks.obj
 0001:0008a700       _HB_FUN_HB_BACKGROUNDADD   0048b700 f   xhb:bkgtsks.obj
 0001:0008a7c0       _HB_FUN_HB_BACKGROUNDDEL   0048b7c0 f   xhb:bkgtsks.obj
 0001:0008a820       _HB_FUN_HB_BACKGROUNDACTIVE 0048b820 f   xhb:bkgtsks.obj
 0001:0008a8a0       _HB_FUN_HB_BACKGROUNDTIME  0048b8a0 f   xhb:bkgtsks.obj
 0001:0008a910       _hb_setkeyInit             0048b910 f   xhb:setkey.obj
 0001:0008a920       _hb_setkeyExit             0048b920 f   xhb:setkey.obj
 0001:0008aae0       _HB_FUN_SETKEY             0048bae0 f   xhb:setkey.obj
 0001:0008abd0       _HB_FUN_HB_SETKEYARRAY     0048bbd0 f   xhb:setkey.obj
 0001:0008ac50       _HB_FUN_HB_SETKEYGET       0048bc50 f   xhb:setkey.obj
 0001:0008acd0       _HB_FUN_HB_SETKEYSAVE      0048bcd0 f   xhb:setkey.obj
 0001:0008ae60       _HB_FUN_HB_SETKEYCHECK     0048be60 f   xhb:setkey.obj
 0001:0008b270       _s_ConsoleHandlerRoutine@4 0048c270 f   xhb:hbserv.obj
 0001:0008b3c0       _HB_FUN_HB_STARTSERVICE    0048c3c0 f   xhb:hbserv.obj
 0001:0008b410       _hb_isService              0048c410 f   xhb:hbserv.obj
 0001:0008b420       _hb_serviceExit            0048c420 f   xhb:hbserv.obj
 0001:0008b440       _HB_FUN_HB_ISSERVICE       0048c440 f   xhb:hbserv.obj
 0001:0008b470       _HB_FUN_HB_SERVICELOOP     0048c470 f   xhb:hbserv.obj
 0001:0008b4b0       _HB_FUN_HB_PUSHSIGNALHANDLER 0048c4b0 f   xhb:hbserv.obj
 0001:0008b590       _HB_FUN_HB_POPSIGNALHANDLER 0048c590 f   xhb:hbserv.obj
 0001:0008b670       _HB_FUN_HB_SIGNALDESC      0048c670 f   xhb:hbserv.obj
 0001:0008b8a0       _HB_FUN_HB_SERVICEGENERATEFAULT 0048c8a0 f   xhb:hbserv.obj
 0001:0008b8c0       _HB_FUN_HB_SERVICEGENERATEFPE 0048c8c0 f   xhb:hbserv.obj
 0001:0008b8e0       _HB_FUN_HB_CODEPAGE_EN     0048c8e0 f   xhb:cdpapi.obj
 0001:0008b8f0       _hb_cdppage                0048c8f0 f   xhb:cdpapi.obj
 0001:0008bbe0       _hb_cdpRegister            0048cbe0 f   xhb:cdpapi.obj
 0001:0008c120       _hb_cdpFind                0048d120 f   xhb:cdpapi.obj
 0001:0008c150       _hb_cdpcharsetFind         0048d150 f   xhb:cdpapi.obj
 0001:0008c1b0       _hb_cdpSelect              0048d1b0 f   xhb:cdpapi.obj
 0001:0008c1d0       _hb_cdpID                  0048d1d0 f   xhb:cdpapi.obj
 0001:0008c1f0       _hb_cdpSelectID            0048d1f0 f   xhb:cdpapi.obj
 0001:0008c220       _hb_cdpTranslate           0048d220 f   xhb:cdpapi.obj
 0001:0008c360       _hb_cdpnTranslate          0048d360 f   xhb:cdpapi.obj
 0001:0008c4b0       _hb_cdpGetU16              0048d4b0 f   xhb:cdpapi.obj
 0001:0008c500       _hb_cdpGetChar             0048d500 f   xhb:cdpapi.obj
 0001:0008c580       _hb_cdpUTF8StringSubstr    0048d580 f   xhb:cdpapi.obj
 0001:0008c670       _hb_cdpUTF8StringPeek      0048d670 f   xhb:cdpapi.obj
 0001:0008c710       _hb_cdpUTF8StringLength    0048d710 f   xhb:cdpapi.obj
 0001:0008c760       _hb_cdpStringInUTF8Length  0048d760 f   xhb:cdpapi.obj
 0001:0008c7a0       _hb_cdpStringInUTF8Length2 0048d7a0 f   xhb:cdpapi.obj
 0001:0008c7f0       _hb_cdpUTF8ToStrn          0048d7f0 f   xhb:cdpapi.obj
 0001:0008c8e0       _hb_cdpGetFromUTF8         0048d8e0 f   xhb:cdpapi.obj
 0001:0008c990       _hb_cdpStrnToUTF8          0048d990 f   xhb:cdpapi.obj
 0001:0008caa0       _hb_cdpStrnToUTF8n         0048daa0 f   xhb:cdpapi.obj
 0001:0008cc00       _hb_cdpStrnToU16           0048dc00 f   xhb:cdpapi.obj
 0001:0008cd00       _hb_cdpnDupLen             0048dd00 f   xhb:cdpapi.obj
 0001:0008cd70       _hb_cdpnDup2Len            0048dd70 f   xhb:cdpapi.obj
 0001:0008cdf0       _hb_cdpDup                 0048ddf0 f   xhb:cdpapi.obj
 0001:0008ce30       _hb_cdpnDup                0048de30 f   xhb:cdpapi.obj
 0001:0008cf50       _hb_cdpnDup2               0048df50 f   xhb:cdpapi.obj
 0001:0008d080       _hb_cdpnDup3               0048e080 f   xhb:cdpapi.obj
 0001:0008d210       _hb_cdpchrcmp              0048e210 f   xhb:cdpapi.obj
 0001:0008d310       _hb_cdpcmp                 0048e310 f   xhb:cdpapi.obj
 0001:0008d6b0       _hb_cdpicmp                0048e6b0 f   xhb:cdpapi.obj
 0001:0008d9e0       _hb_cdpReleaseAll          0048e9e0 f   xhb:cdpapi.obj
 0001:0008dad0       _HB_FUN_HB_CDPSELECT       0048ead0 f   xhb:cdpapi.obj
 0001:0008db20       _HB_FUN_HB_CDPUNIID        0048eb20 f   xhb:cdpapi.obj
 0001:0008db60       _HB_FUN_HB_SETCODEPAGE     0048eb60 f   xhb:cdpapi.obj
 0001:0008db70       _HB_FUN_HB_TRANSLATE       0048eb70 f   xhb:cdpapi.obj
 0001:0008dc60       _HB_FUN_HB_CDPLIST         0048ec60 f   xhb:cdpapi.obj
 0001:0008dcc0       _HB_FUN_HB_STRTOUTF8       0048ecc0 f   xhb:cdpapi.obj
 0001:0008dd90       _HB_FUN_HB_UTF8CHR         0048ed90 f   xhb:cdpapi.obj
 0001:0008de00       _HB_FUN_HB_UTF8TOSTR       0048ee00 f   xhb:cdpapi.obj
 0001:0008df00       _HB_FUN_HB_UTF8SUBSTR      0048ef00 f   xhb:cdpapi.obj
 0001:0008e030       _HB_FUN_HB_UTF8LEFT        0048f030 f   xhb:cdpapi.obj
 0001:0008e0e0       _HB_FUN_HB_UTF8RIGHT       0048f0e0 f   xhb:cdpapi.obj
 0001:0008e1c0       _HB_FUN_HB_UTF8PEEK        0048f1c0 f   xhb:cdpapi.obj
 0001:0008e270       _HB_FUN_HB_UTF8POKE        0048f270 f   xhb:cdpapi.obj
 0001:0008e440       _HB_FUN_HB_UTF8STUFF       0048f440 f   xhb:cdpapi.obj
 0001:0008e5d0       _HB_FUN_HB_UTF8LEN         0048f5d0 f   xhb:cdpapi.obj
 0001:0008e630       _HB_FUN_HB_UTF8STRTRAN     0048f630 f   xhb:cdpapi.obj
 0001:0008e640       _hb_traceInit              0048f640 f   xhb:trace.obj
 0001:0008e6c0       _hb_traceExit              0048f6c0 f   xhb:trace.obj
 0001:0008e6d0       _TraceLog                  0048f6d0 f   xhb:trace.obj
 0001:0008e790       _HB_FUN_HB_TRACESTATE      0048f790 f   xhb:trace.obj
 0001:0008e7e0       _HB_FUN_HB_TRACELEVEL      0048f7e0 f   xhb:trace.obj
 0001:0008e830       _HB_FUN_HB_TRACESTRING     0048f830 f   xhb:trace.obj
 0001:0008e870       _hb_getregex               0048f870 f   xhb:regex.obj
 0001:0008e940       _hb_freeregex              0048f940 f   xhb:regex.obj
 0001:0008e960       _hb_regexCompile           0048f960 f   xhb:regex.obj
 0001:0008e9f0       _hb_regexGet               0048f9f0 f   xhb:regex.obj
 0001:0008eab0       _hb_regexFree              0048fab0 f   xhb:regex.obj
 0001:0008eaf0       _hb_regexMatch             0048faf0 f   xhb:regex.obj
 0001:0008eb60       _hb_regex                  0048fb60 f   xhb:regex.obj
 0001:0008f5f0       _Wild2RegEx                004905f0 f   xhb:regex.obj
 0001:0008f720       _Mask2RegEx                00490720 f   xhb:regex.obj
 0001:0008f7f0       _HB_FUN_HB_ATX             004907f0 f   xhb:regex.obj
 0001:0008faa0       _HB_FUN_WILD2REGEX         00490aa0 f   xhb:regex.obj
 0001:0008fb00       _HB_FUN_HB_REGEX           00490b00 f   xhb:regex.obj
 0001:0008fb20       _HB_FUN_HB_REGEXATX        00490b20 f   xhb:regex.obj
 0001:0008fb40       _HB_FUN_HB_REGEXALL        00490b40 f   xhb:regex.obj
 0001:0008fb60       _HB_FUN_HB_REGEXMATCH      00490b60 f   xhb:regex.obj
 0001:0008fbb0       _HB_FUN_HB_REGEXSPLIT      00490bb0 f   xhb:regex.obj
 0001:0008fbd0       _HB_FUN_HB_REGEXCOMP       00490bd0 f   xhb:regex.obj
 0001:0008fd60       _HB_FUN_HB_PCRE_VERSION    00490d60 f   xhb:regex.obj
 0001:0008fd90       _HB_FUN_HB_ISREGEXSTRING   00490d90 f   xhb:regex.obj
 0001:0008fdf0       _HB_FUN_HB_FORCELINK_PCREPOS 00490df0 f   xhb:regex.obj
 0001:0008fe00       _hb_codeblockNew           00490e00 f   xhb:codebloc.obj
 0001:0008ffa0       _hb_codeblockMacroNew      00490fa0 f   xhb:codebloc.obj
 0001:00090000       _hb_codeblockDelete        00491000 f   xhb:codebloc.obj
 0001:000900d0       _hb_codeblockDeleteGarbage 004910d0 f   xhb:codebloc.obj
 0001:00090190       _hb_codeblockGetVar        00491190 f   xhb:codebloc.obj
 0001:000901e0       _hb_codeblockGetRef        004911e0 f   xhb:codebloc.obj
 0001:000902b0       _hb_macroDelete            004912b0 f   xhb:macro.obj
 0001:00090420       _hb_macroRun               00491420 f   xhb:macro.obj
 0001:00090560       _hb_macroIsIdent           00491560 f   xhb:macro.obj
 0001:00090630       _hb_macroTextSubst         00491630 f   xhb:macro.obj
 0001:000908a0       _hb_macroGetValue          004918a0 f   xhb:macro.obj
 0001:00090a80       _hb_macroSetValue          00491a80 f   xhb:macro.obj
 0001:00090b90       _hb_macroPopAliasedValue   00491b90 f   xhb:macro.obj
 0001:00090bb0       _hb_macroPushAliasedValue  00491bb0 f   xhb:macro.obj
 0001:00090e90       _hb_macroExpandString      00491e90 f   xhb:macro.obj
 0001:00090ed0       _hb_macroCompile           00491ed0 f   xhb:macro.obj
 0001:00090f40       _HB_FUN_HB_MACROCOMPILE    00491f40 f   xhb:macro.obj
 0001:00091060       _hb_macroPushSymbol        00492060 f   xhb:macro.obj
 0001:000911d0       _hb_macroTextValue         004921d0 f   xhb:macro.obj
 0001:00091230       _hb_macroGetType           00492230 f   xhb:macro.obj
 0001:000913f0       _hb_macroSetMacro          004923f0 f   xhb:macro.obj
 0001:00091420       _HB_FUN_HB_SETMACRO        00492420 f   xhb:macro.obj
 0001:000915c0       _hb_compLocalVarGetPos     004925c0 f   xhb:macro.obj
 0001:00091620       _hb_compGenJump            00492620 f   xhb:macro.obj
 0001:00091680       _hb_compGenJumpFalse       00492680 f   xhb:macro.obj
 0001:000916e0       _hb_compGenJumpThere       004926e0 f   xhb:macro.obj
 0001:00091740       _hb_compGenJumpHere        00492740 f   xhb:macro.obj
 0001:00091760       _hb_compGenJumpTrue        00492760 f   xhb:macro.obj
 0001:000917c0       _hb_compMemvarGenPCode     004927c0 f   xhb:macro.obj
 0001:00091830       _hb_compGenPushSymbol      00492830 f   xhb:macro.obj
 0001:00091970       _hb_compGenPushLong        00492970 f   xhb:macro.obj
 0001:00091ac0       _hb_compGenPushDate        00492ac0 f   xhb:macro.obj
 0001:00091b30       _hb_compGenMessage         00492b30 f   xhb:macro.obj
 0001:00091b70       _hb_compGenMessageData     00492b70 f   xhb:macro.obj
 0001:00091bd0       _hb_compGenPopVar          00492bd0 f   xhb:macro.obj
 0001:00091c20       _hb_compGenPopAliasedVar   00492c20 f   xhb:macro.obj
 0001:00091d50       _hb_compGenPushVar         00492d50 f   xhb:macro.obj
 0001:00091da0       _hb_compGenPushVarRef      00492da0 f   xhb:macro.obj
 0001:00091e00       _hb_compGenPushMemVarRef   00492e00 f   xhb:macro.obj
 0001:00091e20       _hb_compGenPushAliasedVar  00492e20 f   xhb:macro.obj
 0001:00091f60       _hb_compGenPushLogical     00492f60 f   xhb:macro.obj
 0001:00091f90       _hb_compGenPushDouble      00492f90 f   xhb:macro.obj
 0001:00091fd0       _hb_compGenPushFunCall     00492fd0 f   xhb:macro.obj
 0001:00092020       _hb_compGenPushString      00493020 f   xhb:macro.obj
 0001:00092060       _hb_compGenPCode1          00493060 f   xhb:macro.obj
 0001:000920b0       _hb_compGenPCode2          004930b0 f   xhb:macro.obj
 0001:00092110       _hb_compGenPCode3          00493110 f   xhb:macro.obj
 0001:00092180       _hb_compGenPCode4          00493180 f   xhb:macro.obj
 0001:00092200       _hb_compGenPCodeN          00493200 f   xhb:macro.obj
 0001:00092260       _hb_macroError             00493260 f   xhb:macro.obj
 0001:00092280       _hb_compCodeBlockStart     00493280 f   xhb:macro.obj
 0001:000922d0       _hb_compCodeBlockEnd       004932d0 f   xhb:macro.obj
 0001:00092390       _hb_tracestate             00493390 f   xhb:hbtrace.obj
 0001:000923c0       _hb_tracelevel             004933c0 f   xhb:hbtrace.obj
 0001:000923f0       _hb_tr_level               004933f0 f   xhb:hbtrace.obj
 0001:000924e0       _hb_tr_trace               004934e0 f   xhb:hbtrace.obj
 0001:00093240       _hb_printf_params          00494240 f   xhb:hbprintf.obj
 0001:000935c0       _hb_vsnprintf              004945c0 f   xhb:hbprintf.obj
 0001:00094a40       _hb_snprintf               00495a40 f   xhb:hbprintf.obj
 0001:00094a70       _hb_dateEncode             00495a70 f   xhb:hbdate.obj
 0001:00094ba0       _hb_dateDecode             00495ba0 f   xhb:hbdate.obj
 0001:00094ce0       _hb_dateStrPut             00495ce0 f   xhb:hbdate.obj
 0001:00094e30       _hb_dateStrGet             00495e30 f   xhb:hbdate.obj
 0001:00094ed0       _hb_dateDecStr             00495ed0 f   xhb:hbdate.obj
 0001:00094f30       _hb_dateEncStr             00495f30 f   xhb:hbdate.obj
 0001:00094f70       _hb_dateFormat             00495f70 f   xhb:hbdate.obj
 0001:00095310       _hb_dateJulianDOW          00496310 f   xhb:hbdate.obj
 0001:00095340       _hb_timeFormat             00496340 f   xhb:hbdate.obj
 0001:00095860       _hb_datetimeFormat         00496860 f   xhb:hbdate.obj
 0001:000958e0       _hb_dateDOW                004968e0 f   xhb:hbdate.obj
 0001:00095980       _hb_dateToday              00496980 f   xhb:hbdate.obj
 0001:000959b0       _hb_dateTimeStr            004969b0 f   xhb:hbdate.obj
 0001:000959f0       _hb_dbaselockEncode        004969f0 f   xhb:hbdate.obj
 0001:00095a40       _hb_timeStampEncode        00496a40 f   xhb:hbdate.obj
 0001:00095aa0       _hb_timeStampDecode        00496aa0 f   xhb:hbdate.obj
 0001:00095bb0       _hb_timeStampStr           00496bb0 f   xhb:hbdate.obj
 0001:00095c10       _hb_dateTimeStampStr       00496c10 f   xhb:hbdate.obj
 0001:00095c90       _hb_dateTimeStampStrGet    00496c90 f   xhb:hbdate.obj
 0001:00095e60       _hb_dateTime               00496e60 f   xhb:hbdate.obj
 0001:00095eb0       _hb_timeEncodeSec          00496eb0 f   xhb:hbdate.obj
 0001:00095f10       _hb_timeEncode             00496f10 f   xhb:hbdate.obj
 0001:00095f80       _hb_timeDecode             00496f80 f   xhb:hbdate.obj
 0001:00096030       _hb_timeDecodeSec          00497030 f   xhb:hbdate.obj
 0001:00096080       _hb_timeStrGet             00497080 f   xhb:hbdate.obj
 0001:000961c0       _hb_datetimeEncode         004971c0 f   xhb:hbdate.obj
 0001:000962f0       _hb_datetimeDecode         004972f0 f   xhb:hbdate.obj
 0001:00096330       _hb_timeEncStr             00497330 f   xhb:hbdate.obj
 0001:000963e0       _hb_timeDecStr             004973e0 f   xhb:hbdate.obj
 0001:00096430       _hb_datetimeEncStr         00497430 f   xhb:hbdate.obj
 0001:00096480       _hb_datetimeDecStr         00497480 f   xhb:hbdate.obj
 0001:000964b0       _hb_datetimePack           004974b0 f   xhb:hbdate.obj
 0001:000964d0       _hb_datetimePackInSec      004974d0 f   xhb:hbdate.obj
 0001:000964f0       _hb_datetimeUnpack         004974f0 f   xhb:hbdate.obj
 0001:00096550       _hb_timeStampUnpackDT      00497550 f   xhb:hbdate.obj
 0001:000965e0       _hb_comp_datetimeEncStr    004975e0 f   xhb:hbdate.obj
 0001:00096610       _hb_comp_datetimeDecStr    00497610 f   xhb:hbdate.obj
 0001:00096650       _hb_comp_datetimeEncode    00497650 f   xhb:hbdate.obj
 0001:00096690       _hb_timeStampGetLocal      00497690 f   xhb:hbdate.obj
 0001:000966f0       _hb_timeStampGet           004976f0 f   xhb:hbdate.obj
 0001:000967b0       _HB_FUN_CLIPPER520         004977b0 f   xhb:harbinit.obj
 0001:000967d0       _HB_FUN_CLIPPER530         004977d0 f   xhb:harbinit.obj
 0001:000967f0       _HB_FUN_CLIPINIT           004977f0 f   xhb:harbinit.obj
 0001:00096810       _HB_FUN___SETHELPK         00497810 f   xhb:harbinit.obj
 0001:00096830       _HB_FUN___BREAKBLOCK       00497830 f   xhb:harbinit.obj
 0001:00096850       _HB_FUN___ERRORBLOCK       00497850 f   xhb:harbinit.obj
 0001:00096870       _HB_FUN___MINIMALERRORHANDLER 00497870 f   xhb:harbinit.obj
 0001:00096890       _HB_FUN_SYSINIT            00497890 f   xhb:harbinit.obj
 0001:00096940       _HB_FUN___OBJHASDATA       00497940 f   xhb:objfunc.obj
 0001:00096960       _HB_FUN___OBJHASMETHOD     00497960 f   xhb:objfunc.obj
 0001:00096980       _HB_FUN___OBJGETMSGLIST    00497980 f   xhb:objfunc.obj
 0001:000969a0       _HB_FUN___OBJGETMSGFULLLIST 004979a0 f   xhb:objfunc.obj
 0001:000969c0       _HB_FUN___OBJGETMETHODLIST 004979c0 f   xhb:objfunc.obj
 0001:000969e0       _HB_FUN___OBJGETVALUELIST  004979e0 f   xhb:objfunc.obj
 0001:00096a00       _HB_FUN___OBJGETVALUEFULLLIST 00497a00 f   xhb:objfunc.obj
 0001:00096a20       _HB_FUN___OBJGETVALUEDIFF  00497a20 f   xhb:objfunc.obj
 0001:00096a40       _HB_FUN___OBJGETDERIVEDDIFF 00497a40 f   xhb:objfunc.obj
 0001:00096a60       _HB_FUN___OBJSETVALUELIST  00497a60 f   xhb:objfunc.obj
 0001:00096a80       _HB_FUN___OBJADDMETHOD     00497a80 f   xhb:objfunc.obj
 0001:00096aa0       _HB_FUN___OBJADDINLINE     00497aa0 f   xhb:objfunc.obj
 0001:00096ac0       _HB_FUN___OBJADDDATA       00497ac0 f   xhb:objfunc.obj
 0001:00096ae0       _HB_FUN___OBJADDACCESSASSIGN 00497ae0 f   xhb:objfunc.obj
 0001:00096b00       _HB_FUN___OBJMODMETHOD     00497b00 f   xhb:objfunc.obj
 0001:00096b20       _HB_FUN___OBJMODINLINE     00497b20 f   xhb:objfunc.obj
 0001:00096b40       _HB_FUN___OBJDELMETHOD     00497b40 f   xhb:objfunc.obj
 0001:00096b60       _HB_FUN___OBJDELINLINE     00497b60 f   xhb:objfunc.obj
 0001:00096b80       _HB_FUN___OBJSETMETHOD     00497b80 f   xhb:objfunc.obj
 0001:00096ba0       _HB_FUN___OBJDELDATA       00497ba0 f   xhb:objfunc.obj
 0001:00096bc0       _HB_FUN___OBJDERIVEDFROM   00497bc0 f   xhb:objfunc.obj
 0001:00096c90       _HB_FUN_HB_BITAND          00497c90 f   xhb:hbbitf.obj
 0001:00096d10       _HB_FUN_HB_BITOR           00497d10 f   xhb:hbbitf.obj
 0001:00096d90       _HB_FUN_HB_BITXOR          00497d90 f   xhb:hbbitf.obj
 0001:00096e10       _HB_FUN_HB_BITNOT          00497e10 f   xhb:hbbitf.obj
 0001:00096e80       _HB_FUN_HB_BITISSET        00497e80 f   xhb:hbbitf.obj
 0001:00096f00       _HB_FUN_HB_BITSET          00497f00 f   xhb:hbbitf.obj
 0001:00096fa0       _HB_FUN_HB_BITRESET        00497fa0 f   xhb:hbbitf.obj
 0001:00097050       _HB_FUN_HB_BITSHIFT        00498050 f   xhb:hbbitf.obj
 0001:000972f0       _HB_FUN_DAYS               004982f0 f   xhb:samples.obj
 0001:00097330       _HB_FUN_ELAPTIME           00498330 f   xhb:samples.obj
 0001:000973a0       _HB_FUN_TSSECS             004983a0 f   xhb:samples.obj
 0001:000973d0       _HB_FUN_TSTRING            004983d0 f   xhb:samples.obj
 0001:000975e0       _hb_fsGetOsHandle          004985e0 f   xhb:filesys.obj
 0001:000975f0       _hb_fsPOpen                004985f0 f   xhb:filesys.obj
 0001:00097610       _hb_fsOpenProcess          00498610 f   xhb:filesys.obj
 0001:00097a60       _hb_fsProcessValue         00498a60 f   xhb:filesys.obj
 0001:00097af0       _hb_fsCloseProcess         00498af0 f   xhb:filesys.obj
 0001:00097b40       _hb_fsOpen                 00498b40 f   xhb:filesys.obj
 0001:00097be0       _hb_fsCreate               00498be0 f   xhb:filesys.obj
 0001:00097c80       _hb_fsCreateEx             00498c80 f   xhb:filesys.obj
 0001:00097d20       _hb_fsClose                00498d20 f   xhb:filesys.obj
 0001:00097d50       _hb_fsSetDevMode           00498d50 f   xhb:filesys.obj
 0001:00097dd0       _hb_fsGetFileTime          00498dd0 f   xhb:filesys.obj
 0001:00097ea0       _hb_fsGetAttr              00498ea0 f   xhb:filesys.obj
 0001:00097f10       _hb_fsSetFileTime          00498f10 f   xhb:filesys.obj
 0001:00098040       _hb_fsSetAttr              00499040 f   xhb:filesys.obj
 0001:000980c0       _hb_fsRead                 004990c0 f   xhb:filesys.obj
 0001:00098130       _hb_fsWrite                00499130 f   xhb:filesys.obj
 0001:000981c0       _hb_fsReadLarge            004991c0 f   xhb:filesys.obj
 0001:00098210       _hb_fsWriteLarge           00499210 f   xhb:filesys.obj
 0001:00098280       _hb_fsReadAt               00499280 f   xhb:filesys.obj
 0001:00098350       _hb_fsWriteAt              00499350 f   xhb:filesys.obj
 0001:00098420       _hb_fsTruncAt              00499420 f   xhb:filesys.obj
 0001:000984c0       _hb_fsCommit               004994c0 f   xhb:filesys.obj
 0001:000984f0       _hb_fsLock                 004994f0 f   xhb:filesys.obj
 0001:00098650       _hb_fsLockLarge            00499650 f   xhb:filesys.obj
 0001:00098810       _hb_fsSeek                 00499810 f   xhb:filesys.obj
 0001:000988a0       _hb_fsSeekLarge            004998a0 f   xhb:filesys.obj
 0001:000989d0       _hb_fsTell                 004999d0 f   xhb:filesys.obj
 0001:000989f0       _hb_fsDelete               004999f0 f   xhb:filesys.obj
 0001:00098a40       _hb_fsRename               00499a40 f   xhb:filesys.obj
 0001:00098ac0       _hb_fsMkDir                00499ac0 f   xhb:filesys.obj
 0001:00098b20       _hb_fsChDir                00499b20 f   xhb:filesys.obj
 0001:00098b70       _hb_fsRmDir                00499b70 f   xhb:filesys.obj
 0001:00098bc0       _hb_fsCurDir               00499bc0 f   xhb:filesys.obj
 0001:00098bf0       _hb_fsCurDirBuff           00499bf0 f   xhb:filesys.obj
 0001:00098d30       _hb_fsChDrv                00499d30 f   xhb:filesys.obj
 0001:00098db0       _hb_fsCurDrv               00499db0 f   xhb:filesys.obj
 0001:00098df0       _hb_fsIsDrv                00499df0 f   xhb:filesys.obj
 0001:00098e50       _hb_fsIsDevice             00499e50 f   xhb:filesys.obj
 0001:00098e90       _hb_fsExtName              00499e90 f   xhb:filesys.obj
 0001:00099020       _hb_fsExtOpen              0049a020 f   xhb:filesys.obj
 0001:00099130       _hb_fsEof                  0049a130 f   xhb:filesys.obj
 0001:00099230       _hb_fsCurDirEx             0049a230 f   xhb:filesys.obj
 0001:00099260       _hb_fsCurDirBuffEx         0049a260 f   xhb:filesys.obj
 0001:00099320       _hb_fsNameConv             0049a320 f   xhb:filesys.obj
 0001:00099630       _HB_FUN_HB_DISABLEWAITLOCKS 0049a630 f   xhb:filesys.obj
 0001:00099690       _HB_FUN_DISABLEWAITLOCKS   0049a690 f   xhb:filesys.obj
 0001:00099700       _hb_fsGetFError            0049a700 f   xhb:fserror.obj
 0001:00099710       _hb_fsError                0049a710 f   xhb:fserror.obj
 0001:00099720       _hb_fsOsError              0049a720 f   xhb:fserror.obj
 0001:00099730       _hb_fsSetFError            0049a730 f   xhb:fserror.obj
 0001:00099750       _hb_fsSetError             0049a750 f   xhb:fserror.obj
 0001:00099770       _hb_fsSetIOError           0049a770 f   xhb:fserror.obj
 0001:000997b0       _HB_FUN_PADR               0049a7b0 f   xhb:padr.obj
 0001:000999f0       _HB_FUN_HB_STRING2POINTER  0049a9f0 f   xhb:str2ptr.obj
 0001:00099aa0       _HB_FUN_TRACELOG           0049aaa0 f   xhb:traceprg.obj
 0001:00099ae0       _HB_FUN_DISPBEGIN          0049aae0 f   xhb:gt.obj
 0001:00099af0       _HB_FUN_DISPEND            0049aaf0 f   xhb:gt.obj
 0001:00099b00       _HB_FUN_DISPCOUNT          0049ab00 f   xhb:gt.obj
 0001:00099b30       _hb_MaxRow                 0049ab30 f   xhb:maxrow.obj
 0001:00099ba0       _hb_MaxCol                 0049aba0 f   xhb:maxrow.obj
 0001:00099c10       _HB_FUN_MAXROW             0049ac10 f   xhb:maxrow.obj
 0001:00099c60       _HB_FUN_MAXCOL             0049ac60 f   xhb:maxrow.obj
 0001:00099d80       _HB_FUN_SAVESCREEN         0049ad80 f   xhb:saverest.obj
 0001:00099e20       _HB_FUN_RESTSCREEN         0049ae20 f   xhb:saverest.obj
 0001:00099ea0       _HB_FUN_PADC               0049aea0 f   xhb:padc.obj
 0001:0009a010       _hb_netname                0049b010 f   xhb:net.obj
 0001:0009a050       _HB_FUN_NETNAME            0049b050 f   xhb:net.obj
 0001:0009a0b0       _HB_FUN_DISKSPACE          0049b0b0 f   xhb:diskspac.obj
 0001:0009a300       _HB_FUN_OS                 0049b300 f   xhb:version.obj
 0001:0009a340       _HB_FUN_HB_COMPILER        0049b340 f   xhb:version.obj
 0001:0009a380       _HB_FUN_VERSION            0049b380 f   xhb:version.obj
 0001:0009a3c0       _HB_FUN_HB_PCODEVER        0049b3c0 f   xhb:version.obj
 0001:0009a400       _HB_FUN_HB_BUILDDATE       0049b400 f   xhb:version.obj
 0001:0009a440       _HB_FUN_HB_BUILDINFO       0049b440 f   xhb:version.obj
 0001:0009a740       _hb_conSetColor            0049b740 f   xhb:setcolor.obj
 0001:0009a770       _HB_FUN_SETCOLOR           0049b770 f   xhb:setcolor.obj
 0001:0009a7a0       _HB_FUN_COLORSELECT        0049b7a0 f   xhb:setcolor.obj
 0001:0009a7d0       _HB_FUN_SETBLINK           0049b7d0 f   xhb:setcolor.obj
 0001:0009a830       _HB_FUN_HB_COLORTON        0049b830 f   xhb:setcolor.obj
 0001:0009a890       _HB_FUN_HB_NTOCOLOR        0049b890 f   xhb:setcolor.obj
 0001:0009a940       _HB_FUN_HB_ERROR_MT        0049b940 f   xhb:errlogmt.obj
 0001:0009a960       _hb_fopen                  0049b960 f   xhb:hbfopen.obj
 0001:0009a9b0       _hb_fsFSize                0049b9b0 f   xhb:fssize.obj
 0001:0009aa80       _HB_FUN_HB_FSIZE           0049ba80 f   xhb:fssize.obj
 0001:0009ab10       _hb_isLegacyDevice         0049bb10 f   xhb:tprinter.obj
 0001:0009ab80       _hb_PrinterExists          0049bb80 f   xhb:tprinter.obj
 0001:0009acb0       _HB_FUN_PRINTEREXISTS      0049bcb0 f   xhb:tprinter.obj
 0001:0009ad00       _hb_GetDefaultPrinter      0049bd00 f   xhb:tprinter.obj
 0001:0009aed0       _HB_FUN_GETDEFAULTPRINTER  0049bed0 f   xhb:tprinter.obj
 0001:0009af30       _hb_SetDefaultPrinter      0049bf30 f   xhb:tprinter.obj
 0001:0009b330       _hb_GetPrinterNameByPort   0049c330 f   xhb:tprinter.obj
 0001:0009b460       _HB_FUN_PRINTERPORTTONAME  0049c460 f   xhb:tprinter.obj
 0001:0009b520       _hb_PrintFileRaw           0049c520 f   xhb:tprinter.obj
 0001:0009b660       _HB_FUN_PRINTFILERAW       0049c660 f   xhb:tprinter.obj
 0001:0009b700       _HB_FUN_GETPRINTERS        0049c700 f   xhb:tprinter.obj
 0001:0009be00       _hb_fsAddSearchPath        0049ce00 f   xhb:hbfsapi.obj
 0001:0009bea0       _hb_fsFreeSearchPath       0049cea0 f   xhb:hbfsapi.obj
 0001:0009bee0       _hb_fsFNameSplit           0049cee0 f   xhb:hbfsapi.obj
 0001:0009c020       _hb_fsFNameMerge           0049d020 f   xhb:hbfsapi.obj
 0001:0009c150       _hb_fsNameExists           0049d150 f   xhb:hbfsapi.obj
 0001:0009c1b0       _hb_fsFileExists           0049d1b0 f   xhb:hbfsapi.obj
 0001:0009c220       _hb_fsDirExists            0049d220 f   xhb:hbfsapi.obj
 0001:0009c290       _hb_fsMaxFilesError        0049d290 f   xhb:hbfsapi.obj
 0001:0009c4f0       _hb_fsCreateTemp           0049d4f0 f   xhb:fstemp.obj
 0001:0009c550       _HB_FUN_HB_FTEMPCREATE     0049d550 f   xhb:fstemp.obj
 0001:0009c600       _hb_fsCreateTempEx         0049d600 f   xhb:fstemp.obj
 0001:0009c630       _HB_FUN_HB_FTEMPCREATEEX   0049d630 f   xhb:fstemp.obj
 0001:0009c6f0       _hb_fsTempDir              0049d6f0 f   xhb:fstemp.obj
 0001:0009c7a0       _HB_FUN_HB_DIRTEMP         0049d7a0 f   xhb:fstemp.obj
 0001:0009c7f0       _hb_fsFile                 0049d7f0 f   xhb:file.obj
 0001:0009c8d0       _hb_fsIsDirectory          0049d8d0 f   xhb:file.obj
 0001:0009c980       _hb_conSetCursor           0049d980 f   xhb:setcurs.obj
 0001:0009ca00       _hb_inkey                  0049da00 f   xhb:inkeyapi.obj
 0001:0009ca40       _hb_inkeyPut               0049da40 f   xhb:inkeyapi.obj
 0001:0009ca70       _hb_inkeyLast              0049da70 f   xhb:inkeyapi.obj
 0001:0009caa0       _hb_inkeyNext              0049daa0 f   xhb:inkeyapi.obj
 0001:0009cad0       _hb_inkeyPoll              0049dad0 f   xhb:inkeyapi.obj
 0001:0009caf0       _hb_inkeySetLast           0049daf0 f   xhb:inkeyapi.obj
 0001:0009cb20       _hb_inkeySetText           0049db20 f   xhb:inkeyapi.obj
 0001:0009cb50       _hb_inkeyReset             0049db50 f   xhb:inkeyapi.obj
 0001:0009cb70       _hb_inkeySetCancelKeys     0049db70 f   xhb:inkeyapi.obj
 0001:0009cb80       _hb_strEmpty               0049db80 f   xhb:strings.obj
 0001:0009cbc0       _hb_spFile                 0049dbc0 f   xhb:spfiles.obj
 0001:0009ccd0       _hb_spFileExists           0049dcd0 f   xhb:spfiles.obj
 0001:0009cde0       _hb_spOpen                 0049dde0 f   xhb:spfiles.obj
 0001:0009ce30       _hb_spCreate               0049de30 f   xhb:spfiles.obj
 0001:0009ce90       _hb_spCreateEx             0049de90 f   xhb:spfiles.obj
 0001:0009cef0       _hb_getenv                 0049def0 f   xhb:hbgete.obj
 0001:0009cf30       _hb_setenv                 0049df30 f   xhb:hbgete.obj
 0001:0009d030       _hb_verCPU                 0049e030 f   xhb:hbver.obj
 0001:0009d0a0       _hb_verHostCPU             0049e0a0 f   xhb:hbver.obj
 0001:0009d0c0       _hb_verHostBitWidth        0049e0c0 f   xhb:hbver.obj
 0001:0009d0e0       _hb_verPlatformMacro       0049e0e0 f   xhb:hbver.obj
 0001:0009d0f0       _hb_verPlatform            0049e0f0 f   xhb:hbver.obj
 0001:0009d330       _hb_iswinnt                0049e330 f   xhb:hbver.obj
 0001:0009d390       _hb_iswince                0049e390 f   xhb:hbver.obj
 0001:0009d3a0       _hb_verCompiler            0049e3a0 f   xhb:hbver.obj
 0001:0009d4b0       _hb_verHarbour             0049e4b0 f   xhb:hbver.obj
 0001:0009d4f0       _hb_verPCode               0049e4f0 f   xhb:hbver.obj
 0001:0009d540       _hb_verBuildInfo           0049e540 f   xhb:hbver.obj
 0001:0009e040       _hb_builddate              0049f040 f   xhb:hbver.obj
 0001:0009e080       _hb_credits                0049f080 f   xhb:hbver.obj
 0001:0009e090       _GetOldesFile              0049f090 f   xhb:hbffind.obj
 0001:0009e190       _hb_fsAttrFromRaw          0049f190 f   xhb:hbffind.obj
 0001:0009e250       _hb_fsAttrToRaw            0049f250 f   xhb:hbffind.obj
 0001:0009e310       _hb_fsAttrEncode           0049f310 f   xhb:hbffind.obj
 0001:0009e3e0       _hb_fsAttrDecode           0049f3e0 f   xhb:hbffind.obj
 0001:0009e710       _hb_fsFindFirst            0049f710 f   xhb:hbffind.obj
 0001:0009e980       _hb_fsFindNext             0049f980 f   xhb:hbffind.obj
 0001:0009ea00       _hb_fsFindClose            0049fa00 f   xhb:hbffind.obj
 0001:0009ea60       _hb_hextonum               0049fa60 f   xhb:hbhex2n.obj
 0001:0009eb40       _HB_FUN_NUMTOHEX           0049fb40 f   xhb:hbhex2n.obj
 0001:0009ecd0       _HB_FUN_HEXTONUM           0049fcd0 f   xhb:hbhex2n.obj
 0001:0009ed40       _HB_FUN_STRTOHEX           0049fd40 f   xhb:hbhex2n.obj
 0001:0009eed0       _HB_FUN_HEXTOSTR           0049fed0 f   xhb:hbhex2n.obj
 0001:0009f040       _HB_FUN_SCALAROBJECT       004a0040 f   xhb:tscalar.obj
 0001:0009f0c0       _HB_FUN__ARRAY             004a00c0 f   xhb:tscalar.obj
 0001:0009f1e0       _HB_FUN__HASH              004a01e0 f   xhb:tscalar.obj
 0001:0009f280       _HB_FUN__BLOCK             004a0280 f   xhb:tscalar.obj
 0001:0009f2a0       _HB_FUN__CHARACTER         004a02a0 f   xhb:tscalar.obj
 0001:0009f2c0       _HB_FUN__DATE              004a02c0 f   xhb:tscalar.obj
 0001:0009f2e0       _HB_FUN__LOGICAL           004a02e0 f   xhb:tscalar.obj
 0001:0009f300       _HB_FUN__NIL               004a0300 f   xhb:tscalar.obj
 0001:0009f320       _HB_FUN__NUMERIC           004a0320 f   xhb:tscalar.obj
 0001:0009f340       _HB_FUN__POINTER           004a0340 f   xhb:tscalar.obj
 0001:0009f360       _HB_FUN_UNREF              004a0360 f   xhb:tscalar.obj
 0001:0009f420       _HB_FUN_OS_NETREGOK        004a0420 f   xhb:winos.obj
 0001:0009f440       _HB_FUN_OS_NETVREDIROK     004a0440 f   xhb:winos.obj
 0001:0009f480       _HB_FUN_OS_ISWINNT         004a0480 f   xhb:winos.obj
 0001:0009f4d0       _HB_FUN_OS_ISWIN9X         004a04d0 f   xhb:winos.obj
 0001:0009f520       _HB_FUN_OS_ISWIN95         004a0520 f   xhb:winos.obj
 0001:0009f570       _HB_FUN_OS_ISWIN98         004a0570 f   xhb:winos.obj
 0001:0009f5c0       _HB_FUN_OS_ISWINME         004a05c0 f   xhb:winos.obj
 0001:0009f610       _HB_FUN_OS_ISWINNT351      004a0610 f   xhb:winos.obj
 0001:0009f660       _HB_FUN_OS_ISWINNT4        004a0660 f   xhb:winos.obj
 0001:0009f6b0       _HB_FUN_OS_ISWIN2000       004a06b0 f   xhb:winos.obj
 0001:0009f700       _HB_FUN_OS_ISWINXP         004a0700 f   xhb:winos.obj
 0001:0009f750       _HB_FUN_OS_ISWIN2003       004a0750 f   xhb:winos.obj
 0001:0009f7a0       _HB_FUN_OS_ISWINVISTA      004a07a0 f   xhb:winos.obj
 0001:0009f7f0       _HB_FUN_OS_ISWIN7          004a07f0 f   xhb:winos.obj
 0001:0009f840       _HB_FUN_OS_ISWIN8          004a0840 f   xhb:winos.obj
 0001:0009f890       _HB_FUN_OS_ISWIN81         004a0890 f   xhb:winos.obj
 0001:0009f8e0       _HB_FUN_OS_ISWTSCLIENT     004a08e0 f   xhb:winos.obj
 0001:0009f940       _HB_FUN_OS_ISWIN2000_OR_LATER 004a0940 f   xhb:winos.obj
 0001:0009f990       _HB_FUN_OS_ISWINXP_OR_LATER 004a0990 f   xhb:winos.obj
 0001:0009f9e0       _HB_FUN_OS_ISWINVISTA_OR_LATER 004a09e0 f   xhb:winos.obj
 0001:0009fa30       _HB_FUN_OS_VERSIONINFO     004a0a30 f   xhb:winos.obj
 0001:0009fae0       _HB_FUN_OS_ISUSERANADMIN   004a0ae0 f   xhb:winos.obj
 0001:000a0530       _HB_FUN_HBXML_NODE_UNLINK  004a1530 f   xhb:hbxml.obj
 0001:000a0660       _HB_FUN_HBXML_NODE_INSERT_BEFORE 004a1660 f   xhb:hbxml.obj
 0001:000a0740       _HB_FUN_HBXML_NODE_INSERT_AFTER 004a1740 f   xhb:hbxml.obj
 0001:000a0830       _HB_FUN_HBXML_NODE_INSERT_BELOW 004a1830 f   xhb:hbxml.obj
 0001:000a0950       _HB_FUN_HBXML_NODE_ADD_BELOW 004a1950 f   xhb:hbxml.obj
 0001:000a0a90       _HB_FUN_HBXML_NODE_CLONE   004a1a90 f   xhb:hbxml.obj
 0001:000a0b70       _HB_FUN_HBXML_NODE_CLONE_TREE 004a1b70 f   xhb:hbxml.obj
 0001:000a2d60       _HB_FUN_HBXML_DATAREAD     004a3d60 f   xhb:hbxml.obj
 0001:000a2ee0       _HB_FUN_HB_XMLERRORDESC    004a3ee0 f   xhb:hbxml.obj
 0001:000a2f50       _HB_FUN_HBXML_NODE_TO_STRING 004a3f50 f   xhb:hbxml.obj
 0001:000a3020       _HB_FUN_HBXML_NODE_WRITE   004a4020 f   xhb:hbxml.obj
 0001:000a3130       _HB_FUN_STUFF              004a4130 f   xhb:stuff.obj
 0001:000a32b0       _HB_FUN_SETPOS             004a42b0 f   xhb:setpos.obj
 0001:000a3300       _HB_FUN_ROW                004a4300 f   xhb:setpos.obj
 0001:000a3330       _HB_FUN_COL                004a4330 f   xhb:setpos.obj
 0001:000a33b0       _HB_FUN_MEMVARBLOCK        004a43b0 f   xhb:memvarbl.obj
 0001:000a33d0       _HB_FUN_ISALPHA            004a43d0 f   xhb:is.obj
 0001:000a3490       _HB_FUN_ISDIGIT            004a4490 f   xhb:is.obj
 0001:000a34e0       _HB_FUN_ISUPPER            004a44e0 f   xhb:is.obj
 0001:000a3580       _HB_FUN_ISLOWER            004a4580 f   xhb:is.obj
 0001:000a3620       _HB_FUN_ISALNUM            004a4620 f   xhb:is.obj
 0001:000a3690       _HB_FUN_ISCNTRL            004a4690 f   xhb:is.obj
 0001:000a36f0       _HB_FUN_ISGRAPH            004a46f0 f   xhb:is.obj
 0001:000a3750       _HB_FUN_ISPRINT            004a4750 f   xhb:is.obj
 0001:000a37b0       _HB_FUN_ISPUNCT            004a47b0 f   xhb:is.obj
 0001:000a3810       _HB_FUN_ISSPACE            004a4810 f   xhb:is.obj
 0001:000a3870       _HB_FUN_ISXDIGIT           004a4870 f   xhb:is.obj
 0001:000a38d0       _HB_FUN_ISASCII            004a48d0 f   xhb:is.obj
 0001:000a3920       _HB_FUN_HB_COLORINDEX      004a4920 f   xhb:colorind.obj
 0001:000a3a00       _HB_FUN_PADL               004a4a00 f   xhb:padl.obj
 0001:000a3b40       _HB_FUN_INKEY              004a4b40 f   xhb:inkey.obj
 0001:000a3cc0       _HB_FUN_SETINKEYBEFOREBLOCK 004a4cc0 f   xhb:inkey.obj
 0001:000a3d30       _HB_FUN_SETINKEYAFTERBLOCK 004a4d30 f   xhb:inkey.obj
 0001:000a3da0       _HB_FUN___KEYBOARD         004a4da0 f   xhb:inkey.obj
 0001:000a3ef0       _HB_FUN_HB_KEYPUT          004a4ef0 f   xhb:inkey.obj
 0001:000a3fd0       _HB_FUN_NEXTKEY            004a4fd0 f   xhb:inkey.obj
 0001:000a4020       _HB_FUN_LASTKEY            004a5020 f   xhb:inkey.obj
 0001:000a4070       _HB_FUN_HB_SETLASTKEY      004a5070 f   xhb:inkey.obj
 0001:000a40b0       _HB_FUN_STRDEL             004a50b0 f   xhb:strdel.obj
 0001:000a4200       _hb_gtInit                 004a5200 f   xhb:gtapi.obj
 0001:000a42b0       _hb_gtExit                 004a52b0 f   xhb:gtapi.obj
 0001:000a4310       _hb_gtReadKey              004a5310 f   xhb:gtapi.obj
 0001:000a4340       _hb_gtBox                  004a5340 f   xhb:gtapi.obj
 0001:000a43b0       _hb_gtBoxD                 004a53b0 f   xhb:gtapi.obj
 0001:000a4420       _hb_gtBoxS                 004a5420 f   xhb:gtapi.obj
 0001:000a4490       _hb_gtDrawBox              004a5490 f   xhb:gtapi.obj
 0001:000a44f0       _hb_gtColorSelect          004a54f0 f   xhb:gtapi.obj
 0001:000a4520       _hb_gtDispBegin            004a5520 f   xhb:gtapi.obj
 0001:000a4550       _hb_gtDispCount            004a5550 f   xhb:gtapi.obj
 0001:000a4580       _hb_gtDispEnd              004a5580 f   xhb:gtapi.obj
 0001:000a45b0       _hb_gtPreExt               004a55b0 f   xhb:gtapi.obj
 0001:000a45e0       _hb_gtPostExt              004a55e0 f   xhb:gtapi.obj
 0001:000a4610       _hb_gtGetColorStr          004a5610 f   xhb:gtapi.obj
 0001:000a4640       _hb_gtColorToN             004a5640 f   xhb:gtapi.obj
 0001:000a4670       _hb_gtColorsToString       004a5670 f   xhb:gtapi.obj
 0001:000a46b0       _hb_gtSetColorStr          004a56b0 f   xhb:gtapi.obj
 0001:000a46e0       _hb_gtGetCursor            004a56e0 f   xhb:gtapi.obj
 0001:000a4720       _hb_gtSetCursor            004a5720 f   xhb:gtapi.obj
 0001:000a4760       _hb_gtGetPos               004a5760 f   xhb:gtapi.obj
 0001:000a47c0       _hb_gtSetPos               004a57c0 f   xhb:gtapi.obj
 0001:000a4800       _hb_gtMaxCol               004a5800 f   xhb:gtapi.obj
 0001:000a4830       _hb_gtMaxRow               004a5830 f   xhb:gtapi.obj
 0001:000a4860       _hb_gtScrDim               004a5860 f   xhb:gtapi.obj
 0001:000a48c0       _hb_gtSetSnowFlag          004a58c0 f   xhb:gtapi.obj
 0001:000a48f0       _hb_gtRectSize             004a58f0 f   xhb:gtapi.obj
 0001:000a4940       _hb_gtIsColor              004a5940 f   xhb:gtapi.obj
 0001:000a4970       _hb_gtRepChar              004a5970 f   xhb:gtapi.obj
 0001:000a49d0       _hb_gtSave                 004a59d0 f   xhb:gtapi.obj
 0001:000a4a10       _hb_gtRest                 004a5a10 f   xhb:gtapi.obj
 0001:000a4a60       _hb_gtGetChar              004a5a60 f   xhb:gtapi.obj
 0001:000a4ab0       _hb_gtPutChar              004a5ab0 f   xhb:gtapi.obj
 0001:000a4b00       _hb_gtBeginWrite           004a5b00 f   xhb:gtapi.obj
 0001:000a4b10       _hb_gtEndWrite             004a5b10 f   xhb:gtapi.obj
 0001:000a4b40       _hb_gtGetBlink             004a5b40 f   xhb:gtapi.obj
 0001:000a4b80       _hb_gtSetBlink             004a5b80 f   xhb:gtapi.obj
 0001:000a4bb0       _hb_gtSetMode              004a5bb0 f   xhb:gtapi.obj
 0001:000a4bf0       _hb_gtPutText              004a5bf0 f   xhb:gtapi.obj
 0001:000a4c50       _hb_gtWriteAt              004a5c50 f   xhb:gtapi.obj
 0001:000a4c90       _hb_gtWrite                004a5c90 f   xhb:gtapi.obj
 0001:000a4cd0       _hb_gtWriteCon             004a5cd0 f   xhb:gtapi.obj
 0001:000a4d10       _hb_gtScroll               004a5d10 f   xhb:gtapi.obj
 0001:000a4d90       _hb_gtScrollUp             004a5d90 f   xhb:gtapi.obj
 0001:000a4de0       _hb_gtDrawShadow           004a5de0 f   xhb:gtapi.obj
 0001:000a4e30       _hb_gtTone                 004a5e30 f   xhb:gtapi.obj
 0001:000a4e70       _hb_gtVersion              004a5e70 f   xhb:gtapi.obj
 0001:000a4ea0       _hb_gtSetAttribute         004a5ea0 f   xhb:gtapi.obj
 0001:000a4ef0       _hb_gtSuspend              004a5ef0 f   xhb:gtapi.obj
 0001:000a4f20       _hb_gtResume               004a5f20 f   xhb:gtapi.obj
 0001:000a4f50       _hb_gtOutStd               004a5f50 f   xhb:gtapi.obj
 0001:000a4f90       _hb_gtOutErr               004a5f90 f   xhb:gtapi.obj
 0001:000a4fd0       _hb_gtSetDispCP            004a5fd0 f   xhb:gtapi.obj
 0001:000a5010       _hb_gtSetKeyCP             004a6010 f   xhb:gtapi.obj
 0001:000a5050       _hb_gtInfo                 004a6050 f   xhb:gtapi.obj
 0001:000a5090       _hb_gtAlert                004a6090 f   xhb:gtapi.obj
 0001:000a50e0       _hb_gtSetFlag              004a60e0 f   xhb:gtapi.obj
 0001:000a5110       _hb_gtGetCurrColor         004a6110 f   xhb:gtapi.obj
 0001:000a5140       _hb_gtGetClearColor        004a6140 f   xhb:gtapi.obj
 0001:000a5170       _hb_gtSetClearColor        004a6170 f   xhb:gtapi.obj
 0001:000a51a0       _hb_gtGetClearChar         004a61a0 f   xhb:gtapi.obj
 0001:000a51d0       _hb_gtSetClearChar         004a61d0 f   xhb:gtapi.obj
 0001:000a5200       _hb_gtGetScrChar           004a6200 f   xhb:gtapi.obj
 0001:000a5240       _hb_gtPutScrChar           004a6240 f   xhb:gtapi.obj
 0001:000a5290       _hb_gtFlush                004a6290 f   xhb:gtapi.obj
 0001:000a52c0       _hb_gtGetPosEx             004a62c0 f   xhb:gtapi.obj
 0001:000a5300       _hb_gtScrollEx             004a6300 f   xhb:gtapi.obj
 0001:000a5390       _hb_gtBoxEx                004a6390 f   xhb:gtapi.obj
 0001:000a5400       _hb_gtGfxPrimitive         004a6400 f   xhb:gtapi.obj
 0001:000a5450       _hb_gtGfxText              004a6450 f   xhb:gtapi.obj
 0001:000a54a0       _hb_conXSaveRestRelease    004a64a0 f   xhb:xsavescr.obj
 0001:000a54c0       _HB_FUN___XSAVESCREEN      004a64c0 f   xhb:xsavescr.obj
 0001:000a5550       _HB_FUN___XRESTSCREEN      004a6550 f   xhb:xsavescr.obj
 0001:000a55c0       _hb_threadSleep            004a65c0 f   xhb:thread.obj
 0001:000a55e0       _HB_FUN_THREADSLEEP        004a65e0 f   xhb:thread.obj
 0001:000a5650       _HB_FUN_SECONDSSLEEP       004a6650 f   xhb:thread.obj
 0001:000a56c0       _HB_FUN_THREADINSPECT      004a66c0 f   xhb:thread.obj
 0001:000a56d0       _HB_FUN_THREADINSPECTEND   004a66d0 f   xhb:thread.obj
 0001:000a56e0       _HB_FUN_THREADISINSPECTOR  004a66e0 f   xhb:thread.obj
 0001:000a5700       _HB_FUN_HB_MUTEXCREATE     004a6700 f   xhb:thread.obj
 0001:000a5710       _HB_FUN_HB_MUTEXLOCK       004a6710 f   xhb:thread.obj
 0001:000a5720       _HB_FUN_HB_MUTEXTIMEOUTLOCK 004a6720 f   xhb:thread.obj
 0001:000a5730       _HB_FUN_HB_MUTEXTRYLOCK    004a6730 f   xhb:thread.obj
 0001:000a5740       _HB_FUN_HB_MUTEXUNLOCK     004a6740 f   xhb:thread.obj
 0001:000a5750       _HB_FUN_STARTTHREAD        004a6750 f   xhb:thread.obj
 0001:000a5760       _HB_FUN_JOINTHREAD         004a6760 f   xhb:thread.obj
 0001:000a5770       _HB_FUN_KILLTHREAD         004a6770 f   xhb:thread.obj
 0001:000a5780       _HB_FUN_STOPTHREAD         004a6780 f   xhb:thread.obj
 0001:000a5790       _HB_FUN_ISVALIDTHREAD      004a6790 f   xhb:thread.obj
 0001:000a57b0       _hb_service_hbstartservice 004a67b0 f   xhb:thread.obj
 0001:000a57c0       _hb_service_ConsoleHandlerRoutineDestroyStack 004a67c0 f   xhb:thread.obj
 0001:000a57d0       _hb_service_ConsoleHandlerRoutineInit 004a67d0 f   xhb:thread.obj
 0001:000a57e0       _hb_service_threadCancel   004a67e0 f   xhb:thread.obj
 0001:000a5800       _hb_service_signalHandlerQuit 004a6800 f   xhb:thread.obj
 0001:000a5820       _hb_rdd_wacore_rddWaInit   004a6820 f   xhb:thread.obj
 0001:000a5830       _hb_rdd_wacore_hb_atomic_inc 004a6830 f   xhb:thread.obj
 0001:000a5840       _hb_rdd_wacore_Lock        004a6840 f   xhb:thread.obj
 0001:000a5850       _hb_rdd_wacore_Unlock      004a6850 f   xhb:thread.obj
 0001:000a5860       _hb_rdd_wacore_LockInit    004a6860 f   xhb:thread.obj
 0001:000a5870       _hb_rdd_wacore_LockDestroy 004a6870 f   xhb:thread.obj
 0001:000a5880       _hb_rdd_wacore_rddWaShutDown 004a6880 f   xhb:thread.obj
 0001:000a5890       _hb_rdd_wacore_rddChangeSetWorkareasShared 004a6890 f   xhb:thread.obj
 0001:000a58a0       _hb_rddGetAliasNameTH      004a68a0 f   xhb:thread.obj
 0001:000a58c0       _hb_get_Area_Handle_From_Sym 004a68c0 f   xhb:thread.obj
 0001:000a58f0       _hb_get_Area_Handle_From_Name 004a68f0 f   xhb:thread.obj
 0001:000a5920       _hb_get_Area_Sym           004a6920 f   xhb:thread.obj
 0001:000a5940       _hb_idle_msec_default      004a6940 f   xhb:thread.obj
 0001:000a5950       _hb_idle_releaseCPU        004a6950 f   xhb:thread.obj
 0001:000a5970       _hb_stack_lock             004a6970 f   xhb:thread.obj
 0001:000a5980       _hb_stack_unlock           004a6980 f   xhb:thread.obj
 0001:000a5990       _hb_console_safe_lock      004a6990 f   xhb:thread.obj
 0001:000a59a0       _hb_console_safe_unlock    004a69a0 f   xhb:thread.obj
 0001:000a59b0       _hb_threadLockInit         004a69b0 f   xhb:thread.obj
 0001:000a59c0       _hb_threadLock             004a69c0 f   xhb:thread.obj
 0001:000a59d0       _hb_threadUnLock           004a69d0 f   xhb:thread.obj
 0001:000a59e0       _hb_threadLockDestroy      004a69e0 f   xhb:thread.obj
 0001:000a59f0       _HB_FUN_HB_GETCURRENTPROCESSID 004a69f0 f   xhb:thread.obj
 0001:000a5a10       _hb_dateCMonth             004a6a10 f   xhb:datec.obj
 0001:000a5a40       _hb_dateCDOW               004a6a40 f   xhb:datec.obj
 0001:000a5a70       _HB_FUN_CMONTH             004a6a70 f   xhb:datec.obj
 0001:000a5af0       _HB_FUN_CDOW               004a6af0 f   xhb:datec.obj
 0001:000a5bb0       _hb_mathResetError         004a6bb0 f   xhb:math.obj
 0001:000a5c30       _hb_mathGetLastError       004a6c30 f   xhb:math.obj
 0001:000a5cb0       _hb_mathIsMathErr          004a6cb0 f   xhb:math.obj
 0001:000a5cc0       _hb_mathSetErrMode         004a6cc0 f   xhb:math.obj
 0001:000a5ce0       _hb_mathGetErrMode         004a6ce0 f   xhb:math.obj
 0001:000a5cf0       _HB_FUN_MATHERRMODE        004a6cf0 f   xhb:math.obj
 0001:000a5d50       _hb_matherr                004a6d50 f   xhb:math.obj
 0001:000a5f30       _hb_mathSetHandler         004a6f30 f   xhb:math.obj
 0001:000a5f50       _hb_mathGetHandler         004a6f50 f   xhb:math.obj
 0001:000a6210       _HB_FUN_MATHERRORBLOCK     004a7210 f   xhb:math.obj
 0001:000a62c0       _HB_FUN_EXP                004a72c0 f   xhb:math.obj
 0001:000a63e0       _HB_FUN_LOG                004a73e0 f   xhb:math.obj
 0001:000a6540       _HB_FUN_SQRT               004a7540 f   xhb:math.obj
 0001:000a6650       _HB_FUN_RIGHT              004a7650 f   xhb:right.obj
 0001:000a6710       _HB_FUN_SETPOSBS           004a7710 f   xhb:setposbs.obj
 0001:000a6740       _HB_FUN_WORD               004a7740 f   xhb:word.obj
 0001:000a67a0       _HB_FUN_HB_LANG_EN         004a77a0 f   xhb:msgen.obj
 0001:000a67c0       _regerror                  004a77c0 f   xhb:pcreposix.obj
 0001:000a6890       _regfree                   004a7890 f   xhb:pcreposix.obj
 0001:000a68b0       _regcomp                   004a78b0 f   xhb:pcreposix.obj
 0001:000a6990       _regexec                   004a7990 f   xhb:pcreposix.obj
 0001:000a6bb0       _HB_PCREPOS_LIBRARY        004a7bb0 f   xhb:pcreposix.obj
 0001:000a6be0       _pcre_version              004a7be0 f   xhb:pcre_version.obj
 0001:000a6c20       _hb_macro_yyparse          004a7c20 f   xhb:macroy.obj
 0001:000a94b0       _hb_macroYYParse           004aa4b0 f   xhb:macroy.obj
 0001:000a9500       _hb_macro_yyerror          004aa500 f   xhb:macroy.obj
 0001:000a9510       _hb_compReservedName       004aa510 f   xhb:reserved.obj
 0001:000a9590       _HB_FUN___XHELP            004aa590 f   xhb:xhelp.obj
 0001:000a9600       _HB_FUN_HB_FNAMESPLIT      004aa600 f   xhb:fnsplit.obj
 0001:000a9680       _HB_FUN_HB_FNAMEMERGE      004aa680 f   xhb:fnsplit.obj
 0001:000a9700       _hb_gt_Base                004aa700 f   xhb:hbgtcore.obj
 0001:000addb0       _hb_gt_FindDefault         004aedb0 f   xhb:hbgtcore.obj
 0001:000ade20       _hb_gtSetDefault           004aee20 f   xhb:hbgtcore.obj
 0001:000ade50       _hb_gtRegister             004aee50 f   xhb:hbgtcore.obj
 0001:000ade90       _hb_gtLoad                 004aee90 f   xhb:hbgtcore.obj
 0001:000ae000       _hb_gtUnLoad               004af000 f   xhb:hbgtcore.obj
 0001:000ae050       _hb_gtStartupInit          004af050 f   xhb:hbgtcore.obj
 0001:000ae170       _HB_FUN_HB_GT_NUL          004af170 f   xhb:hbgtcore.obj
 0001:000ae180       _HB_FUN_HB_GT_NUL_DEFAULT  004af180 f   xhb:hbgtcore.obj
 0001:000ae190       _hb_ParseLine              004af190 f   xhb:fparse.obj
 0001:000ae4e0       _file_read                 004af4e0 f   xhb:fparse.obj
 0001:000ae580       _HB_FUN_FPARSE             004af580 f   xhb:fparse.obj
 0001:000ae730       _HB_FUN_FPARSEEX           004af730 f   xhb:fparse.obj
 0001:000ae890       _HB_FUN_FWORDCOUNT         004af890 f   xhb:fparse.obj
 0001:000ae9c0       _HB_FUN_FLINECOUNT         004af9c0 f   xhb:fparse.obj
 0001:000aea80       _HB_FUN_FCHARCOUNT         004afa80 f   xhb:fparse.obj
 0001:000aeb60       _HB_FUN_FPARSELINE         004afb60 f   xhb:fparse.obj
 0001:000aec00       _HB_FUN_HB_RANDOM          004afc00 f   xhb:hbrandom.obj
 0001:000aece0       _HB_FUN_HB_RANDOMINT       004afce0 f   xhb:hbrandom.obj
 0001:000aee40       _HB_FUN_HB_RANDOMSEED      004afe40 f   xhb:hbrandom.obj
 0001:000aee80       _hb_random_num             004afe80 f   xhb:hbrandom.obj
 0001:000aef30       _HB_FUN_QUERYREGISTRY      004aff30 f   xhb:winreg.obj
 0001:000aef50       _HB_FUN_GETREGISTRY        004aff50 f   xhb:winreg.obj
 0001:000aef70       _HB_FUN_SETREGISTRY        004aff70 f   xhb:winreg.obj
 0001:000af320       _HB_FUN_GETENV             004b0320 f   xhb:gete.obj
 0001:000af400       _HB_FUN_GETE               004b0400 f   xhb:gete.obj
 0001:000af410       _HB_FUN_SETENV             004b0410 f   xhb:gete.obj
 0001:000af470       _HB_FUN_SETE               004b0470 f   xhb:gete.obj
 0001:000af670       _hb_fsDirectory            004b0670 f   xhb:direct.obj
 0001:000af990       _hb_fsDirectoryRecursive   004b0990 f   xhb:direct.obj
 0001:000afad0       _HB_FUN_DIRECTORYRECURSE   004b0ad0 f   xhb:direct.obj
 0001:000afd70       _HB_FUN_DIRECTORY          004b0d70 f   xhb:direct.obj
 0001:000b1110       __pcre_find_bracket        004b2110 f   xhb:pcre_compile.obj
 0001:000b7be0       _pcre_compile              004b8be0 f   xhb:pcre_compile.obj
 0001:000b7c10       _pcre_compile2             004b8c10 f   xhb:pcre_compile.obj
 0001:000b8790       _pcre_fullinfo             004b9790 f   xhb:pcre_fullinfo.obj
 0001:000c5070       _pcre_exec                 004c6070 f   xhb:pcre_exec.obj
 0001:000c6820       _hb_compFlexNew            004c7820 f   xhb:macroslx.obj
 0001:000c6850       _hb_compFlexDelete         004c7850 f   xhb:macroslx.obj
 0001:000c68d0       _hb_macro_yylex            004c78d0 f   xhb:macroslx.obj
 0001:000c6b10       _SimpLex_GetNextToken      004c7b10 f   xhb:macroslx.obj
 0001:000c7a30       _SimpLex_CheckToken        004c8a30 f   xhb:macroslx.obj
 0001:000c7ee0       _SimpLex_CheckWords        004c8ee0 f   xhb:macroslx.obj
 0001:000c8530       _yy_bytes_buffer           004c9530 f   xhb:macroslx.obj
 0001:000c8820       _cleansPair                004c9820 f   xhb:macroslx.obj
 0001:000c8840       _hb_compExprNew            004c9840 f   xhb:expropt1.obj
 0001:000c8870       _hb_compExprClear          004c9870 f   xhb:expropt1.obj
 0001:000c8890       _hb_compExprClone          004c9890 f   xhb:expropt1.obj
 0001:000c88a0       _hb_compExprDescription    004c98a0 f   xhb:expropt1.obj
 0001:000c88c0       _hb_compExprType           004c98c0 f   xhb:expropt1.obj
 0001:000c88d0       _hb_compExprNewExtBlock    004c98d0 f   xhb:expropt1.obj
 0001:000c88f0       _hb_compExprNewEmpty       004c98f0 f   xhb:expropt1.obj
 0001:000c8900       _hb_compExprNewDouble      004c9900 f   xhb:expropt1.obj
 0001:000c8930       _hb_compExprNewLong        004c9930 f   xhb:expropt1.obj
 0001:000c8970       _hb_compExprNewDate        004c9970 f   xhb:expropt1.obj
 0001:000c89d0       _hb_compExprNewDateTime    004c99d0 f   xhb:expropt1.obj
 0001:000c8c10       _hb_compExprNewDateTimeVal 004c9c10 f   xhb:expropt1.obj
 0001:000c8c40       _hb_compExprNewString      004c9c40 f   xhb:expropt1.obj
 0001:000c8c70       _hb_compExprNewCodeBlock   004c9c70 f   xhb:expropt1.obj
 0001:000c8ca0       _hb_compExprNewLogical     004c9ca0 f   xhb:expropt1.obj
 0001:000c8cc0       _hb_compExprNewNil         004c9cc0 f   xhb:expropt1.obj
 0001:000c8ce0       _hb_compExprNewSelf        004c9ce0 f   xhb:expropt1.obj
 0001:000c8d00       _hb_compExprNewVarRef      004c9d00 f   xhb:expropt1.obj
 0001:000c8d30       _hb_compExprNewMemVarRef   004c9d30 f   xhb:expropt1.obj
 0001:000c8d60       _hb_compExprNewFunRef      004c9d60 f   xhb:expropt1.obj
 0001:000c8d90       _hb_compExprNewArray       004c9d90 f   xhb:expropt1.obj
 0001:000c8e00       _hb_compExprNewMacro       004c9e00 f   xhb:expropt1.obj
 0001:000c8e60       _hb_compExprNewAliasVar    004c9e60 f   xhb:expropt1.obj
 0001:000c8eb0       _hb_compExprNewAliasExpr   004c9eb0 f   xhb:expropt1.obj
 0001:000c8ef0       _hb_compExprNewSend        004c9ef0 f   xhb:expropt1.obj
 0001:000c8f30       _hb_compExprNewSendExp     004c9f30 f   xhb:expropt1.obj
 0001:000c8f90       _hb_compExprNewWithSend    004c9f90 f   xhb:expropt1.obj
 0001:000c8fc0       _hb_compExprNewWithSendExp 004c9fc0 f   xhb:expropt1.obj
 0001:000c9020       _hb_compExprNewMethodCall  004ca020 f   xhb:expropt1.obj
 0001:000c9040       _hb_compExprNewWithMethodCall 004ca040 f   xhb:expropt1.obj
 0001:000c9060       _hb_compExprNewList        004ca060 f   xhb:expropt1.obj
 0001:000c9080       _hb_compExprNewArgList     004ca080 f   xhb:expropt1.obj
 0001:000c90a0       _hb_compExprAddListExpr    004ca0a0 f   xhb:expropt1.obj
 0001:000c90e0       _hb_compExprNewVar         004ca0e0 f   xhb:expropt1.obj
 0001:000c9100       _hb_compExprNewRTVar       004ca100 f   xhb:expropt1.obj
 0001:000c9130       _hb_compExprNewAlias       004ca130 f   xhb:expropt1.obj
 0001:000c9150       _hb_compExprNewEqual       004ca150 f   xhb:expropt1.obj
 0001:000c9170       _hb_compExprNewPlus        004ca170 f   xhb:expropt1.obj
 0001:000c9190       _hb_compExprNewMinus       004ca190 f   xhb:expropt1.obj
 0001:000c91b0       _hb_compExprNewMult        004ca1b0 f   xhb:expropt1.obj
 0001:000c91d0       _hb_compExprNewDiv         004ca1d0 f   xhb:expropt1.obj
 0001:000c91f0       _hb_compExprNewMod         004ca1f0 f   xhb:expropt1.obj
 0001:000c9210       _hb_compExprNewPower       004ca210 f   xhb:expropt1.obj
 0001:000c9230       _hb_compExprNewBitAnd      004ca230 f   xhb:expropt1.obj
 0001:000c9250       _hb_compExprNewBitOr       004ca250 f   xhb:expropt1.obj
 0001:000c9270       _hb_compExprNewBitXOr      004ca270 f   xhb:expropt1.obj
 0001:000c9290       _hb_compExprNewBitShiftR   004ca290 f   xhb:expropt1.obj
 0001:000c92b0       _hb_compExprNewBitShiftL   004ca2b0 f   xhb:expropt1.obj
 0001:000c92d0       _hb_compExprNewPostInc     004ca2d0 f   xhb:expropt1.obj
 0001:000c92f0       _hb_compExprNewPostDec     004ca2f0 f   xhb:expropt1.obj
 0001:000c9310       _hb_compExprNewPreInc      004ca310 f   xhb:expropt1.obj
 0001:000c9330       _hb_compExprNewPreDec      004ca330 f   xhb:expropt1.obj
 0001:000c9350       _hb_compExprNewPlusEq      004ca350 f   xhb:expropt1.obj
 0001:000c9370       _hb_compExprNewMinusEq     004ca370 f   xhb:expropt1.obj
 0001:000c9390       _hb_compExprNewMultEq      004ca390 f   xhb:expropt1.obj
 0001:000c93b0       _hb_compExprNewDivEq       004ca3b0 f   xhb:expropt1.obj
 0001:000c93d0       _hb_compExprNewModEq       004ca3d0 f   xhb:expropt1.obj
 0001:000c93f0       _hb_compExprNewExpEq       004ca3f0 f   xhb:expropt1.obj
 0001:000c9410       _hb_compExprNewAnd         004ca410 f   xhb:expropt1.obj
 0001:000c9430       _hb_compExprNewOr          004ca430 f   xhb:expropt1.obj
 0001:000c9450       _hb_compExprNewMatch       004ca450 f   xhb:expropt1.obj
 0001:000c9470       _hb_compExprNewLike        004ca470 f   xhb:expropt1.obj
 0001:000c9490       _hb_compExprNewNot         004ca490 f   xhb:expropt1.obj
 0001:000c94e0       _hb_compExprNewEQ          004ca4e0 f   xhb:expropt1.obj
 0001:000c9500       _hb_compExprNewLT          004ca500 f   xhb:expropt1.obj
 0001:000c9520       _hb_compExprNewGT          004ca520 f   xhb:expropt1.obj
 0001:000c9540       _hb_compExprNewLE          004ca540 f   xhb:expropt1.obj
 0001:000c9560       _hb_compExprNewGE          004ca560 f   xhb:expropt1.obj
 0001:000c9580       _hb_compExprNewNE          004ca580 f   xhb:expropt1.obj
 0001:000c95a0       _hb_compExprNewIN          004ca5a0 f   xhb:expropt1.obj
 0001:000c95c0       _hb_compExprNewNegate      004ca5c0 f   xhb:expropt1.obj
 0001:000c96b0       _hb_compExprAssign         004ca6b0 f   xhb:expropt1.obj
 0001:000c96d0       _hb_compExprListLen        004ca6d0 f   xhb:expropt1.obj
 0001:000c9720       _hb_compExprDelete         004ca720 f   xhb:macroa.obj
 0001:000c9760       _hb_compExprFree           004ca760 f   xhb:macroa.obj
 0001:000c9780       _hb_compExprErrorType      004ca780 f   xhb:macroa.obj
 0001:000c97d0       _hb_compExprCBVarAdd       004ca7d0 f   xhb:macroa.obj
 0001:000c9870       _hb_compExprNewIIF         004ca870 f   xhb:macroa.obj
 0001:000c9880       _hb_compExprNewFunCall     004ca880 f   xhb:macroa.obj
 0001:000c9900       _hb_compExprNewFunName     004ca900 f   xhb:macroa.obj
 0001:000c9920       _hb_compExprNewNamespaceFunRef 004ca920 f   xhb:macroa.obj
 0001:000c9950       _hb_compExprNewNamespaceFunName 004ca950 f   xhb:macroa.obj
 0001:000c9970       _hb_compExprNewArrayAt     004ca970 f   xhb:macroa.obj
 0001:000c99a0       _hb_compExprSetOperand     004ca9a0 f   xhb:macroa.obj
 0001:000c9a80       _hb_compExprGenStatement   004caa80 f   xhb:macroa.obj
 0001:000c9ac0       _hb_compExprGenPush        004caac0 f   xhb:macroa.obj
 0001:000c9b00       _hb_compExprGenPop         004cab00 f   xhb:macroa.obj
 0001:000c9b20       _hb_compExprCBVarDel       004cab20 f   xhb:macroa.obj
 0001:000c9b50       _hb_gt_setClipboard        004cab50 f   xhb:gtclip.obj
 0001:000c9bc0       _hb_gt_getClipboard        004cabc0 f   xhb:gtclip.obj
 0001:000c9c30       _hb_gt_w32_setClipboard    004cac30 f   xhb:gtclip.obj
 0001:000c9d40       _hb_gt_w32_getClipboard    004cad40 f   xhb:gtclip.obj
 0001:000c9ee0       _HB_FUN_HB_GTSYS           004caee0 f   xhb:gtsys.obj
 0001:000c9ef0       _HB_FUN_BIN2U              004caef0 f   xhb:binnumx.obj
 0001:000c9fe0       _HB_FUN_W2BIN              004cafe0 f   xhb:binnumx.obj
 0001:000ca040       _HB_FUN_U2BIN              004cb040 f   xhb:binnumx.obj
 0001:000ca0c0       __pcre_is_newline          004cb0c0 f   xhb:pcre_newline.obj
 0001:000ca300       __pcre_was_newline         004cb300 f   xhb:pcre_newline.obj
 0001:000ca560       __pcre_ord2utf             004cb560 f   xhb:pcre_ord2utf8.obj
 0001:000ca5c0       __pcre_valid_utf           004cb5c0 f   xhb:pcre_valid_utf8.obj
 0001:000caa80       __pcre_xclass              004cba80 f   xhb:pcre_xclass.obj
 0001:000cafd0       _hb_compExprDelOperator    004cbfd0 f   xhb:macroc.obj
 0001:000cb010       _hb_compExprPushOperEq     004cc010 f   xhb:macroc.obj
 0001:000cb220       _hb_compExprUseOperEq      004cc220 f   xhb:macroc.obj
 0001:000cb450       _hb_compExprPushPreOp      004cc450 f   xhb:macroc.obj
 0001:000cb600       _hb_compExprPushPostOp     004cc600 f   xhb:macroc.obj
 0001:000cb6b0       _hb_compExprUsePreOp       004cc6b0 f   xhb:macroc.obj
 0001:000cb740       _hb_compExprUseAliasMacro  004cc740 f   xhb:macroc.obj
 0001:000cb890       _hb_compExprReduceList     004cc890 f   xhb:macroc.obj
 0001:000cb8f0       _hb_compExprCheckMacroVar  004cc8f0 f   xhb:macroc.obj
 0001:000cb960       _hb_compExprReducePlusStrings 004cc960 f   xhb:macroc.obj
 0001:000d2140       _hb_mbtowccpy              004d3140 f   xhb:hbwince.obj
 0001:000d2160       _hb_mbtowcset              004d3160 f   xhb:hbwince.obj
 0001:000d2180       _hb_mbtowc                 004d3180 f   xhb:hbwince.obj
 0001:000d21d0       _hb_wctomb                 004d31d0 f   xhb:hbwince.obj
 0001:000d2220       _hb_mbntowc                004d3220 f   xhb:hbwince.obj
 0001:000d2270       _hb_wcntomb                004d3270 f   xhb:hbwince.obj
 0001:000d22c0       _hb_wctombget              004d32c0 f   xhb:hbwince.obj
 0001:000d22e0       _hb_compExprReduceMod      004d32e0 f   xhb:expropt2.obj
 0001:000d23b0       _hb_compExprReduceDiv      004d33b0 f   xhb:expropt2.obj
 0001:000d25b0       _hb_compExprReduceMult     004d35b0 f   xhb:expropt2.obj
 0001:000d2760       _hb_compExprReduceMinus    004d3760 f   xhb:expropt2.obj
 0001:000d2930       _hb_compExprReducePlus     004d3930 f   xhb:expropt2.obj
 0001:000d2b70       _hb_compExprReduceIN       004d3b70 f   xhb:expropt2.obj
 0001:000d2c20       _hb_compExprReduceNE       004d3c20 f   xhb:expropt2.obj
 0001:000d2e80       _hb_compExprReduceGE       004d3e80 f   xhb:expropt2.obj
 0001:000d3060       _hb_compExprReduceLE       004d4060 f   xhb:expropt2.obj
 0001:000d3240       _hb_compExprReduceGT       004d4240 f   xhb:expropt2.obj
 0001:000d3420       _hb_compExprReduceLT       004d4420 f   xhb:expropt2.obj
 0001:000d3600       _hb_compExprReduceEQ       004d4600 f   xhb:expropt2.obj
 0001:000d3890       _hb_compExprReduceAnd      004d4890 f   xhb:expropt2.obj
 0001:000d3a00       _hb_compExprReduceOr       004d4a00 f   xhb:expropt2.obj
 0001:000d3b70       _hb_compExprReduceBitOp    004d4b70 f   xhb:expropt2.obj
 0001:000d3d70       _hb_compExprReduceIIF      004d4d70 f   xhb:expropt2.obj
 0001:000d3e60       _hb_compExprListStrip      004d4e60 f   xhb:expropt2.obj
 0001:000d3f00       _hb_compExprListStripSingle 004d4f00 f   xhb:expropt2.obj
 0001:000d3f60       _hb_compExprReduceUPPER    004d4f60 f   xhb:expropt2.obj
 0001:000d4110       _HB_FUN_AFIELDS            004d5110 f   DBF:dbcmd.obj
 0001:000d44ea       _HB_FUN_ALIAS              004d54ea f   DBF:dbcmd.obj
 0001:000d4560       _HB_FUN_DBEVAL             004d5560 f   DBF:dbcmd.obj
 0001:000d4814       _HB_FUN_DBF                004d5814 f   DBF:dbcmd.obj
 0001:000d4876       _HB_FUN_BOF                004d5876 f   DBF:dbcmd.obj
 0001:000d48d9       _HB_FUN_DBAPPEND           004d58d9 f   DBF:dbcmd.obj
 0001:000d4994       _HB_FUN_DBCLEARFILTER      004d5994 f   DBF:dbcmd.obj
 0001:000d49d9       _HB_FUN_DBCLOSEALL         004d59d9 f   DBF:dbcmd.obj
 0001:000d49e3       _HB_FUN_DBCLOSEAREA        004d59e3 f   DBF:dbcmd.obj
 0001:000d49ed       _HB_FUN_DBCOMMIT           004d59ed f   DBF:dbcmd.obj
 0001:000d4a2f       _HB_FUN_DBCOMMITALL        004d5a2f f   DBF:dbcmd.obj
 0001:000d4a39       _HB_FUN_DBCREATE           004d5a39 f   DBF:dbcmd.obj
 0001:000d4ca1       _HB_FUN_HB_DBCREATETEMP    004d5ca1 f   DBF:dbcmd.obj
 0001:000d4e4e       _HB_FUN___DBOPENSDF        004d5e4e f   DBF:dbcmd.obj
 0001:000d50ea       _HB_FUN_DBDELETE           004d60ea f   DBF:dbcmd.obj
 0001:000d512c       _HB_FUN_DBFILTER           004d612c f   DBF:dbcmd.obj
 0001:000d518d       _HB_FUN_DBGOBOTTOM         004d618d f   DBF:dbcmd.obj
 0001:000d51cf       _HB_FUN_DBGOTO             004d61cf f   DBF:dbcmd.obj
 0001:000d524c       _HB_FUN_DBGOTOP            004d624c f   DBF:dbcmd.obj
 0001:000d528e       _HB_FUN___DBLOCATE         004d628e f   DBF:dbcmd.obj
 0001:000d5374       _HB_FUN___DBSETLOCATE      004d6374 f   DBF:dbcmd.obj
 0001:000d53d9       _HB_FUN___DBCONTINUE       004d63d9 f   DBF:dbcmd.obj
 0001:000d5420       _HB_FUN___DBPACK           004d6420 f   DBF:dbcmd.obj
 0001:000d5552       _HB_FUN_DBRECALL           004d6552 f   DBF:dbcmd.obj
 0001:000d5594       _HB_FUN_DBRLOCK            004d6594 f   DBF:dbcmd.obj
 0001:000d567c       _HB_FUN_DBRLOCKLIST        004d667c f   DBF:dbcmd.obj
 0001:000d56e0       _HB_FUN_DBRUNLOCK          004d66e0 f   DBF:dbcmd.obj
 0001:000d5736       _HB_FUN_DBSEEK             004d6736 f   DBF:dbcmd.obj
 0001:000d58b8       _HB_FUN_DBSELECTAREA       004d68b8 f   DBF:dbcmd.obj
 0001:000d593b       _HB_FUN___DBSETFOUND       004d693b f   DBF:dbcmd.obj
 0001:000d5989       _HB_FUN_DBSETFILTER        004d6989 f   DBF:dbcmd.obj
 0001:000d5a6f       _HB_FUN_DBSKIP             004d6a6f f   DBF:dbcmd.obj
 0001:000d5ae3       _HB_FUN_DBSTRUCT           004d6ae3 f   DBF:dbcmd.obj
 0001:000d5b2c       _HB_FUN_DBTABLEEXT         004d6b2c f   DBF:dbcmd.obj
 0001:000d5be9       _HB_FUN_DBUNLOCK           004d6be9 f   DBF:dbcmd.obj
 0001:000d5c30       _HB_FUN_DBUNLOCKALL        004d6c30 f   DBF:dbcmd.obj
 0001:000d5c3a       _HB_FUN_DBUSEAREA          004d6c3a f   DBF:dbcmd.obj
 0001:000d5d6b       _HB_FUN___DBZAP            004d6d6b f   DBF:dbcmd.obj
 0001:000d5db0       _HB_FUN_ISMARKED           004d6db0 f   DBF:dbcmd.obj
 0001:000d5e19       _HB_FUN_LKSYS              004d6e19 f   DBF:dbcmd.obj
 0001:000d5ea2       _HB_FUN_DELETED            004d6ea2 f   DBF:dbcmd.obj
 0001:000d5f06       _HB_FUN_EOF                004d6f06 f   DBF:dbcmd.obj
 0001:000d5f6a       _HB_FUN_FCOUNT             004d6f6a f   DBF:dbcmd.obj
 0001:000d5fb1       _HB_FUN_FIELDGET           004d6fb1 f   DBF:dbcmd.obj
 0001:000d6016       _HB_FUN_FIELDNAME          004d7016 f   DBF:dbcmd.obj
 0001:000d60e5       _HB_FUN_FIELDPOS           004d70e5 f   DBF:dbcmd.obj
 0001:000d615a       _HB_FUN_FIELDPUT           004d715a f   DBF:dbcmd.obj
 0001:000d61eb       _HB_FUN_FLOCK              004d71eb f   DBF:dbcmd.obj
 0001:000d6277       _HB_FUN_FOUND              004d7277 f   DBF:dbcmd.obj
 0001:000d62db       _HB_FUN_HEADER             004d72db f   DBF:dbcmd.obj
 0001:000d633c       _HB_FUN_INDEXORD           004d733c f   DBF:dbcmd.obj
 0001:000d63d0       _HB_FUN_LASTREC            004d73d0 f   DBF:dbcmd.obj
 0001:000d6421       _HB_FUN_LOCK               004d7421 f   DBF:dbcmd.obj
 0001:000d64ad       _HB_FUN_LUPDATE            004d74ad f   DBF:dbcmd.obj
 0001:000d650e       _HB_FUN_NETERR             004d750e f   DBF:dbcmd.obj
 0001:000d657c       _HB_FUN_ORDBAGEXT          004d757c f   DBF:dbcmd.obj
 0001:000d6649       _HB_FUN_ORDBAGNAME         004d7649 f   DBF:dbcmd.obj
 0001:000d676b       _HB_FUN_ORDCONDSET         004d776b f   DBF:dbcmd.obj
 0001:000d6c12       _HB_FUN_ORDCREATE          004d7c12 f   DBF:dbcmd.obj
 0001:000d6ddf       _HB_FUN_ORDBAGCLEAR        004d7ddf f   DBF:dbcmd.obj
 0001:000d6e97       _HB_FUN_ORDDESTROY         004d7e97 f   DBF:dbcmd.obj
 0001:000d6f61       _HB_FUN_ORDFOR             004d7f61 f   DBF:dbcmd.obj
 0001:000d70a5       _HB_FUN_ORDKEY             004d80a5 f   DBF:dbcmd.obj
 0001:000d71d9       _HB_FUN_ORDLISTADD         004d81d9 f   DBF:dbcmd.obj
 0001:000d733a       _HB_FUN_ORDLISTCLEAR       004d833a f   DBF:dbcmd.obj
 0001:000d737f       _HB_FUN_ORDLISTREBUILD     004d837f f   DBF:dbcmd.obj
 0001:000d73c4       _HB_FUN_ORDNAME            004d83c4 f   DBF:dbcmd.obj
 0001:000d74ea       _HB_FUN_ORDNUMBER          004d84ea f   DBF:dbcmd.obj
 0001:000d7626       _HB_FUN_ORDSETFOCUS        004d8626 f   DBF:dbcmd.obj
 0001:000d76d9       _HB_FUN_RDDLIST            004d86d9 f   DBF:dbcmd.obj
 0001:000d76fd       _HB_FUN_RDDNAME            004d86fd f   DBF:dbcmd.obj
 0001:000d7758       _HB_FUN_RDDREGISTER        004d8758 f   DBF:dbcmd.obj
 0001:000d77de       _HB_FUN_RECCOUNT           004d87de f   DBF:dbcmd.obj
 0001:000d77e8       _HB_FUN_RECNO              004d87e8 f   DBF:dbcmd.obj
 0001:000d7834       _HB_FUN_RECSIZE            004d8834 f   DBF:dbcmd.obj
 0001:000d7895       _HB_FUN_RLOCK              004d8895 f   DBF:dbcmd.obj
 0001:000d7921       _HB_FUN_SELECT             004d8921 f   DBF:dbcmd.obj
 0001:000d79b5       _HB_FUN_USED               004d89b5 f   DBF:dbcmd.obj
 0001:000d79f8       _HB_FUN_RDDSETDEFAULT      004d89f8 f   DBF:dbcmd.obj
 0001:000d7a63       _HB_FUN_DBSETDRIVER        004d8a63 f   DBF:dbcmd.obj
 0001:000d7ace       _HB_FUN_ORDSCOPE           004d8ace f   DBF:dbcmd.obj
 0001:000d7c7d       _HB_FUN_DBRELATION         004d8c7d f   DBF:dbcmd.obj
 0001:000d7d11       _HB_FUN_DBRSELECT          004d8d11 f   DBF:dbcmd.obj
 0001:000d7d69       _HB_FUN_DBCLEARRELATION    004d8d69 f   DBF:dbcmd.obj
 0001:000d7d96       _HB_FUN_DBSETRELATION      004d8d96 f   DBF:dbcmd.obj
 0001:000d7fac       _HB_FUN___DBARRANGE        004d8fac f   DBF:dbcmd.obj
 0001:000d8482       _HB_FUN___DBTRANS          004d9482 f   DBF:dbcmd.obj
 0001:000d86b8       _HB_FUN___DBAPP            004d96b8 f   DBF:dbcmd.obj
 0001:000d8854       _HB_FUN___DBCOPY           004d9854 f   DBF:dbcmd.obj
 0001:000d8ab0       _HB_FUN_HB_RDDGETTEMPALIAS 004d9ab0 f   DBF:dbcmd.obj
 0001:000d8ae2       _HB_FUN___RDDGETTEMPALIAS  004d9ae2 f   DBF:dbcmd.obj
 0001:000d8aec       _HB_FUN_HB_RDDINFO         004d9aec f   DBF:dbcmd.obj
 0001:000d8bce       _HB_FUN_HB_DBDROP          004d9bce f   DBF:dbcmd.obj
 0001:000d8cba       _HB_FUN_HB_DBEXISTS        004d9cba f   DBF:dbcmd.obj
 0001:000d8da6       _HB_FUN_HB_DBRENAME        004d9da6 f   DBF:dbcmd.obj
 0001:000d8edf       _HB_FUN_HB_FIELDLEN        004d9edf f   DBF:dbcmd.obj
 0001:000d8f70       _HB_FUN_HB_FIELDDEC        004d9f70 f   DBF:dbcmd.obj
 0001:000d9001       _HB_FUN_HB_FIELDTYPE       004da001 f   DBF:dbcmd.obj
 0001:000d9092       _HB_FUN_HB_FIELDFLAG       004da092 f   DBF:dbcmd.obj
 0001:000d9123       _HB_FUN_HB_FIELDSTEP       004da123 f   DBF:dbcmd.obj
 0001:000d91c0       _HB_FUN_ORDKEYCOUNT        004da1c0 f   DBF:dbcmd53.obj
 0001:000d9275       _HB_FUN_ORDKEYNO           004da275 f   DBF:dbcmd53.obj
 0001:000d9331       _HB_FUN_ORDKEYGOTO         004da331 f   DBF:dbcmd53.obj
 0001:000d93b6       _HB_FUN_ORDKEYRELPOS       004da3b6 f   DBF:dbcmd53.obj
 0001:000d943e       _HB_FUN_ORDFINDREC         004da43e f   DBF:dbcmd53.obj
 0001:000d9506       _HB_FUN_ORDSKIPRAW         004da506 f   DBF:dbcmd53.obj
 0001:000d957a       _HB_FUN_ORDSKIPUNIQUE      004da57a f   DBF:dbcmd53.obj
 0001:000d9603       _HB_FUN_ORDKEYVAL          004da603 f   DBF:dbcmd53.obj
 0001:000d9677       _HB_FUN_ORDKEYADD          004da677 f   DBF:dbcmd53.obj
 0001:000d973f       _HB_FUN_ORDKEYDEL          004da73f f   DBF:dbcmd53.obj
 0001:000d9807       _HB_FUN_ORDDESCEND         004da807 f   DBF:dbcmd53.obj
 0001:000d98ce       _HB_FUN_ORDISUNIQUE        004da8ce f   DBF:dbcmd53.obj
 0001:000d9995       _HB_FUN_ORDCUSTOM          004da995 f   DBF:dbcmd53.obj
 0001:000d9a5c       _HB_FUN_ORDCOUNT           004daa5c f   DBF:dbcmd53.obj
 0001:000d9ae4       _HB_FUN_DBINFO             004daae4 f   DBF:dbcmd53.obj
 0001:000d9b98       _HB_FUN_DBORDERINFO        004dab98 f   DBF:dbcmd53.obj
 0001:000d9cb8       _HB_FUN_DBFIELDINFO        004dacb8 f   DBF:dbcmd53.obj
 0001:000d9daf       _HB_FUN_DBRECORDINFO       004dadaf f   DBF:dbcmd53.obj
 0001:000d9e77       _HB_FUN_DBFILEGET          004dae77 f   DBF:dbcmd53.obj
 0001:000d9fd2       _HB_FUN_BLOBEXPORT         004dafd2 f   DBF:dbcmd53.obj
 0001:000d9fdc       _HB_FUN_DBFILEPUT          004dafdc f   DBF:dbcmd53.obj
 0001:000da11a       _HB_FUN_BLOBIMPORT         004db11a f   DBF:dbcmd53.obj
 0001:000dcea8       _hb_rddGetNode             004ddea8 f   DBF:workarea.obj
 0001:000dcee4       _hb_rddList                004ddee4 f   DBF:workarea.obj
 0001:000dcfd6       _hb_rddFindNode            004ddfd6 f   DBF:workarea.obj
 0001:000dd062       _hb_rddShutDown            004de062 f   DBF:workarea.obj
 0001:000dd114       _hb_rddRegister            004de114 f   DBF:workarea.obj
 0001:000dd301       _hb_rddInheritEx           004de301 f   DBF:workarea.obj
 0001:000dd454       _hb_rddInherit             004de454 f   DBF:workarea.obj
 0001:000dd57a       _HB_FUN___RDDPREALLOCATE   004de57a f   DBF:workarea.obj
 0001:000dd5f6       __hb_rddWorkAreaForceLink  004de5f6 f   DBF:workarea.obj
 0001:000dd600       _hb_rddVerifyAliasName     004de600 f   DBF:wafunc.obj
 0001:000dd710       _hb_rddNewAreaNode         004de710 f   DBF:wafunc.obj
 0001:000dd858       _hb_rddGetTempAlias        004de858 f   DBF:wafunc.obj
 0001:000dd8bf       _hb_rddGetAliasName        004de8bf f   DBF:wafunc.obj
 0001:000dd8db       _hb_rddAllocWorkAreaAlias  004de8db f   DBF:wafunc.obj
 0001:000dd9bd       _hb_rddFieldIndex          004de9bd f   DBF:wafunc.obj
 0001:000dda77       _hb_rddFieldExpIndex       004dea77 f   DBF:wafunc.obj
 0001:000ddd24       _hb_rddGetAliasNumber      004ded24 f   DBF:wafunc.obj
 0001:000dde4e       _hb_rddSelectWorkAreaSymbol 004dee4e f   DBF:wafunc.obj
 0001:000ddfc3       _hb_rddSelectWorkAreaAlias 004defc3 f   DBF:wafunc.obj
 0001:000de096       _hb_rddFieldGet            004df096 f   DBF:wafunc.obj
 0001:000de11d       _hb_rddFieldPut            004df11d f   DBF:wafunc.obj
 0001:000de1a4       _hb_rddGetFieldValue       004df1a4 f   DBF:wafunc.obj
 0001:000de25c       _hb_rddPutFieldValue       004df25c f   DBF:wafunc.obj
 0001:000de314       _hb_rddOpenTable           004df314 f   DBF:wafunc.obj
 0001:000de4dd       _hb_rddCreateTable         004df4dd f   DBF:wafunc.obj
 0001:000de6a1       _hb_rddCreateTableTemp     004df6a1 f   DBF:wafunc.obj
 0001:000de8a2       _hb_tblStructure           004df8a2 f   DBF:wafunc.obj
 0001:000de9ba       _hb_dbTransStruct          004df9ba f   DBF:wafunc.obj
 0001:000df0e6       _hb_rddTransRecords        004e00e6 f   DBF:wafunc.obj
 0001:000df4ec       _hb_rddCloseAllParentRelations 004e04ec f   DBF:wafunc.obj
 0001:000df8e5       _hb_rddSelectFirstAvailable 004e08e5 f   DBF:wacore.obj
 0001:000df9c8       _hb_rddInsertAreaNode      004e09c8 f   DBF:wacore.obj
 0001:000dfadb       _hb_rddReleaseCurrentArea  004e0adb f   DBF:wacore.obj
 0001:000dfb70       _hb_rddWaInit              004e0b70 f   DBF:wacore.obj
 0001:000dfc19       _hb_rddChangeSetWorkareasShared 004e0c19 f   DBF:wacore.obj
 0001:000dfc3f       _hb_rddWaShutDown          004e0c3f f   DBF:wacore.obj
 0001:000dfc50       _hb_rddCloseAll            004e0c50 f   DBF:wacore.obj
 0001:000dfe47       _hb_rddFlushAll            004e0e47 f   DBF:wacore.obj
 0001:000dfeda       _hb_rddUnLockAll           004e0eda f   DBF:wacore.obj
 0001:000dff72       _hb_rddIterateWorkAreas    004e0f72 f   DBF:wacore.obj
 0001:000dfff4       _hb_rddGetNetErr           004e0ff4 f   DBF:wacore.obj
 0001:000e0000       _hb_rddSetNetErr           004e1000 f   DBF:wacore.obj
 0001:000e000f       _hb_rddDefaultDrv          004e100f f   DBF:wacore.obj
 0001:000e0114       _hb_rddGetWorkAreaPointer  004e1114 f   DBF:wacore.obj
 0001:000e0175       _hb_rddGetCurrentWorkAreaPointer 004e1175 f   DBF:wacore.obj
 0001:000e0182       _hb_rddGetCurrentWorkAreaNumber 004e1182 f   DBF:wacore.obj
 0001:000e0190       _hb_rddSelectWorkAreaNumber 004e1190 f   DBF:wacore.obj
 0001:000e02f0       _HB_FUN_DBCREATEINDEX      004e12f0 f   DBF:rddord.obj
 0001:000e0310       _HB_FUN_DBSETINDEX         004e1310 f   DBF:rddord.obj
 0001:000e0330       _HB_FUN_DBCLEARINDEX       004e1330 f   DBF:rddord.obj
 0001:000e0350       _HB_FUN_DBREINDEX          004e1350 f   DBF:rddord.obj
 0001:000e0370       _HB_FUN_DBSETORDER         004e1370 f   DBF:rddord.obj
 0001:000e0390       _HB_FUN_INDEXEXT           004e1390 f   DBF:rddord.obj
 0001:000e03b0       _HB_FUN_INDEXKEY           004e13b0 f   DBF:rddord.obj
 0001:000e03d0       _HB_FUN_ORDSETRELATION     004e13d0 f   DBF:rddord.obj
 0001:000e0440       _HB_FUN_RDDSYS             004e1440 f   DBF:rddsys.obj
 0001:000e1d8b       _hb_dbfGetEGcode           004e2d8b f   DBF:dbf1.obj
 0001:000e1e7a       _hb_dbfGetMemoBlock        004e2e7a f   DBF:dbf1.obj
 0001:000e1f34       _hb_dbfPutMemoBlock        004e2f34 f   DBF:dbf1.obj
 0001:000e2017       _hb_dbfGetMemoData         004e3017 f   DBF:dbf1.obj
 0001:000e225e       _hb_dbfSetMemoData         004e325e f   DBF:dbf1.obj
 0001:000e240f       _hb_dbfLockIdxGetData      004e340f f   DBF:dbf1.obj
 0001:000e2504       _hb_dbfLockIdxFile         004e3504 f   DBF:dbf1.obj
 0001:000e914a       _hb_dbfTranslateRec        004ea14a f   DBF:dbf1.obj
 0001:000ec0e5       _HB_FUN__DBF               004ed0e5 f   DBF:dbf1.obj
 0001:000ec0ea       _HB_FUN_DBF_GETFUNCTABLE   004ed0ea f   DBF:dbf1.obj
 0001:000f6bb3       _HB_FUN_DBFDBT             004f7bb3 f   DBF:dbffpt1.obj
 0001:000f6bb8       _HB_FUN_DBFSMT             004f7bb8 f   DBF:dbffpt1.obj
 0001:000f6bbd       _HB_FUN_DBFFPT             004f7bbd f   DBF:dbffpt1.obj
 0001:000f6bc2       _HB_FUN_DBFBLOB            004f7bc2 f   DBF:dbffpt1.obj
 0001:000f6c75       _HB_FUN_DBFFPT_GETFUNCTABLE 004f7c75 f   DBF:dbffpt1.obj
 0001:000f6c87       _HB_FUN_DBFBLOB_GETFUNCTABLE 004f7c87 f   DBF:dbffpt1.obj
 0001:000f6e4b       _hb_sxEnCrypt              004f7e4b f   DBF:sxcrypt.obj
 0001:000f6f15       _hb_sxDeCrypt              004f7f15 f   DBF:sxcrypt.obj
 0001:000f710d       _HB_FUN_SX_ENCRYPT         004f810d f   DBF:sxcrypt.obj
 0001:000f71d6       _HB_FUN_SX_DECRYPT         004f81d6 f   DBF:sxcrypt.obj
 0001:000f72a0       _hb_sxDtoP                 004f82a0 f   DBF:sxdate.obj
 0001:000f7308       _hb_sxPtoD                 004f8308 f   DBF:sxdate.obj
 0001:000f7377       _HB_FUN_SX_DTOP            004f8377 f   DBF:sxdate.obj
 0001:000f73af       _HB_FUN_SX_PTOD            004f83af f   DBF:sxdate.obj
 0001:000f7410       _hb_dbQSortInit            004f8410 f   DBF:hbdbsort.obj
 0001:000f7506       _hb_dbQSortExit            004f8506 f   DBF:hbdbsort.obj
 0001:000f7582       _hb_dbQSortAdvance         004f8582 f   DBF:hbdbsort.obj
 0001:000f7bb9       _hb_dbQSortComplete        004f8bb9 f   DBF:hbdbsort.obj
 0001:00108702       _HB_FUN_DBFNTX             00509702 f   NTX:dbfntx1.obj
 0001:00108707       _HB_FUN_DBFNTX_GETFUNCTABLE 00509707 f   NTX:dbfntx1.obj
 0001:001088d0       _WinMainCRTStartup         005098d0 f   crt:_wincrt0.obj
 0001:00108a60       _vsnprintf                 00509a60 f   crt:vsnprintf.obj
 0001:00108ac0       _memcpy                    00509ac0 f   crt:memcpy.obj
 0001:00108ae0       _strncmp                   00509ae0 f   crt:strncmp.obj
 0001:00108b30       ___ftoll                   00509b30     crt:_ftoll.obj
 0001:00108b68       __except_handler3          00509b68     crt:seh2.obj
 0001:00108c30       __seh_longjmp_unwind@4     00509c30     crt:seh2.obj
 0001:00108c50       __global_unwind2           00509c50     crt:seh1.obj
 0001:00108ca0       __local_unwind2            00509ca0     crt:seh1.obj
 0001:00108cfe       __NLG_Return2              00509cfe     crt:seh1.obj
 0001:00108d20       __abnormal_termination     00509d20     crt:seh1.obj
 0001:00108d50       __NLG_Notify1              00509d50     crt:seh1.obj
 0001:00108d5c       __NLG_Notify               00509d5c     crt:seh1.obj
 0001:00108d6f       __NLG_Dispatch             00509d6f     crt:seh1.obj
 0001:00108da0       _sprintf                   00509da0 f   crt:sprintf.obj
 0001:00108de0       _memcmp                    00509de0 f   crt:memcmp.obj
 0001:001090c0       _malloc                    0050a0c0 f   crt:malloc.obj
 0001:00109450       _free                      0050a450 f   crt:free.obj
 0001:00109830       _strcat                    0050a830 f   crt:strcat.obj
 0001:00109860       _fopen                     0050a860 f   crt:fopen.obj
 0001:00109880       _fwrite                    0050a880 f   crt:fwrite.obj
 0001:001099c0       ___init_closeall           0050a9c0 f   crt:fclose.obj
 0001:001099e0       _fclose                    0050a9e0 f   crt:fclose.obj
 0001:00109ac0       ___stoul                   0050aac0 f   crt:_stoul.obj
 0001:00109ca0       _sscanf                    0050aca0 f   crt:sscanf.obj
 0001:00109cd0       __stricmp                  0050acd0 f   crt:stricmp.obj
 0001:00109d10       __strlwr                   0050ad10 f   crt:strlwr.obj
 0001:00109d50       _strstr                    0050ad50 f   crt:strstr.obj
 0001:00109db0       _strrchr                   0050adb0 f   crt:strrchr.obj
 0001:00109de0       _fseek                     0050ade0 f   crt:fseek.obj
 0001:00109e00       _ftell                     0050ae00 f   crt:ftell.obj
 0001:00109e20       _rewind                    0050ae20 f   crt:rewind.obj
 0001:00109e50       _fread                     0050ae50 f   crt:fread.obj
 0001:00109f30       _exit                      0050af30 f   crt:exit.obj
 0001:00109f80       _memset                    0050af80 f   crt:memset.obj
 0001:00109fb0       ___llmod                   0050afb0     crt:_llmod.obj
 0001:0010a070       _fmod                      0050b070 f   crt:fmod.obj
 0001:0010a210       _pow                       0050b210 f   crt:pow.obj
 0001:0010a7f0       ___llshl                   0050b7f0     crt:_llshl.obj
 0001:0010a830       ___llshr                   0050b830     crt:_llshr.obj
 0001:0010a870       _memmove                   0050b870 f   crt:memmove.obj
 0001:0010a8c0       _modf                      0050b8c0 f   crt:modf.obj
 0001:0010a920       _div                       0050b920 f   crt:div.obj
 0001:0010a950       ___lldiv                   0050b950     crt:_lldiv.obj
 0001:0010aa00       _realloc                   0050ba00 f   crt:realloc.obj
 0001:0010adf0       _strchr                    0050bdf0 f   crt:strchr.obj
 0001:0010ae50       _printf                    0050be50 f   crt:printf.obj
 0001:0010ae90       ___fpclass                 0050be90 f   crt:_fpclass.obj
 0001:0010aeb0       ___llmul                   0050beb0     crt:_llmul.obj
 0001:0010aef0       _wcslen                    0050bef0 f   crt:wcslen.obj
 0001:0010af10       _strerror                  0050bf10 f   crt:strerror.obj
 0001:0010af30       __alloca                   0050bf30     crt:_chkstk.obj
 0001:0010af50       ___chkstk                  0050bf50     crt:_chkstk.obj
 0001:0010af80       _abs                       0050bf80 f   crt:abs.obj
 0001:0010afa0       _remove                    0050bfa0 f   crt:remove.obj
 0001:0010afb0       _strpbrk                   0050bfb0 f   crt:strpbrk.obj
 0001:0010b010       _vfprintf                  0050c010 f   crt:vfprintf.obj
 0001:0010b040       _memchr                    0050c040 f   crt:memchr.obj
 0001:0010b0b0       _fprintf                   0050c0b0 f   crt:fprintf.obj
 0001:0010b0e0       _fflush                    0050c0e0 f   crt:fflush.obj
 0001:0010b1b0       __dup                      0050c1b0 f   crt:dup.obj
 0001:0010b2a0       __close                    0050c2a0 f   crt:close.obj
 0001:0010b370       ___ulldiv                  0050c370     crt:_ulldiv.obj
 0001:0010b3e0       ___ullmod                  0050c3e0     crt:_ullmod.obj
 0001:0010b460       ___fpsign                  0050c460 f   crt:_fpsign.obj
 0001:0010b470       _modfl                     0050c470 f   crt:modfl.obj
 0001:0010b4d0       __setmode                  0050c4d0 f   crt:setmode.obj
 0001:0010b5a0       __getdrive                 0050c5a0 f   crt:getdrive.obj
 0001:0010b5f0       __chdrive                  0050c5f0 f   crt:chdrive.obj
 0001:0010b650       _strncpy                   0050c650 f   crt:strncpy.obj
 0001:0010b690       _fgetc                     0050c690 f   crt:fgetc.obj
 0001:0010b710       _time                      0050c710 f   crt:time.obj
 0001:0010b760       _srand                     0050c760 f   crt:srand.obj
 0001:0010b780       _rand                      0050c780 f   crt:rand.obj
 0001:0010bfc0       _qsort                     0050cfc0 f   crt:qsort.obj
 0001:0010bfe0       _strlen                    0050cfe0 f   crt:strlen.obj
 0001:0010c000       _strcmp                    0050d000 f   crt:strcmp.obj
 0001:0010c040       _sqrt                      0050d040 f   crt:sqrt.obj
 0001:0010c150       _ceil                      0050d150 f   crt:ceil.obj
 0001:0010c1a0       ___getmem                  0050d1a0 f   crt:_getmem.obj
 0001:0010c200       __Exit                     0050d200 f   crt:_exit.obj
 0001:0010c210       ___clockinit               0050d210 f   crt:clock.obj
 0001:0010c220       _clock                     0050d220 f   crt:clock.obj
 0001:0010c260       ___ioinit                  0050d260 f   crt:_ioinit.obj
 0001:0010c4b0       ___ioterm                  0050d4b0 f   crt:_ioinit.obj
 0001:0010c6a0       ___setargv                 0050d6a0 f   crt:_setargv.obj
 0001:0010c740       ___setenvp                 0050d740 f   crt:_setenvp.obj
 0001:0010c7e0       ___wincmdln                0050d7e0 f   crt:_wincmdln.obj
 0001:0010c820       ___xcptfilter              0050d820 f   crt:_xcptfilter.obj
 0001:0010c890       ___printf                  0050d890 f   crt:_printf.obj
 0001:0010cb00       ___fslot                   0050db00 f   crt:_fslot.obj
 0001:0010cb60       ___fopen                   0050db60 f   crt:_fopen.obj
 0001:0010ccb0       ___fwrite                  0050dcb0 f   crt:_fwrite.obj
 0001:0010cdb0       __Atexit                   0050ddb0 f   crt:_atexit.obj
 0001:0010cdf0       ___scanf                   0050ddf0 f   crt:_scanf.obj
 0001:0010d0c0       ___fsetpos                 0050e0c0 f   crt:_fsetpos.obj
 0001:0010d270       __Nnl                      0050e270 f   crt:_fgetpos.obj
 0001:0010d2c0       ___fgetpos                 0050e2c0 f   crt:_fgetpos.obj
 0001:0010d3e0       ___fread                   0050e3e0 f   crt:_fread.obj
 0001:0010d500       ___fptest                  0050e500 f   crt:_fptest.obj
 0001:0010d570       __matherr                  0050e570 f   crt:_matherr.obj
 0001:0010d580       ___feraise                 0050e580 f   crt:_feraise.obj
 0001:0010d5c0       ___fpunscale               0050e5c0 f   crt:_fpunscale.obj
 0001:0010d660       ___fpscale                 0050e660 f   crt:_fpscale.obj
 0001:0010d880       ___fpint                   0050e880 f   crt:_fpint.obj
 0001:0010d9f0       ___exp                     0050e9f0 f   crt:_exp.obj
 0001:0010db50       __Strerror                 0050eb50 f   crt:_strerror.obj
 0001:0010dd00       __unlink                   0050ed00 f   crt:unlink.obj
 0001:0010dd30       __write                    0050ed30 f   crt:write.obj
 0001:0010df50       ___new_osfhnd              0050ef50 f   crt:_osfinfo.obj
 0001:0010e020       ___free_osfhnd             0050f020 f   crt:_osfinfo.obj
 0001:0010e0c0       ___set_osfhnd              0050f0c0 f   crt:_osfinfo.obj
 0001:0010e160       ___get_osfhnd              0050f160 f   crt:_osfinfo.obj
 0001:0010e1b0       ___maposerr                0050f1b0 f   crt:_maperr.obj
 0001:0010e320       ___fpintl                  0050f320 f   crt:_fpintl.obj
 0001:0010e380       _signal                    0050f380 f   crt:signal.obj
 0001:0010e3e0       ___mbtowc                  0050f3e0 f   crt:_mbtowc.obj
 0001:0010e6d0       ___putfield                0050f6d0 f   crt:_putfield.obj
 0001:0010ee30       ___puttxt                  0050fe30 f   crt:_puttxt.obj
 0001:0010f0c0       ____fopen                  005100c0 f   crt:__fopen.obj
 0001:0010f130       _abort                     00510130 f   crt:abort.obj
 0001:0010f150       ___wctob                   00510150 f   crt:_wctob.obj
 0001:0010f1a0       ___getfield                005101a0 f   crt:_getfield.obj
 0001:0010f420       __lseek                    00510420 f   crt:lseek.obj
 0001:0010f4d0       __read                     005104d0 f   crt:read.obj
 0001:0010f810       _feraiseexcept             00510810 f   crt:feraiseexcept.obj
 0001:0010f850       ___fpnorm                  00510850 f   crt:_fpnorm.obj
 0001:0010f980       ___putstr                  00510980 f   crt:_putstr.obj
 0001:0010fae0       ___litob                   00510ae0 f   crt:_litob.obj
 0001:0010fd40       ___fptestl                 00510d40 f   crt:_fptestl.obj
 0001:0010fd60       ___ldtob                   00510d60 f   crt:_ldtob.obj
 0001:00110400       __open                     00511400 f   crt:open.obj
 0001:00110430       __sopen                    00511430 f   crt:open.obj
 0001:001107f0       _raise                     005117f0 f   crt:raise.obj
 0001:00110940       ___wctomb                  00511940 f   crt:_wctomb.obj
 0001:00110c10       ___getstr                  00511c10 f   crt:_getstr.obj
 0001:00111010       ___getint                  00512010 f   crt:_getint.obj
 0001:00111640       ___getflt                  00512640 f   crt:_getflt.obj
 0001:00111f70       _fegetenv                  00512f70 f   crt:fegetenv.obj
 0001:00111f90       _fesetenv                  00512f90 f   crt:fesetenv.obj
 0001:00111fa0       ___fpunscalel              00512fa0 f   crt:_fpunscalel.obj
 0001:00111fc0       ___fpscalel                00512fc0 f   crt:_fpscalel.obj
 0001:00111fe0       _ldiv                      00512fe0 f   crt:ldiv.obj
 0001:00112010       ___genld                   00513010 f   crt:_genld.obj
 0001:00112520       __chsize                   00513520 f   crt:chsize.obj
 0001:001126c0       _fputs                     005136c0 f   crt:fputs.obj
 0001:001127c0       ___stoll                   005137c0 f   crt:_stoll.obj
 0001:00112910       ___stoull                  00513910 f   crt:_stoull.obj
 0001:00112b90       ___stold                   00513b90 f   crt:_stold.obj
 0001:00112d20       ___stopfx                  00513d20 f   crt:_stopfx.obj
 0001:00112e90       ___stoflt                  00513e90 f   crt:_stoflt.obj
 0001:00113110       ___fppow10l                00514110 f   crt:_fppow10l.obj
 0001:001132f0       ___stoxflt                 005142f0 f   crt:_stoxflt.obj
 0001:00113570       _CreateToolhelp32Snapshot@8 00514570     kernel32:KERNEL32.dll
 0001:00113576       _Process32First@8          00514576     kernel32:KERNEL32.dll
 0001:0011357c       _Process32Next@8           0051457c     kernel32:KERNEL32.dll
 0001:00113582       _RtlUnwind@16              00514582     kernel32:KERNEL32.dll
 0001:00113588       _SetDefaultPrinterA@4      00514588     winspool:WINSPOOL.DRV
 0001:0011358e       _OpenPrinterA@12           0051458e     winspool:WINSPOOL.DRV
 0001:00113594       _DocumentPropertiesA@24    00514594     winspool:WINSPOOL.DRV
 0001:0011359a       _ClosePrinter@4            0051459a     winspool:WINSPOOL.DRV
 0001:001135a0       _EnumPrintersA@28          005145a0     winspool:WINSPOOL.DRV
 0001:001135a6       _GetPrinterA@20            005145a6     winspool:WINSPOOL.DRV
 0001:001135ac       _SetPrinterA@16            005145ac     winspool:WINSPOOL.DRV
 0001:001135b2       _StartDocPrinterA@12       005145b2     winspool:WINSPOOL.DRV
 0001:001135b8       _StartPagePrinter@4        005145b8     winspool:WINSPOOL.DRV
 0001:001135be       _WritePrinter@16           005145be     winspool:WINSPOOL.DRV
 0001:001135c4       _EndPagePrinter@4          005145c4     winspool:WINSPOOL.DRV
 0001:001135ca       _EndDocPrinter@4           005145ca     winspool:WINSPOOL.DRV
 0001:001135d0       ___WSAFDIsSet@8            005145d0     wsock32:WSOCK32.dll
 0001:001135d6       _ChooseFontA@4             005145d6     comdlg32:comdlg32.dll
 0001:001135dc       _GetOpenFileNameA@4        005145dc     comdlg32:comdlg32.dll
 0001:001135e2       _GetSaveFileNameA@4        005145e2     comdlg32:comdlg32.dll
 0001:001135e8       _PrintDlgA@4               005145e8     comdlg32:comdlg32.dll
 0001:001135ee       _PageSetupDlgA@4           005145ee     comdlg32:comdlg32.dll
 0001:001135f4       _CommDlgExtendedError@0    005145f4     comdlg32:comdlg32.dll
 0001:001135fa       _ReplaceTextA@4            005145fa     comdlg32:comdlg32.dll
 0001:00113600       _FindTextA@4               00514600     comdlg32:comdlg32.dll
 0001:00113606       _ChooseColorA@4            00514606     comdlg32:comdlg32.dll
 0001:0011360c       _Netbios@4                 0051460c     netapi32:NETAPI32.dll
 0001:00113612       _NetShareAdd@16            00514612     netapi32:NETAPI32.dll
 0001:00113618       _NetShareDel@12            00514618     netapi32:NETAPI32.dll
 0001:0011361e       _NetShareGetInfo@16        0051461e     netapi32:NETAPI32.dll
 0001:00113624       _NetApiBufferFree@4        00514624     netapi32:NETAPI32.dll
 0001:0011362a       _NetShareEnum@28           0051462a     netapi32:NETAPI32.dll
 0001:00113630       _GetProcessMemoryInfo@12   00514630     psapi:PSAPI.DLL
 0001:00113640       _hb_hrbAsmPatch            00514640 f   WinCore:WinCallBack.obj
 0001:001136a0       _hb_hrbAsmPatchRelative    005146a0 f   WinCore:WinCallBack.obj
 0001:00113710       _WinCallBackPointer        00514710 f   WinCore:WinCallBack.obj
 0001:00113960       _WinCallBackMethodPointer  00514960 f   WinCore:WinCallBack.obj
 0001:00113be0       _HB_FUN_WINCALLBACKPOINTER 00514be0 f   WinCore:WinCallBack.obj
 0001:00113c60       _HB_FUN_FREECALLBACKPOINTER 00514c60 f   WinCore:WinCallBack.obj
 0001:00113cd0       _WinHookPointer            00514cd0 f   WinCore:WinCallBack.obj
 0001:00113ee0       _WinHookMethodPointer      00514ee0 f   WinCore:WinCallBack.obj
 0001:00114120       _HB_FUN_SETWINDOWSHOOKEX   00515120 f   WinCore:WinCallBack.obj
 0001:00114210       _HB_FUN_UNHOOKWINDOWSHOOKEX 00515210 f   WinCore:WinCallBack.obj
 0001:00114290       _hb_strMatchRegExp         00515290 f   xhb:strmatch.obj
 0001:001142e0       _hb_strMatchWild           005152e0 f   xhb:strmatch.obj
 0001:001144a0       _hb_strMatchWildExact      005154a0 f   xhb:strmatch.obj
 0001:00114690       _hb_strMatchCaseWildExact  00515690 f   xhb:strmatch.obj
 0001:001148a0       _hb_strMatchFile           005158a0 f   xhb:strmatch.obj
 0001:001148c0       _HB_FUN_WILDMATCH          005158c0 f   xhb:strmatch.obj
 0001:00114970       _HB_FUN_HB_FILEMATCH       00515970 f   xhb:strmatch.obj
 0001:001149f0       _WinMain@16                005159f0 f   xhb:mainwin.obj
 0002:000c5644       ___xi_a                    005db644     crt:_initex.obj
 0002:000c5744       ___xi_z                    005db744     crt:_initex.obj
 0002:000c5744       ___xt_a                    005db744     crt:_initex.obj
 0002:000c5744       ___xt_z                    005db744     crt:_initex.obj
 0004:000001b0       _HBEMAONEDLL               005dd1b0     Form1.obj
 0004:0000d2d8       _hShell32                  005ea2d8     VXH:WinUtil.obj
 0004:0000d2dc       _lNAME_SIZE                005ea2dc     VXH:WinUtil.obj
 0004:00021870       _hb_symEval                005fe870     OptG:hvm.obj
 0004:0002189c       _pHVMFuncService           005fe89c     OptG:hvm.obj
 0004:000218a0       _hb_vm_bQuitRequest        005fe8a0     OptG:hvm.obj
 0004:000218a4       _hb_vm_sNull               005fe8a4     OptG:hvm.obj
 0004:000218a8       _hb_vm_iTry                005fe8a8     OptG:hvm.obj
 0004:000218ac       _hb_vm_BreakBlock          005fe8ac     OptG:hvm.obj
 0004:00021914       _hb_cls_uiArrayClass       005fe914     xhb:classes.obj
 0004:00021916       _hb_cls_uiBlockClass       005fe916     xhb:classes.obj
 0004:00021918       _hb_cls_uiCharacterClass   005fe918     xhb:classes.obj
 0004:0002191a       _hb_cls_uiDateClass        005fe91a     xhb:classes.obj
 0004:0002191c       _hb_cls_uiTimeFlagClass    005fe91c     xhb:classes.obj
 0004:0002191e       _hb_cls_uiLogicalClass     005fe91e     xhb:classes.obj
 0004:00021920       _hb_cls_uiNilClass         005fe920     xhb:classes.obj
 0004:00021922       _hb_cls_uiNumericClass     005fe922     xhb:classes.obj
 0004:00021924       _hb_cls_uiPointerClass     005fe924     xhb:classes.obj
 0004:00021926       _hb_cls_uiHashClass        005fe926     xhb:classes.obj
 0004:00021f14       _hb_stack_ptr              005fef14     xhb:estack.obj
 0004:00021f18       _hb_stack_ready            005fef18     xhb:estack.obj
 0004:00022a90       _hb_errFuncName            005ffa90     xhb:errorapi.obj
 0004:00022e24       _hb_hInstance              005ffe24     xhb:cmdarg.obj
 0004:00022e28       _hb_hPrevInstance          005ffe28     xhb:cmdarg.obj
 0004:00022e2c       _hb_iCmdShow               005ffe2c     xhb:cmdarg.obj
 0004:00022e30       _s_WinMainParam            005ffe30     xhb:cmdarg.obj
 0004:000238d8       _hb_szAscii                006008d8     xhb:hbstr.obj
 0004:00023cd8       _CLINECOMMENT              00600cd8     xhb:hbini.obj
 0004:00023cf0       _CHALFLINECOMMENT          00600cf0     xhb:hbini.obj
 0004:000267e8       _hb_vm_bCollectGarbage     006037e8     xhb:idle.obj
 0004:00026b64       _hb_uniTbl_437             00603b64     xhb:cdpapi.obj
 0004:00026dfc       _hb_cdp_page               00603dfc     xhb:cdpapi.obj
 0004:00026e04       _hb_comp_bShortCuts        00603e04     xhb:macro.obj
 0004:00026e0c       _hb_tr_file_               00603e0c     xhb:hbtrace.obj
 0004:00026e10       _hb_tr_line_               00603e10     xhb:hbtrace.obj
 0004:00026e14       _hb_tr_level_              00603e14     xhb:hbtrace.obj
 0004:00027e90       _pcre_malloc               00604e90     xhb:pcre_globals.obj
 0004:00027e94       _pcre_free                 00604e94     xhb:pcre_globals.obj
 0004:00027e98       _pcre_stack_malloc         00604e98     xhb:pcre_globals.obj
 0004:00027e9c       _pcre_stack_free           00604e9c     xhb:pcre_globals.obj
 0004:00027ea0       _pcre_callout              00604ea0     xhb:pcre_globals.obj
 0004:00028174       _hb_gt_szNameDefault       00605174     xhb:hbgtcore.obj
 0004:000282a8       _yytext                    006052a8     xhb:macroslx.obj
 0004:00029040       __pcre_OP_lengths          00606040     xhb:pcre_tables.obj
 0004:000290dc       __pcre_hspace_list         006060dc     xhb:pcre_tables.obj
 0004:0002912c       __pcre_vspace_list         0060612c     xhb:pcre_tables.obj
 0004:0002914c       __pcre_utf8_table1         0060614c     xhb:pcre_tables.obj
 0004:00029164       __pcre_utf8_table1_size    00606164     xhb:pcre_tables.obj
 0004:00029168       __pcre_utf8_table2         00606168     xhb:pcre_tables.obj
 0004:00029180       __pcre_utf8_table3         00606180     xhb:pcre_tables.obj
 0004:00029198       __pcre_utf8_table4         00606198     xhb:pcre_tables.obj
 0004:000291d8       __pcre_ucp_gentype         006061d8     xhb:pcre_tables.obj
 0004:00029250       __pcre_ucp_gbtable         00606250     xhb:pcre_tables.obj
 0004:00029284       __pcre_utt_names           00606284     xhb:pcre_tables.obj
 0004:00029696       __pcre_utt                 00606696     xhb:pcre_tables.obj
 0004:000299fc       __pcre_utt_size            006069fc     xhb:pcre_tables.obj
 0004:00029a00       __pcre_default_tables      00606a00     xhb:pcre_chartables.obj
 0004:00029e40       _hb_comp_ExprTable         00606e40     xhb:macrob.obj
 0004:0002a15c       __NLG_Destination          0060715c     crt:seh1.obj
 0004:0002a16c       ___malloc_rovers           0060716c     crt:malloc.obj
 0004:0002a190       ___malloc_hiword           00607190     crt:malloc.obj
 0004:0002a194       ___malloc_loword           00607194     crt:malloc.obj
 0004:0002a198       ___malloc_mem              00607198     crt:malloc.obj
 0004:0002a19c       ___malloc_binmax           0060719c     crt:malloc.obj
 0004:0002a1ac       ___malloc_firstbin         006071ac     crt:malloc.obj
 0004:0002a1b0       ___malloc_lastbin          006071b0     crt:malloc.obj
 0004:0002a1b8       __Atfuns                   006071b8     crt:exit.obj
 0004:0002a2f8       __Atcount                  006072f8     crt:exit.obj
 0004:0002a2fc       __Atcount0                 006072fc     crt:exit.obj
 0004:0002a300       ___ctypetab                00607300     crt:_ctype.obj
 0004:0002a304       ___touppertab              00607304     crt:_touppertab.obj
 0004:0002a308       ___tolowertab              00607308     crt:_tolowertab.obj
 0004:0002a35c       ___stdin                   0060735c     crt:_files.obj
 0004:0002a3a8       ___stdout                  006073a8     crt:_files.obj
 0004:0002a3f4       ___stderr                  006073f4     crt:_files.obj
 0004:0002a440       ___filetab                 00607440     crt:_files.obj
 0004:0002a840       ___randinit                00607840     crt:rand.obj
 0004:0002a844       ___randseed                00607844     crt:rand.obj
 0004:0002a89c       _errno                     0060789c     crt:errno.obj
 0004:0002a8a0       ___inf                     006078a0     crt:_values.obj
 0004:0002a8a8       ___nan                     006078a8     crt:_values.obj
 0004:0002a8b0       ___eps                     006078b0     crt:_values.obj
 0004:0002a8b8       ___rteps                   006078b8     crt:_values.obj
 0004:0002a8c0       ___xbig                    006078c0     crt:_values.obj
 0004:0002a8c8       ___zero                    006078c8     crt:_values.obj
 0004:0002a8d0       ___infl                    006078d0     crt:_lvalues.obj
 0004:0002a8d8       ___nanl                    006078d8     crt:_lvalues.obj
 0004:0002a8e0       ___epsl                    006078e0     crt:_lvalues.obj
 0004:0002a8e8       ___rtepsl                  006078e8     crt:_lvalues.obj
 0004:0002a8f0       ___xbigl                   006078f0     crt:_lvalues.obj
 0004:0002a8f8       ___zerol                   006078f8     crt:_lvalues.obj
 0004:0002a900       ___sigtab                  00607900     crt:signal.obj
 0004:0002a9b4       ___mbcurmax                006079b4     crt:_state.obj
 0004:0002a9b8       ___collatetab              006079b8     crt:_state.obj
 0004:0002a9f8       ___wcollatetab             006079f8     crt:_state.obj
 0004:0002aa38       ___mbtowctab               00607a38     crt:_state.obj
 0004:0002aa78       ___wctombtab               00607a78     crt:_state.obj
 0004:0002aab8       ___locale                  00607ab8     crt:localeconv.obj
 0004:0002aaf0       _IID_IOleInPlaceActiveObject 00607af0     uuid:iid_ioleinplaceactiveobject.obj
 0004:0002ab00       _IID_IDispatch             00607b00     uuid:iid_idispatch.obj
 0004:0002ab10       _IID_IOleObject            00607b10     uuid:iid_ioleobject.obj
 0004:0002ab20       _GUID_NULL                 00607b20     uuid:guid_null.obj
 0004:0002ab30       _IID_ICatInformation       00607b30     uuid:iid_icatinformation.obj
 0004:0002ab40       _CLSID_StdComponentCategoriesMgr 00607b40     uuid:clsid_stdcomponentcategoriesmgr.obj
 0004:0002ab50       _CATID_Control             00607b50     uuid:catid_control.obj
 0004:0002ab60       _CLSID_TaskbarList         00607b60     uuid:clsid_taskbarlist.obj
 0004:0002ab70       _IID_IPicture              00607b70     uuid:iid_ipicture.obj
 0004:0002ab80       _IID_IClassFactory2        00607b80     uuid:iid_iclassfactory2.obj
 0004:0002ab90       _IID_IEnumVARIANT          00607b90     uuid:iid_ienumvariant.obj
 0004:0002aba4       __IMPORT_DESCRIPTOR_VERSION 00607ba4     ActiveX:VERSION.dll
 0004:0002abb8       __IMPORT_DESCRIPTOR_KERNEL32 00607bb8     kernel32:KERNEL32.dll
 0004:0002abcc       __IMPORT_DESCRIPTOR_USER32 00607bcc     user32:USER32.dll
 0004:0002abe0       __IMPORT_DESCRIPTOR_WINSPOOL 00607be0     winspool:WINSPOOL.DRV
 0004:0002abf4       __IMPORT_DESCRIPTOR_ole32  00607bf4     ole32:ole32.dll
 0004:0002ac08       __IMPORT_DESCRIPTOR_OLEAUT32 00607c08     oleaut32:OLEAUT32.dll
 0004:0002ac1c       __IMPORT_DESCRIPTOR_WSOCK32 00607c1c     wsock32:WSOCK32.dll
 0004:0002ac30       __IMPORT_DESCRIPTOR_WS2_32 00607c30     ws2_32:WS2_32.dll
 0004:0002ac44       __IMPORT_DESCRIPTOR_WININET 00607c44     wininet:WININET.dll
 0004:0002ac58       __IMPORT_DESCRIPTOR_ADVAPI32 00607c58     advapi32:ADVAPI32.dll
 0004:0002ac6c       __IMPORT_DESCRIPTOR_SHLWAPI 00607c6c     shlwapi:SHLWAPI.dll
 0004:0002ac80       __IMPORT_DESCRIPTOR_MSIMG32 00607c80     msimg32:MSIMG32.dll
 0004:0002ac94       __IMPORT_DESCRIPTOR_COMCTL32 00607c94     comctl32:COMCTL32.dll
 0004:0002aca8       __IMPORT_DESCRIPTOR_comdlg32 00607ca8     comdlg32:comdlg32.dll
 0004:0002acbc       __IMPORT_DESCRIPTOR_GDI32  00607cbc     gdi32:GDI32.dll
 0004:0002acd0       __IMPORT_DESCRIPTOR_SHELL32 00607cd0     shell32:SHELL32.dll
 0004:0002ace4       __IMPORT_DESCRIPTOR_NETAPI32 00607ce4     netapi32:NETAPI32.dll
 0004:0002acf8       __IMPORT_DESCRIPTOR_PSAPI  00607cf8     psapi:PSAPI.DLL
 0004:0002ad0c       __IMPORT_DESCRIPTOR_RPCRT4 00607d0c     rpcrt4:RPCRT4.dll
 0004:0002ad20       __NULL_IMPORT_DESCRIPTOR   00607d20     ActiveX:VERSION.dll
 0004:0002b870       __imp__VerQueryValueA@16   00608870     ActiveX:VERSION.dll
 0004:0002b874       __imp__GetFileVersionInfoSizeA@8 00608874     ActiveX:VERSION.dll
 0004:0002b878       __imp__GetFileVersionInfoA@16 00608878     ActiveX:VERSION.dll
 0004:0002b87c       VERSION_NULL_THUNK_DATA   0060887c     ActiveX:VERSION.dll
 0004:0002b880       __imp__DeleteCriticalSection@4 00608880     kernel32:KERNEL32.dll
 0004:0002b884       __imp__InitializeCriticalSection@4 00608884     kernel32:KERNEL32.dll
 0004:0002b888       __imp__EnterCriticalSection@4 00608888     kernel32:KERNEL32.dll
 0004:0002b88c       __imp__OutputDebugStringA@4 0060888c     kernel32:KERNEL32.dll
 0004:0002b890       __imp__LeaveCriticalSection@4 00608890     kernel32:KERNEL32.dll
 0004:0002b894       __imp__LoadLibraryA@4      00608894     kernel32:KERNEL32.dll
 0004:0002b898       __imp__GetProcAddress@8    00608898     kernel32:KERNEL32.dll
 0004:0002b89c       __imp__FreeLibrary@4       0060889c     kernel32:KERNEL32.dll
 0004:0002b8a0       __imp__GlobalAlloc@8       006088a0     kernel32:KERNEL32.dll
 0004:0002b8a4       __imp__GlobalLock@4        006088a4     kernel32:KERNEL32.dll
 0004:0002b8a8       __imp__GlobalUnlock@4      006088a8     kernel32:KERNEL32.dll
 0004:0002b8ac       __imp__GlobalFree@4        006088ac     kernel32:KERNEL32.dll
 0004:0002b8b0       __imp__GetModuleHandleA@4  006088b0     kernel32:KERNEL32.dll
 0004:0002b8b4       __imp__CreateMutexA@12     006088b4     kernel32:KERNEL32.dll
 0004:0002b8b8       __imp__ReleaseMutex@4      006088b8     kernel32:KERNEL32.dll
 0004:0002b8bc       __imp__OpenMutexA@12       006088bc     kernel32:KERNEL32.dll
 0004:0002b8c0       __imp__GetModuleFileNameA@12 006088c0     kernel32:KERNEL32.dll
 0004:0002b8c4       __imp__GetLastError@0      006088c4     kernel32:KERNEL32.dll
 0004:0002b8c8       __imp__GetTempPathA@8      006088c8     kernel32:KERNEL32.dll
 0004:0002b8cc       __imp__GetWindowsDirectoryA@8 006088cc     kernel32:KERNEL32.dll
 0004:0002b8d0       __imp__GetVersionExA@4     006088d0     kernel32:KERNEL32.dll
 0004:0002b8d4       __imp__GetCurrentThreadId@0 006088d4     kernel32:KERNEL32.dll
 0004:0002b8d8       __imp__GetProfileStringA@20 006088d8     kernel32:KERNEL32.dll
 0004:0002b8dc       __imp__GetPrivateProfileStringA@24 006088dc     kernel32:KERNEL32.dll
 0004:0002b8e0       __imp__WriteProfileSectionA@8 006088e0     kernel32:KERNEL32.dll
 0004:0002b8e4       __imp__WriteProfileStringA@12 006088e4     kernel32:KERNEL32.dll
 0004:0002b8e8       __imp__WritePrivateProfileSectionA@12 006088e8     kernel32:KERNEL32.dll
 0004:0002b8ec       __imp__GetPrivateProfileIntA@16 006088ec     kernel32:KERNEL32.dll
 0004:0002b8f0       __imp__WritePrivateProfileStringA@16 006088f0     kernel32:KERNEL32.dll
 0004:0002b8f4       __imp__GetProfileIntA@12   006088f4     kernel32:KERNEL32.dll
 0004:0002b8f8       __imp__TransmitCommChar@8  006088f8     kernel32:KERNEL32.dll
 0004:0002b8fc       __imp__GlobalMemoryStatus@4 006088fc     kernel32:KERNEL32.dll
 0004:0002b900       __imp__FormatMessageA@28   00608900     kernel32:KERNEL32.dll
 0004:0002b904       __imp__LocalFree@4         00608904     kernel32:KERNEL32.dll
 0004:0002b908       __imp__GetComputerNameA@8  00608908     kernel32:KERNEL32.dll
 0004:0002b90c       __imp__LoadResource@8      0060890c     kernel32:KERNEL32.dll
 0004:0002b910       __imp__LockResource@4      00608910     kernel32:KERNEL32.dll
 0004:0002b914       __imp__FreeResource@4      00608914     kernel32:KERNEL32.dll
 0004:0002b918       __imp__FindResourceA@12    00608918     kernel32:KERNEL32.dll
 0004:0002b91c       __imp__FindResourceExA@16  0060891c     kernel32:KERNEL32.dll
 0004:0002b920       __imp__WinExec@8           00608920     kernel32:KERNEL32.dll
 0004:0002b924       __imp__GetLogicalDriveStringsA@8 00608924     kernel32:KERNEL32.dll
 0004:0002b928       __imp__CopyFileA@12        00608928     kernel32:KERNEL32.dll
 0004:0002b92c       __imp__WriteFile@20        0060892c     kernel32:KERNEL32.dll
 0004:0002b930       __imp__ReadFile@20         00608930     kernel32:KERNEL32.dll
 0004:0002b934       __imp__CancelIo@4          00608934     kernel32:KERNEL32.dll
 0004:0002b938       __imp__FlushFileBuffers@4  00608938     kernel32:KERNEL32.dll
 0004:0002b93c       __imp__CopyFileExA@24      0060893c     kernel32:KERNEL32.dll
 0004:0002b940       __imp__LoadLibraryExA@12   00608940     kernel32:KERNEL32.dll
 0004:0002b944       __imp__GetTickCount@0      00608944     kernel32:KERNEL32.dll
 0004:0002b948       __imp__Sleep@4             00608948     kernel32:KERNEL32.dll
 0004:0002b94c       __imp__OpenFile@12         0060894c     kernel32:KERNEL32.dll
 0004:0002b950       __imp__BeginUpdateResourceA@8 00608950     kernel32:KERNEL32.dll
 0004:0002b954       __imp__UpdateResourceA@24  00608954     kernel32:KERNEL32.dll
 0004:0002b958       __imp__EndUpdateResourceA@8 00608958     kernel32:KERNEL32.dll
 0004:0002b95c       __imp__SizeofResource@8    0060895c     kernel32:KERNEL32.dll
 0004:0002b960       __imp__GetTempFileNameA@16 00608960     kernel32:KERNEL32.dll
 0004:0002b964       __imp__MoveFileA@8         00608964     kernel32:KERNEL32.dll
 0004:0002b968       __imp__MoveFileExA@12      00608968     kernel32:KERNEL32.dll
 0004:0002b96c       __imp__GetShortPathNameA@12 0060896c     kernel32:KERNEL32.dll
 0004:0002b970       __imp__GetProfileSectionA@12 00608970     kernel32:KERNEL32.dll
 0004:0002b974       __imp__GetPrivateProfileSectionA@16 00608974     kernel32:KERNEL32.dll
 0004:0002b978       __imp__MulDiv@12           00608978     kernel32:KERNEL32.dll
 0004:0002b97c       __imp__GetCurrentProcess@0 0060897c     kernel32:KERNEL32.dll
 0004:0002b980       __imp__GetSystemDirectoryA@8 00608980     kernel32:KERNEL32.dll
 0004:0002b984       __imp__GetProcessHeap@0    00608984     kernel32:KERNEL32.dll
 0004:0002b988       __imp__HeapAlloc@12        00608988     kernel32:KERNEL32.dll
 0004:0002b98c       __imp__HeapFree@12         0060898c     kernel32:KERNEL32.dll
 0004:0002b990       __imp__SetEvent@4          00608990     kernel32:KERNEL32.dll
 0004:0002b994       __imp__CreateEventA@16     00608994     kernel32:KERNEL32.dll
 0004:0002b998       __imp__WaitForSingleObject@8 00608998     kernel32:KERNEL32.dll
 0004:0002b99c       __imp__Beep@8              0060899c     kernel32:KERNEL32.dll
 0004:0002b9a0       __imp__CloseHandle@4       006089a0     kernel32:KERNEL32.dll
 0004:0002b9a4       __imp__EnumResourceTypesA@12 006089a4     kernel32:KERNEL32.dll
 0004:0002b9a8       __imp__GetLocalTime@4      006089a8     kernel32:KERNEL32.dll
 0004:0002b9ac       __imp__GetSystemTime@4     006089ac     kernel32:KERNEL32.dll
 0004:0002b9b0       __imp__SetSystemTime@4     006089b0     kernel32:KERNEL32.dll
 0004:0002b9b4       __imp__CreateFileA@28      006089b4     kernel32:KERNEL32.dll
 0004:0002b9b8       __imp__SetCommState@8      006089b8     kernel32:KERNEL32.dll
 0004:0002b9bc       __imp__SetCommTimeouts@8   006089bc     kernel32:KERNEL32.dll
 0004:0002b9c0       __imp__GetCommState@8      006089c0     kernel32:KERNEL32.dll
 0004:0002b9c4       __imp__PurgeComm@8         006089c4     kernel32:KERNEL32.dll
 0004:0002b9c8       __imp__WaitCommEvent@12    006089c8     kernel32:KERNEL32.dll
 0004:0002b9cc       __imp__FindFirstFileA@8    006089cc     kernel32:KERNEL32.dll
 0004:0002b9d0       __imp__SetEnvironmentVariableA@8 006089d0     kernel32:KERNEL32.dll
 0004:0002b9d4       __imp__MultiByteToWideChar@24 006089d4     kernel32:KERNEL32.dll
 0004:0002b9d8       __imp__FileTimeToSystemTime@8 006089d8     kernel32:KERNEL32.dll
 0004:0002b9dc       __imp__GetUserDefaultLangID@0 006089dc     kernel32:KERNEL32.dll
 0004:0002b9e0       __imp__GetFileInformationByHandle@8 006089e0     kernel32:KERNEL32.dll
 0004:0002b9e4       __imp__FileTimeToDosDateTime@12 006089e4     kernel32:KERNEL32.dll
 0004:0002b9e8       __imp__ClearCommError@12   006089e8     kernel32:KERNEL32.dll
 0004:0002b9ec       __imp__GetCommModemStatus@8 006089ec     kernel32:KERNEL32.dll
 0004:0002b9f0       __imp__GetCommProperties@8 006089f0     kernel32:KERNEL32.dll
 0004:0002b9f4       __imp__EscapeCommFunction@8 006089f4     kernel32:KERNEL32.dll
 0004:0002b9f8       __imp__GetCurrentDirectoryA@8 006089f8     kernel32:KERNEL32.dll
 0004:0002b9fc       __imp__SetCurrentDirectoryA@4 006089fc     kernel32:KERNEL32.dll
 0004:0002ba00       __imp__RemoveDirectoryA@4  00608a00     kernel32:KERNEL32.dll
 0004:0002ba04       __imp__WideCharToMultiByte@32 00608a04     kernel32:KERNEL32.dll
 0004:0002ba08       __imp__GetEnvironmentVariableA@12 00608a08     kernel32:KERNEL32.dll
 0004:0002ba0c       __imp__GlobalReAlloc@12    00608a0c     kernel32:KERNEL32.dll
 0004:0002ba10       __imp__CreateDirectoryA@8  00608a10     kernel32:KERNEL32.dll
 0004:0002ba14       __imp__IsBadCodePtr@4      00608a14     kernel32:KERNEL32.dll
 0004:0002ba18       __imp__SetLastError@4      00608a18     kernel32:KERNEL32.dll
 0004:0002ba1c       __imp__LocalAlloc@8        00608a1c     kernel32:KERNEL32.dll
 0004:0002ba20       __imp__GetFileAttributesExA@12 00608a20     kernel32:KERNEL32.dll
 0004:0002ba24       __imp__GetSystemInfo@4     00608a24     kernel32:KERNEL32.dll
 0004:0002ba28       __imp__GlobalSize@4        00608a28     kernel32:KERNEL32.dll
 0004:0002ba2c       __imp__SystemTimeToFileTime@8 00608a2c     kernel32:KERNEL32.dll
 0004:0002ba30       __imp__LocalFileTimeToFileTime@8 00608a30     kernel32:KERNEL32.dll
 0004:0002ba34       __imp__SetFileTime@16      00608a34     kernel32:KERNEL32.dll
 0004:0002ba38       __imp__SystemTimeToTzSpecificLocalTime@12 00608a38     kernel32:KERNEL32.dll
 0004:0002ba3c       __imp__CreateToolhelp32Snapshot@8 00608a3c     kernel32:KERNEL32.dll
 0004:0002ba40       __imp__Process32First@8    00608a40     kernel32:KERNEL32.dll
 0004:0002ba44       __imp__OpenProcess@12      00608a44     kernel32:KERNEL32.dll
 0004:0002ba48       __imp__TerminateProcess@8  00608a48     kernel32:KERNEL32.dll
 0004:0002ba4c       __imp__Process32Next@8     00608a4c     kernel32:KERNEL32.dll
 0004:0002ba50       __imp__VirtualFree@12      00608a50     kernel32:KERNEL32.dll
 0004:0002ba54       __imp__FileTimeToLocalFileTime@8 00608a54     kernel32:KERNEL32.dll
 0004:0002ba58       __imp__ExpandEnvironmentStringsA@12 00608a58     kernel32:KERNEL32.dll
 0004:0002ba5c       __imp__lstrcpyA@8          00608a5c     kernel32:KERNEL32.dll
 0004:0002ba60       __imp__SetErrorMode@4      00608a60     kernel32:KERNEL32.dll
 0004:0002ba64       __imp__SetUnhandledExceptionFilter@4 00608a64     kernel32:KERNEL32.dll
 0004:0002ba68       __imp__GetFileAttributesA@4 00608a68     kernel32:KERNEL32.dll
 0004:0002ba6c       __imp__SetFileAttributesA@8 00608a6c     kernel32:KERNEL32.dll
 0004:0002ba70       __imp__FindNextFileA@8     00608a70     kernel32:KERNEL32.dll
 0004:0002ba74       __imp__FindClose@4         00608a74     kernel32:KERNEL32.dll
 0004:0002ba78       __imp__GetDateFormatA@24   00608a78     kernel32:KERNEL32.dll
 0004:0002ba7c       __imp__GetTimeFormatA@24   00608a7c     kernel32:KERNEL32.dll
 0004:0002ba80       __imp__GetFileSize@8       00608a80     kernel32:KERNEL32.dll
 0004:0002ba84       __imp__GetProcessTimes@20  00608a84     kernel32:KERNEL32.dll
 0004:0002ba88       __imp__GetDriveTypeA@4     00608a88     kernel32:KERNEL32.dll
 0004:0002ba8c       __imp__SetConsoleCtrlHandler@8 00608a8c     kernel32:KERNEL32.dll
 0004:0002ba90       __imp__FreeConsole@0       00608a90     kernel32:KERNEL32.dll
 0004:0002ba94       __imp__GetStdHandle@4      00608a94     kernel32:KERNEL32.dll
 0004:0002ba98       __imp__CreatePipe@16       00608a98     kernel32:KERNEL32.dll
 0004:0002ba9c       __imp__SearchPathA@24      00608a9c     kernel32:KERNEL32.dll
 0004:0002baa0       __imp__CreateProcessA@40   00608aa0     kernel32:KERNEL32.dll
 0004:0002baa4       __imp__GetExitCodeProcess@8 00608aa4     kernel32:KERNEL32.dll
 0004:0002baa8       __imp__GetFileTime@16      00608aa8     kernel32:KERNEL32.dll
 0004:0002baac       __imp__SetEndOfFile@4      00608aac     kernel32:KERNEL32.dll
 0004:0002bab0       __imp__SetFilePointer@16   00608ab0     kernel32:KERNEL32.dll
 0004:0002bab4       __imp__LockFileEx@24       00608ab4     kernel32:KERNEL32.dll
 0004:0002bab8       __imp__LockFile@20         00608ab8     kernel32:KERNEL32.dll
 0004:0002babc       __imp__UnlockFileEx@20     00608abc     kernel32:KERNEL32.dll
 0004:0002bac0       __imp__UnlockFile@20       00608ac0     kernel32:KERNEL32.dll
 0004:0002bac4       __imp__DeleteFileA@4       00608ac4     kernel32:KERNEL32.dll
 0004:0002bac8       __imp__GetFileType@4       00608ac8     kernel32:KERNEL32.dll
 0004:0002bacc       __imp__GetDiskFreeSpaceA@20 00608acc     kernel32:KERNEL32.dll
 0004:0002bad0       __imp__lstrlenA@4          00608ad0     kernel32:KERNEL32.dll
 0004:0002bad4       __imp__lstrcatA@8          00608ad4     kernel32:KERNEL32.dll
 0004:0002bad8       __imp__CompareFileTime@8   00608ad8     kernel32:KERNEL32.dll
 0004:0002badc       __imp__GetVolumeInformationA@32 00608adc     kernel32:KERNEL32.dll
 0004:0002bae0       __imp__GetCurrentProcessId@0 00608ae0     kernel32:KERNEL32.dll
 0004:0002bae4       __imp__VirtualAlloc@16     00608ae4     kernel32:KERNEL32.dll
 0004:0002bae8       __imp__GetStartupInfoA@4   00608ae8     kernel32:KERNEL32.dll
 0004:0002baec       __imp__RtlUnwind@16        00608aec     kernel32:KERNEL32.dll
 0004:0002baf0       __imp__DuplicateHandle@28  00608af0     kernel32:KERNEL32.dll
 0004:0002baf4       __imp__GetSystemTimeAsFileTime@4 00608af4     kernel32:KERNEL32.dll
 0004:0002baf8       __imp__VirtualQuery@12     00608af8     kernel32:KERNEL32.dll
 0004:0002bafc       __imp__ExitProcess@4       00608afc     kernel32:KERNEL32.dll
 0004:0002bb00       __imp__SetHandleCount@4    00608b00     kernel32:KERNEL32.dll
 0004:0002bb04       __imp__GetCommandLineA@0   00608b04     kernel32:KERNEL32.dll
 0004:0002bb08       __imp__GetEnvironmentStrings@0 00608b08     kernel32:KERNEL32.dll
 0004:0002bb0c       __imp__UnhandledExceptionFilter@4 00608b0c     kernel32:KERNEL32.dll
 0004:0002bb10       __imp__SetStdHandle@8      00608b10     kernel32:KERNEL32.dll
 0004:0002bb14       __imp__VirtualProtect@16   00608b14     kernel32:KERNEL32.dll
 0004:0002bb18       KERNEL32_NULL_THUNK_DATA  00608b18     kernel32:KERNEL32.dll
 0004:0002bb1c       __imp__GetActiveWindow@0   00608b1c     user32:USER32.dll
 0004:0002bb20       __imp__MessageBoxA@16      00608b20     user32:USER32.dll
 0004:0002bb24       __imp__RegisterClassA@4    00608b24     user32:USER32.dll
 0004:0002bb28       __imp__UnregisterClassA@8  00608b28     user32:USER32.dll
 0004:0002bb2c       __imp__RegisterClassExA@4  00608b2c     user32:USER32.dll
 0004:0002bb30       __imp__CreateWindowExA@48  00608b30     user32:USER32.dll
 0004:0002bb34       __imp__ShowWindow@8        00608b34     user32:USER32.dll
 0004:0002bb38       __imp__GetMessageA@16      00608b38     user32:USER32.dll
 0004:0002bb3c       __imp__IsDialogMessageA@8  00608b3c     user32:USER32.dll
 0004:0002bb40       __imp__TranslateMessage@4  00608b40     user32:USER32.dll
 0004:0002bb44       __imp__DispatchMessageA@4  00608b44     user32:USER32.dll
 0004:0002bb48       __imp__DefWindowProcA@16   00608b48     user32:USER32.dll
 0004:0002bb4c       __imp__DefDlgProcA@16      00608b4c     user32:USER32.dll
 0004:0002bb50       __imp__PostQuitMessage@4   00608b50     user32:USER32.dll
 0004:0002bb54       __imp__SetWindowTextA@8    00608b54     user32:USER32.dll
 0004:0002bb58       __imp__SetFocus@4          00608b58     user32:USER32.dll
 0004:0002bb5c       __imp__GetCaretPos@4       00608b5c     user32:USER32.dll
 0004:0002bb60       __imp__SetCaretPos@8       00608b60     user32:USER32.dll
 0004:0002bb64       __imp__GetDC@4             00608b64     user32:USER32.dll
 0004:0002bb68       __imp__ReleaseDC@8         00608b68     user32:USER32.dll
 0004:0002bb6c       __imp__DestroyWindow@4     00608b6c     user32:USER32.dll
 0004:0002bb70       __imp__SendMessageA@16     00608b70     user32:USER32.dll
 0004:0002bb74       __imp__PostMessageA@16     00608b74     user32:USER32.dll
 0004:0002bb78       __imp__BeginPaint@8        00608b78     user32:USER32.dll
 0004:0002bb7c       __imp__EndPaint@8          00608b7c     user32:USER32.dll
 0004:0002bb80       __imp__InvalidateRect@12   00608b80     user32:USER32.dll
 0004:0002bb84       __imp__FillRect@12         00608b84     user32:USER32.dll
 0004:0002bb88       __imp__CallWindowProcA@20  00608b88     user32:USER32.dll
 0004:0002bb8c       __imp__SetWindowLongA@12   00608b8c     user32:USER32.dll
 0004:0002bb90       __imp__GetWindowLongA@8    00608b90     user32:USER32.dll
 0004:0002bb94       __imp__GetClassInfoA@12    00608b94     user32:USER32.dll
 0004:0002bb98       __imp__GetSysColorBrush@4  00608b98     user32:USER32.dll
 0004:0002bb9c       __imp__GetClientRect@8     00608b9c     user32:USER32.dll
 0004:0002bba0       __imp__LoadCursorA@8       00608ba0     user32:USER32.dll
 0004:0002bba4       __imp__LoadCursorFromFileA@4 00608ba4     user32:USER32.dll
 0004:0002bba8       __imp__CopyIcon@4          00608ba8     user32:USER32.dll
 0004:0002bbac       __imp__SetCursor@4         00608bac     user32:USER32.dll
 0004:0002bbb0       __imp__GetCursor@0         00608bb0     user32:USER32.dll
 0004:0002bbb4       __imp__GetNextDlgTabItem@12 00608bb4     user32:USER32.dll
 0004:0002bbb8       __imp__SetClassLongA@12    00608bb8     user32:USER32.dll
 0004:0002bbbc       __imp__GetFocus@0          00608bbc     user32:USER32.dll
 0004:0002bbc0       __imp__GetSysColor@4       00608bc0     user32:USER32.dll
 0004:0002bbc4       __imp__CreateAcceleratorTableA@8 00608bc4     user32:USER32.dll
 0004:0002bbc8       __imp__DestroyAcceleratorTable@4 00608bc8     user32:USER32.dll
 0004:0002bbcc       __imp__LoadIconA@8         00608bcc     user32:USER32.dll
 0004:0002bbd0       __imp__TranslateAcceleratorA@12 00608bd0     user32:USER32.dll
 0004:0002bbd4       __imp__TranslateMDISysAccel@8 00608bd4     user32:USER32.dll
 0004:0002bbd8       __imp__PeekMessageA@20     00608bd8     user32:USER32.dll
 0004:0002bbdc       __imp__IsWindowVisible@4   00608bdc     user32:USER32.dll
 0004:0002bbe0       __imp__IsWindow@4          00608be0     user32:USER32.dll
 0004:0002bbe4       __imp__GetWindowTextA@12   00608be4     user32:USER32.dll
 0004:0002bbe8       __imp__GetWindowTextLengthA@4 00608be8     user32:USER32.dll
 0004:0002bbec       __imp__EnableWindow@8      00608bec     user32:USER32.dll
 0004:0002bbf0       __imp__LockWindowUpdate@4  00608bf0     user32:USER32.dll
 0004:0002bbf4       __imp__FindWindowExA@16    00608bf4     user32:USER32.dll
 0004:0002bbf8       __imp__SetScrollInfo@16    00608bf8     user32:USER32.dll
 0004:0002bbfc       __imp__SetWindowPlacement@8 00608bfc     user32:USER32.dll
 0004:0002bc00       __imp__GetWindowPlacement@8 00608c00     user32:USER32.dll
 0004:0002bc04       __imp__GetWindowInfo@8     00608c04     user32:USER32.dll
 0004:0002bc08       __imp__GetDesktopWindow@0  00608c08     user32:USER32.dll
 0004:0002bc0c       __imp__DefFrameProcA@20    00608c0c     user32:USER32.dll
 0004:0002bc10       __imp__DefMDIChildProcA@16 00608c10     user32:USER32.dll
 0004:0002bc14       __imp__GetScrollInfo@12    00608c14     user32:USER32.dll
 0004:0002bc18       __imp__GetIconInfo@8       00608c18     user32:USER32.dll
 0004:0002bc1c       __imp__GetMenuItemInfoA@16 00608c1c     user32:USER32.dll
 0004:0002bc20       __imp__GetMenuStringA@20   00608c20     user32:USER32.dll
 0004:0002bc24       __imp__GetMenuItemID@8     00608c24     user32:USER32.dll
 0004:0002bc28       __imp__GetMenuItemCount@4  00608c28     user32:USER32.dll
 0004:0002bc2c       __imp__GetSystemMenu@8     00608c2c     user32:USER32.dll
 0004:0002bc30       __imp__CreatePopupMenu@0   00608c30     user32:USER32.dll
 0004:0002bc34       __imp__ShowCaret@4         00608c34     user32:USER32.dll
 0004:0002bc38       __imp__HideCaret@4         00608c38     user32:USER32.dll
 0004:0002bc3c       __imp__CreateCaret@16      00608c3c     user32:USER32.dll
 0004:0002bc40       __imp__DestroyCaret@0      00608c40     user32:USER32.dll
 0004:0002bc44       __imp__SetCapture@4        00608c44     user32:USER32.dll
 0004:0002bc48       __imp__ReleaseCapture@0    00608c48     user32:USER32.dll
 0004:0002bc4c       __imp__GetOpenClipboardWindow@0 00608c4c     user32:USER32.dll
 0004:0002bc50       __imp__OpenClipboard@4     00608c50     user32:USER32.dll
 0004:0002bc54       __imp__EmptyClipboard@0    00608c54     user32:USER32.dll
 0004:0002bc58       __imp__ScrollWindow@20     00608c58     user32:USER32.dll
 0004:0002bc5c       __imp__SetActiveWindow@4   00608c5c     user32:USER32.dll
 0004:0002bc60       __imp__BringWindowToTop@4  00608c60     user32:USER32.dll
 0004:0002bc64       __imp__WindowFromDC@4      00608c64     user32:USER32.dll
 0004:0002bc68       __imp__GetWindowDC@4       00608c68     user32:USER32.dll
 0004:0002bc6c       __imp__OffsetRect@12       00608c6c     user32:USER32.dll
 0004:0002bc70       __imp__ScreenToClient@8    00608c70     user32:USER32.dll
 0004:0002bc74       __imp__ClientToScreen@8    00608c74     user32:USER32.dll
 0004:0002bc78       __imp__SetWindowPos@28     00608c78     user32:USER32.dll
 0004:0002bc7c       __imp__BeginDeferWindowPos@4 00608c7c     user32:USER32.dll
 0004:0002bc80       __imp__DeferWindowPos@32   00608c80     user32:USER32.dll
 0004:0002bc84       __imp__EndDeferWindowPos@4 00608c84     user32:USER32.dll
 0004:0002bc88       __imp__SendDlgItemMessageA@20 00608c88     user32:USER32.dll
 0004:0002bc8c       __imp__RedrawWindow@16     00608c8c     user32:USER32.dll
 0004:0002bc90       __imp__IsWindowEnabled@4   00608c90     user32:USER32.dll
 0004:0002bc94       __imp__ValidateRect@8      00608c94     user32:USER32.dll
 0004:0002bc98       __imp__MapWindowPoints@16  00608c98     user32:USER32.dll
 0004:0002bc9c       __imp__DeleteMenu@12       00608c9c     user32:USER32.dll
 0004:0002bca0       __imp__SetMenuItemInfoA@16 00608ca0     user32:USER32.dll
 0004:0002bca4       __imp__InsertMenuItemA@16  00608ca4     user32:USER32.dll
 0004:0002bca8       __imp__IsMenu@4            00608ca8     user32:USER32.dll
 0004:0002bcac       __imp__SetMenuDefaultItem@12 00608cac     user32:USER32.dll
 0004:0002bcb0       __imp__SetMenu@8           00608cb0     user32:USER32.dll
 0004:0002bcb4       __imp__GetMenu@4           00608cb4     user32:USER32.dll
 0004:0002bcb8       __imp__CreateMenu@0        00608cb8     user32:USER32.dll
 0004:0002bcbc       __imp__AppendMenuA@16      00608cbc     user32:USER32.dll
 0004:0002bcc0       __imp__InsertMenuA@20      00608cc0     user32:USER32.dll
 0004:0002bcc4       __imp__ModifyMenuA@20      00608cc4     user32:USER32.dll
 0004:0002bcc8       __imp__TrackPopupMenu@28   00608cc8     user32:USER32.dll
 0004:0002bccc       __imp__SetForegroundWindow@4 00608ccc     user32:USER32.dll
 0004:0002bcd0       __imp__GetForegroundWindow@0 00608cd0     user32:USER32.dll
 0004:0002bcd4       __imp__GetClassLongA@8     00608cd4     user32:USER32.dll
 0004:0002bcd8       __imp__CallNextHookEx@16   00608cd8     user32:USER32.dll
 0004:0002bcdc       __imp__MenuItemFromPoint@16 00608cdc     user32:USER32.dll
 0004:0002bce0       __imp__GetClassNameA@12    00608ce0     user32:USER32.dll
 0004:0002bce4       __imp__DestroyMenu@4       00608ce4     user32:USER32.dll
 0004:0002bce8       __imp__PostThreadMessageA@16 00608ce8     user32:USER32.dll
 0004:0002bcec       __imp__MoveWindow@24       00608cec     user32:USER32.dll
 0004:0002bcf0       __imp__UpdateWindow@4      00608cf0     user32:USER32.dll
 0004:0002bcf4       __imp__SetTimer@16         00608cf4     user32:USER32.dll
 0004:0002bcf8       __imp__KillTimer@8         00608cf8     user32:USER32.dll
 0004:0002bcfc       __imp__LoadImageA@24       00608cfc     user32:USER32.dll
 0004:0002bd00       __imp__LoadBitmapA@8       00608d00     user32:USER32.dll
 0004:0002bd04       __imp__CreateMDIWindowA@40 00608d04     user32:USER32.dll
 0004:0002bd08       __imp__GetWindowRect@8     00608d08     user32:USER32.dll
 0004:0002bd0c       __imp__DrawTextA@20        00608d0c     user32:USER32.dll
 0004:0002bd10       __imp__GetSystemMetrics@4  00608d10     user32:USER32.dll
 0004:0002bd14       __imp__GetKeyState@4       00608d14     user32:USER32.dll
 0004:0002bd18       __imp__GetDlgItem@8        00608d18     user32:USER32.dll
 0004:0002bd1c       __imp__SetParent@8         00608d1c     user32:USER32.dll
 0004:0002bd20       __imp__SetWindowRgn@12     00608d20     user32:USER32.dll
 0004:0002bd24       __imp__SystemParametersInfoA@16 00608d24     user32:USER32.dll
 0004:0002bd28       __imp__GetCursorPos@4      00608d28     user32:USER32.dll
 0004:0002bd2c       __imp__GetDCEx@12          00608d2c     user32:USER32.dll
 0004:0002bd30       __imp__PtInRect@12         00608d30     user32:USER32.dll
 0004:0002bd34       __imp__DrawFocusRect@8     00608d34     user32:USER32.dll
 0004:0002bd38       __imp__FrameRect@12        00608d38     user32:USER32.dll
 0004:0002bd3c       __imp__DrawFrameControl@16 00608d3c     user32:USER32.dll
 0004:0002bd40       __imp__DrawEdge@16         00608d40     user32:USER32.dll
 0004:0002bd44       __imp__GetCapture@0        00608d44     user32:USER32.dll
 0004:0002bd48       __imp__DrawStateA@40       00608d48     user32:USER32.dll
 0004:0002bd4c       __imp__DestroyIcon@4       00608d4c     user32:USER32.dll
 0004:0002bd50       __imp__DrawIconEx@36       00608d50     user32:USER32.dll
 0004:0002bd54       __imp__GetSubMenu@8        00608d54     user32:USER32.dll
 0004:0002bd58       __imp__InflateRect@12      00608d58     user32:USER32.dll
 0004:0002bd5c       __imp__IsChild@8           00608d5c     user32:USER32.dll
 0004:0002bd60       __imp__GetParent@4         00608d60     user32:USER32.dll
 0004:0002bd64       __imp__GetDlgCtrlID@4      00608d64     user32:USER32.dll
 0004:0002bd68       __imp__MessageBeep@4       00608d68     user32:USER32.dll
 0004:0002bd6c       __imp__SetClipboardData@8  00608d6c     user32:USER32.dll
 0004:0002bd70       __imp__IsClipboardFormatAvailable@4 00608d70     user32:USER32.dll
 0004:0002bd74       __imp__RegisterClipboardFormatA@4 00608d74     user32:USER32.dll
 0004:0002bd78       __imp__GetClipboardData@4  00608d78     user32:USER32.dll
 0004:0002bd7c       __imp__CloseClipboard@0    00608d7c     user32:USER32.dll
 0004:0002bd80       __imp__SetPropA@12         00608d80     user32:USER32.dll
 0004:0002bd84       __imp__RemovePropA@8       00608d84     user32:USER32.dll
 0004:0002bd88       __imp__GetPropA@8          00608d88     user32:USER32.dll
 0004:0002bd8c       __imp__EndDialog@8         00608d8c     user32:USER32.dll
 0004:0002bd90       __imp__GetAsyncKeyState@4  00608d90     user32:USER32.dll
 0004:0002bd94       __imp__ScrollWindowEx@32   00608d94     user32:USER32.dll
 0004:0002bd98       __imp__DrawIcon@16         00608d98     user32:USER32.dll
 0004:0002bd9c       __imp__CheckRadioButton@16 00608d9c     user32:USER32.dll
 0004:0002bda0       __imp__WindowFromPoint@8   00608da0     user32:USER32.dll
 0004:0002bda4       __imp__ChildWindowFromPoint@12 00608da4     user32:USER32.dll
 0004:0002bda8       __imp__ChildWindowFromPointEx@16 00608da8     user32:USER32.dll
 0004:0002bdac       __imp__InvertRect@8        00608dac     user32:USER32.dll
 0004:0002bdb0       __imp__SetDlgItemInt@16    00608db0     user32:USER32.dll
 0004:0002bdb4       __imp__SetDlgItemTextA@12  00608db4     user32:USER32.dll
 0004:0002bdb8       __imp__GetDlgItemTextA@16  00608db8     user32:USER32.dll
 0004:0002bdbc       __imp__GetMessagePos@0     00608dbc     user32:USER32.dll
 0004:0002bdc0       __imp__EnableMenuItem@12   00608dc0     user32:USER32.dll
 0004:0002bdc4       __imp__LoadMenuA@8         00608dc4     user32:USER32.dll
 0004:0002bdc8       __imp__CheckDlgButton@12   00608dc8     user32:USER32.dll
 0004:0002bdcc       __imp__IsDlgButtonChecked@8 00608dcc     user32:USER32.dll
 0004:0002bdd0       __imp__RegisterWindowMessageA@4 00608dd0     user32:USER32.dll
 0004:0002bdd4       __imp__IsIconic@4          00608dd4     user32:USER32.dll
 0004:0002bdd8       __imp__SendMessageCallbackA@24 00608dd8     user32:USER32.dll
 0004:0002bddc       __imp__CheckMenuItem@12    00608ddc     user32:USER32.dll
 0004:0002bde0       __imp__SetMenuItemBitmaps@20 00608de0     user32:USER32.dll
 0004:0002bde4       __imp__EnumChildWindows@12 00608de4     user32:USER32.dll
 0004:0002bde8       __imp__GetWindow@8         00608de8     user32:USER32.dll
 0004:0002bdec       __imp__GetDialogBaseUnits@0 00608dec     user32:USER32.dll
 0004:0002bdf0       __imp__keybd_event@16      00608df0     user32:USER32.dll
 0004:0002bdf4       __imp__GetDlgItemInt@16    00608df4     user32:USER32.dll
 0004:0002bdf8       __imp__SetCursorPos@8      00608df8     user32:USER32.dll
 0004:0002bdfc       __imp__MapDialogRect@8     00608dfc     user32:USER32.dll
 0004:0002be00       __imp__SetMenuInfo@8       00608e00     user32:USER32.dll
 0004:0002be04       __imp__GetMenuInfo@8       00608e04     user32:USER32.dll
 0004:0002be08       __imp__FindWindowA@8       00608e08     user32:USER32.dll
 0004:0002be0c       __imp__EnumDisplayMonitors@16 00608e0c     user32:USER32.dll
 0004:0002be10       __imp__MonitorFromWindow@8 00608e10     user32:USER32.dll
 0004:0002be14       __imp__MonitorFromPoint@12 00608e14     user32:USER32.dll
 0004:0002be18       __imp__MonitorFromRect@8   00608e18     user32:USER32.dll
 0004:0002be1c       __imp__GetMenuItemRect@16  00608e1c     user32:USER32.dll
 0004:0002be20       __imp__GetMonitorInfoA@8   00608e20     user32:USER32.dll
 0004:0002be24       __imp__ClipCursor@4        00608e24     user32:USER32.dll
 0004:0002be28       __imp__EnumPropsA@8        00608e28     user32:USER32.dll
 0004:0002be2c       __imp__RemoveMenu@12       00608e2c     user32:USER32.dll
 0004:0002be30       __imp__GetMenuState@12     00608e30     user32:USER32.dll
 0004:0002be34       __imp__AnimateWindow@12    00608e34     user32:USER32.dll
 0004:0002be38       __imp__DialogBoxParamA@20  00608e38     user32:USER32.dll
 0004:0002be3c       __imp__DialogBoxIndirectParamA@20 00608e3c     user32:USER32.dll
 0004:0002be40       __imp__CreateDialogParamA@20 00608e40     user32:USER32.dll
 0004:0002be44       __imp__CreateDialogIndirectParamA@20 00608e44     user32:USER32.dll
 0004:0002be48       __imp__OemToCharBuffA@12   00608e48     user32:USER32.dll
 0004:0002be4c       __imp__HiliteMenuItem@16   00608e4c     user32:USER32.dll
 0004:0002be50       __imp__EndMenu@0           00608e50     user32:USER32.dll
 0004:0002be54       __imp__RegisterHotKey@16   00608e54     user32:USER32.dll
 0004:0002be58       __imp__ExitWindowsEx@8     00608e58     user32:USER32.dll
 0004:0002be5c       __imp__SendMessageTimeoutA@28 00608e5c     user32:USER32.dll
 0004:0002be60       __imp__DrawCaption@16      00608e60     user32:USER32.dll
 0004:0002be64       __imp__CopyImage@20        00608e64     user32:USER32.dll
 0004:0002be68       __imp__MapVirtualKeyA@8    00608e68     user32:USER32.dll
 0004:0002be6c       __imp__GetKeyNameTextA@12  00608e6c     user32:USER32.dll
 0004:0002be70       __imp__VkKeyScanA@4        00608e70     user32:USER32.dll
 0004:0002be74       __imp__OemKeyScan@4        00608e74     user32:USER32.dll
 0004:0002be78       __imp__ToAscii@20          00608e78     user32:USER32.dll
 0004:0002be7c       __imp__GetQueueStatus@4    00608e7c     user32:USER32.dll
 0004:0002be80       __imp__WaitMessage@0       00608e80     user32:USER32.dll
 0004:0002be84       __imp__InvalidateRgn@12    00608e84     user32:USER32.dll
 0004:0002be88       __imp__ShowScrollBar@12    00608e88     user32:USER32.dll
 0004:0002be8c       __imp__EnableScrollBar@12  00608e8c     user32:USER32.dll
 0004:0002be90       __imp__GetComboBoxInfo@8   00608e90     user32:USER32.dll
 0004:0002be94       __imp__ShowCursor@4        00608e94     user32:USER32.dll
 0004:0002be98       __imp__GetScrollPos@8      00608e98     user32:USER32.dll
 0004:0002be9c       __imp__SetScrollPos@16     00608e9c     user32:USER32.dll
 0004:0002bea0       __imp__DrawMenuBar@4       00608ea0     user32:USER32.dll
 0004:0002bea4       __imp__GetCursorInfo@4     00608ea4     user32:USER32.dll
 0004:0002bea8       __imp__SetRect@20          00608ea8     user32:USER32.dll
 0004:0002beac       __imp__SetWindowsHookExA@16 00608eac     user32:USER32.dll
 0004:0002beb0       __imp__UnhookWindowsHookEx@4 00608eb0     user32:USER32.dll
 0004:0002beb4       __imp__wsprintfA           00608eb4     user32:USER32.dll
 0004:0002beb8       __imp__SetSysColors@12     00608eb8     user32:USER32.dll
 0004:0002bebc       __imp__MessageBoxIndirectW@4 00608ebc     user32:USER32.dll
 0004:0002bec0       __imp__IntersectRect@12    00608ec0     user32:USER32.dll
 0004:0002bec4       __imp__UnionRect@12        00608ec4     user32:USER32.dll
 0004:0002bec8       __imp__SubtractRect@12     00608ec8     user32:USER32.dll
 0004:0002becc       __imp__IsRectEmpty@4       00608ecc     user32:USER32.dll
 0004:0002bed0       __imp__EqualRect@8         00608ed0     user32:USER32.dll
 0004:0002bed4       __imp__GetScrollBarInfo@12 00608ed4     user32:USER32.dll
 0004:0002bed8       __imp__LoadStringA@16      00608ed8     user32:USER32.dll
 0004:0002bedc       USER32_NULL_THUNK_DATA    00608edc     user32:USER32.dll
 0004:0002bee0       __imp__SetDefaultPrinterA@4 00608ee0     winspool:WINSPOOL.DRV
 0004:0002bee4       __imp__OpenPrinterA@12     00608ee4     winspool:WINSPOOL.DRV
 0004:0002bee8       __imp__DocumentPropertiesA@24 00608ee8     winspool:WINSPOOL.DRV
 0004:0002beec       __imp__ClosePrinter@4      00608eec     winspool:WINSPOOL.DRV
 0004:0002bef0       __imp__EnumPrintersA@28    00608ef0     winspool:WINSPOOL.DRV
 0004:0002bef4       __imp__GetPrinterA@20      00608ef4     winspool:WINSPOOL.DRV
 0004:0002bef8       __imp__SetPrinterA@16      00608ef8     winspool:WINSPOOL.DRV
 0004:0002befc       __imp__StartDocPrinterA@12 00608efc     winspool:WINSPOOL.DRV
 0004:0002bf00       __imp__StartPagePrinter@4  00608f00     winspool:WINSPOOL.DRV
 0004:0002bf04       __imp__WritePrinter@16     00608f04     winspool:WINSPOOL.DRV
 0004:0002bf08       __imp__EndPagePrinter@4    00608f08     winspool:WINSPOOL.DRV
 0004:0002bf0c       __imp__EndDocPrinter@4     00608f0c     winspool:WINSPOOL.DRV
 0004:0002bf10       WINSPOOL_NULL_THUNK_DATA  00608f10     winspool:WINSPOOL.DRV
 0004:0002bf14       __imp__OleInitialize@4     00608f14     ole32:ole32.dll
 0004:0002bf18       __imp__OleUninitialize@0   00608f18     ole32:ole32.dll
 0004:0002bf1c       __imp__CoInitialize@4      00608f1c     ole32:ole32.dll
 0004:0002bf20       __imp__ProgIDFromCLSID@8   00608f20     ole32:ole32.dll
 0004:0002bf24       __imp__CoTaskMemFree@4     00608f24     ole32:ole32.dll
 0004:0002bf28       __imp__CLSIDFromProgID@8   00608f28     ole32:ole32.dll
 0004:0002bf2c       __imp__CLSIDFromString@8   00608f2c     ole32:ole32.dll
 0004:0002bf30       __imp__StringFromCLSID@8   00608f30     ole32:ole32.dll
 0004:0002bf34       __imp__OleGetIconOfClass@12 00608f34     ole32:ole32.dll
 0004:0002bf38       __imp__CoCreateInstance@20 00608f38     ole32:ole32.dll
 0004:0002bf3c       __imp__OleRegGetUserType@12 00608f3c     ole32:ole32.dll
 0004:0002bf40       __imp__CoUninitialize@0    00608f40     ole32:ole32.dll
 0004:0002bf44       __imp__CreateStreamOnHGlobal@12 00608f44     ole32:ole32.dll
 0004:0002bf48       __imp__CoGetClassObject@20 00608f48     ole32:ole32.dll
 0004:0002bf4c       ole32_NULL_THUNK_DATA     00608f4c     ole32:ole32.dll
 0004:0002bf50       __imp__SysFreeString@4     00608f50     oleaut32:OLEAUT32.dll
 0004:0002bf54       __imp__VariantInit@4       00608f54     oleaut32:OLEAUT32.dll
 0004:0002bf58       __imp__OleLoadPicture@20   00608f58     oleaut32:OLEAUT32.dll
 0004:0002bf5c       __imp__OleCreatePictureIndirect@16 00608f5c     oleaut32:OLEAUT32.dll
 0004:0002bf60       __imp__SysAllocStringLen@8 00608f60     oleaut32:OLEAUT32.dll
 0004:0002bf64       __imp__VariantClear@4      00608f64     oleaut32:OLEAUT32.dll
 0004:0002bf68       __imp__SafeArrayCreate@12  00608f68     oleaut32:OLEAUT32.dll
 0004:0002bf6c       __imp__SafeArrayPutElement@12 00608f6c     oleaut32:OLEAUT32.dll
 0004:0002bf70       __imp__SafeArrayGetDim@4   00608f70     oleaut32:OLEAUT32.dll
 0004:0002bf74       __imp__SafeArrayGetLBound@12 00608f74     oleaut32:OLEAUT32.dll
 0004:0002bf78       __imp__SafeArrayGetUBound@12 00608f78     oleaut32:OLEAUT32.dll
 0004:0002bf7c       __imp__SafeArrayGetElement@12 00608f7c     oleaut32:OLEAUT32.dll
 0004:0002bf80       __imp__VarR8FromCy@12      00608f80     oleaut32:OLEAUT32.dll
 0004:0002bf84       __imp__VarR8FromDec@8      00608f84     oleaut32:OLEAUT32.dll
 0004:0002bf88       __imp__GetActiveObject@12  00608f88     oleaut32:OLEAUT32.dll
 0004:0002bf8c       __imp__VariantCopy@8       00608f8c     oleaut32:OLEAUT32.dll
 0004:0002bf90       OLEAUT32_NULL_THUNK_DATA  00608f90     oleaut32:OLEAUT32.dll
 0004:0002bf94       __imp__gethostbyname@4     00608f94     wsock32:WSOCK32.dll
 0004:0002bf98       __imp__send@16             00608f98     wsock32:WSOCK32.dll
 0004:0002bf9c       __imp__WSAStartup@8        00608f9c     wsock32:WSOCK32.dll
 0004:0002bfa0       __imp__WSACleanup@0        00608fa0     wsock32:WSOCK32.dll
 0004:0002bfa4       __imp__gethostname@8       00608fa4     wsock32:WSOCK32.dll
 0004:0002bfa8       __imp__select@20           00608fa8     wsock32:WSOCK32.dll
 0004:0002bfac       __imp____WSAFDIsSet@8      00608fac     wsock32:WSOCK32.dll
 0004:0002bfb0       __imp__inet_addr@4         00608fb0     wsock32:WSOCK32.dll
 0004:0002bfb4       __imp__gethostbyaddr@12    00608fb4     wsock32:WSOCK32.dll
 0004:0002bfb8       __imp__WSAGetLastError@0   00608fb8     wsock32:WSOCK32.dll
 0004:0002bfbc       __imp__WSASetLastError@4   00608fbc     wsock32:WSOCK32.dll
 0004:0002bfc0       __imp__ioctlsocket@12      00608fc0     wsock32:WSOCK32.dll
 0004:0002bfc4       __imp__setsockopt@20       00608fc4     wsock32:WSOCK32.dll
 0004:0002bfc8       __imp__connect@12          00608fc8     wsock32:WSOCK32.dll
 0004:0002bfcc       __imp__getsockopt@20       00608fcc     wsock32:WSOCK32.dll
 0004:0002bfd0       __imp__shutdown@8          00608fd0     wsock32:WSOCK32.dll
 0004:0002bfd4       __imp__closesocket@4       00608fd4     wsock32:WSOCK32.dll
 0004:0002bfd8       __imp__inet_ntoa@4         00608fd8     wsock32:WSOCK32.dll
 0004:0002bfdc       __imp__ntohs@4             00608fdc     wsock32:WSOCK32.dll
 0004:0002bfe0       __imp__recv@16             00608fe0     wsock32:WSOCK32.dll
 0004:0002bfe4       __imp__socket@12           00608fe4     wsock32:WSOCK32.dll
 0004:0002bfe8       __imp__htons@4             00608fe8     wsock32:WSOCK32.dll
 0004:0002bfec       __imp__bind@12             00608fec     wsock32:WSOCK32.dll
 0004:0002bff0       __imp__listen@8            00608ff0     wsock32:WSOCK32.dll
 0004:0002bff4       __imp__accept@12           00608ff4     wsock32:WSOCK32.dll
 0004:0002bff8       __imp__htonl@4             00608ff8     wsock32:WSOCK32.dll
 0004:0002bffc       __imp__sendto@24           00608ffc     wsock32:WSOCK32.dll
 0004:0002c000       __imp__recvfrom@24         00609000     wsock32:WSOCK32.dll
 0004:0002c004       WSOCK32_NULL_THUNK_DATA   00609004     wsock32:WSOCK32.dll
 0004:0002c008       __imp__WSACreateEvent@0    00609008     ws2_32:WS2_32.dll
 0004:0002c00c       __imp__WSAWaitForMultipleEvents@20 0060900c     ws2_32:WS2_32.dll
 0004:0002c010       WS2_32_NULL_THUNK_DATA    00609010     ws2_32:WS2_32.dll
 0004:0002c014       __imp__InternetGetLastResponseInfoA@12 00609014     wininet:WININET.dll
 0004:0002c018       __imp__InternetDial@20     00609018     wininet:WININET.dll
 0004:0002c01c       __imp__InternetGetConnectedState@8 0060901c     wininet:WININET.dll
 0004:0002c020       __imp__InternetOpenA@20    00609020     wininet:WININET.dll
 0004:0002c024       __imp__InternetConnectA@32 00609024     wininet:WININET.dll
 0004:0002c028       __imp__FtpOpenFileA@20     00609028     wininet:WININET.dll
 0004:0002c02c       __imp__InternetWriteFile@16 0060902c     wininet:WININET.dll
 0004:0002c030       __imp__InternetReadFile@16 00609030     wininet:WININET.dll
 0004:0002c034       __imp__FtpCommandA@24      00609034     wininet:WININET.dll
 0004:0002c038       __imp__FtpFindFirstFileA@20 00609038     wininet:WININET.dll
 0004:0002c03c       __imp__InternetFindNextFileA@8 0060903c     wininet:WININET.dll
 0004:0002c040       __imp__FtpGetFileA@28      00609040     wininet:WININET.dll
 0004:0002c044       __imp__FtpPutFileA@20      00609044     wininet:WININET.dll
 0004:0002c048       __imp__FtpCreateDirectoryA@8 00609048     wininet:WININET.dll
 0004:0002c04c       __imp__FtpRemoveDirectoryA@8 0060904c     wininet:WININET.dll
 0004:0002c050       __imp__FtpDeleteFileA@8    00609050     wininet:WININET.dll
 0004:0002c054       __imp__FtpRenameFileA@12   00609054     wininet:WININET.dll
 0004:0002c058       __imp__FtpGetCurrentDirectoryA@12 00609058     wininet:WININET.dll
 0004:0002c05c       __imp__FtpSetCurrentDirectoryA@8 0060905c     wininet:WININET.dll
 0004:0002c060       __imp__InternetCloseHandle@4 00609060     wininet:WININET.dll
 0004:0002c064       __imp__InternetAttemptConnect@4 00609064     wininet:WININET.dll
 0004:0002c068       __imp__InternetSetStatusCallback@8 00609068     wininet:WININET.dll
 0004:0002c06c       __imp__InternetSetOptionA@16 0060906c     wininet:WININET.dll
 0004:0002c070       __imp__InternetOpenUrlA@24 00609070     wininet:WININET.dll
 0004:0002c074       WININET_NULL_THUNK_DATA   00609074     wininet:WININET.dll
 0004:0002c078       __imp__GetUserNameA@8      00609078     advapi32:ADVAPI32.dll
 0004:0002c07c       __imp__RegOpenKeyExA@20    0060907c     advapi32:ADVAPI32.dll
 0004:0002c080       __imp__RegCloseKey@4       00609080     advapi32:ADVAPI32.dll
 0004:0002c084       __imp__RegEnumKeyW@16      00609084     advapi32:ADVAPI32.dll
 0004:0002c088       __imp__RegQueryValueExA@24 00609088     advapi32:ADVAPI32.dll
 0004:0002c08c       __imp__RegEnumKeyExA@32    0060908c     advapi32:ADVAPI32.dll
 0004:0002c090       __imp__RegEnumValueA@32    00609090     advapi32:ADVAPI32.dll
 0004:0002c094       __imp__RegSetValueExA@24   00609094     advapi32:ADVAPI32.dll
 0004:0002c098       __imp__RegCreateKeyA@12    00609098     advapi32:ADVAPI32.dll
 0004:0002c09c       __imp__RegCreateKeyExA@36  0060909c     advapi32:ADVAPI32.dll
 0004:0002c0a0       __imp__RegDeleteKeyA@8     006090a0     advapi32:ADVAPI32.dll
 0004:0002c0a4       __imp__RegDeleteValueA@8   006090a4     advapi32:ADVAPI32.dll
 0004:0002c0a8       __imp__OpenProcessToken@12 006090a8     advapi32:ADVAPI32.dll
 0004:0002c0ac       __imp__LookupPrivilegeValueA@12 006090ac     advapi32:ADVAPI32.dll
 0004:0002c0b0       __imp__AdjustTokenPrivileges@24 006090b0     advapi32:ADVAPI32.dll
 0004:0002c0b4       __imp__InitiateSystemShutdownA@20 006090b4     advapi32:ADVAPI32.dll
 0004:0002c0b8       __imp__OpenSCManagerA@12   006090b8     advapi32:ADVAPI32.dll
 0004:0002c0bc       __imp__OpenServiceA@12     006090bc     advapi32:ADVAPI32.dll
 0004:0002c0c0       __imp__CloseServiceHandle@4 006090c0     advapi32:ADVAPI32.dll
 0004:0002c0c4       __imp__EnumDependentServicesA@24 006090c4     advapi32:ADVAPI32.dll
 0004:0002c0c8       __imp__ControlService@12   006090c8     advapi32:ADVAPI32.dll
 0004:0002c0cc       __imp__StartServiceA@12    006090cc     advapi32:ADVAPI32.dll
 0004:0002c0d0       __imp__CreateServiceA@52   006090d0     advapi32:ADVAPI32.dll
 0004:0002c0d4       __imp__DeleteService@4     006090d4     advapi32:ADVAPI32.dll
 0004:0002c0d8       __imp__RegisterServiceCtrlHandlerA@8 006090d8     advapi32:ADVAPI32.dll
 0004:0002c0dc       __imp__SetServiceStatus@8  006090dc     advapi32:ADVAPI32.dll
 0004:0002c0e0       __imp__StartServiceCtrlDispatcherA@4 006090e0     advapi32:ADVAPI32.dll
 0004:0002c0e4       __imp__EnumServicesStatusA@32 006090e4     advapi32:ADVAPI32.dll
 0004:0002c0e8       __imp__RegOpenKeyA@12      006090e8     advapi32:ADVAPI32.dll
 0004:0002c0ec       ADVAPI32_NULL_THUNK_DATA  006090ec     advapi32:ADVAPI32.dll
 0004:0002c0f0       __imp__UrlGetPartA@20      006090f0     shlwapi:SHLWAPI.dll
 0004:0002c0f4       SHLWAPI_NULL_THUNK_DATA   006090f4     shlwapi:SHLWAPI.dll
 0004:0002c0f8       __imp__TransparentBlt@44   006090f8     msimg32:MSIMG32.dll
 0004:0002c0fc       __imp__GradientFill@24     006090fc     msimg32:MSIMG32.dll
 0004:0002c100       __imp__AlphaBlend@44       00609100     msimg32:MSIMG32.dll
 0004:0002c104       MSIMG32_NULL_THUNK_DATA   00609104     msimg32:MSIMG32.dll
 0004:0002c108       __imp__InitCommonControls@0 00609108     comctl32:COMCTL32.dll
 0004:0002c10c       __imp__InitCommonControlsEx@4 0060910c     comctl32:COMCTL32.dll
 0004:0002c110       __imp___TrackMouseEvent@4  00609110     comctl32:COMCTL32.dll
 0004:0002c114       __imp__InitializeFlatSB@4  00609114     comctl32:COMCTL32.dll
 0004:0002c118       __imp__FlatSB_SetScrollProp@16 00609118     comctl32:COMCTL32.dll
 0004:0002c11c       __imp__FlatSB_EnableScrollBar@12 0060911c     comctl32:COMCTL32.dll
 0004:0002c120       __imp__FlatSB_ShowScrollBar@12 00609120     comctl32:COMCTL32.dll
 0004:0002c124       __imp__ImageList_GetImageInfo@12 00609124     comctl32:COMCTL32.dll
 0004:0002c128       __imp__ImageList_DrawIndirect@4 00609128     comctl32:COMCTL32.dll
 0004:0002c12c       __imp__ImageList_BeginDrag@16 0060912c     comctl32:COMCTL32.dll
 0004:0002c130       __imp__ImageList_DragMove@8 00609130     comctl32:COMCTL32.dll
 0004:0002c134       __imp__ImageList_EndDrag@0 00609134     comctl32:COMCTL32.dll
 0004:0002c138       __imp__ImageList_DragEnter@12 00609138     comctl32:COMCTL32.dll
 0004:0002c13c       __imp__ImageList_DragShowNolock@4 0060913c     comctl32:COMCTL32.dll
 0004:0002c140       __imp__ImageList_GetImageCount@4 00609140     comctl32:COMCTL32.dll
 0004:0002c144       __imp__ImageList_Destroy@4 00609144     comctl32:COMCTL32.dll
 0004:0002c148       __imp__ImageList_LoadImageA@28 00609148     comctl32:COMCTL32.dll
 0004:0002c14c       __imp__ImageList_Remove@8  0060914c     comctl32:COMCTL32.dll
 0004:0002c150       __imp__ImageList_Copy@20   00609150     comctl32:COMCTL32.dll
 0004:0002c154       __imp__ImageList_GetIcon@12 00609154     comctl32:COMCTL32.dll
 0004:0002c158       __imp__ImageList_Create@20 00609158     comctl32:COMCTL32.dll
 0004:0002c15c       __imp__ImageList_AddMasked@12 0060915c     comctl32:COMCTL32.dll
 0004:0002c160       __imp__ImageList_Add@12    00609160     comctl32:COMCTL32.dll
 0004:0002c164       __imp__ImageList_ReplaceIcon@12 00609164     comctl32:COMCTL32.dll
 0004:0002c168       __imp__ImageList_Duplicate@4 00609168     comctl32:COMCTL32.dll
 0004:0002c16c       __imp__ImageList_GetIconSize@12 0060916c     comctl32:COMCTL32.dll
 0004:0002c170       __imp__ImageList_SetIconSize@12 00609170     comctl32:COMCTL32.dll
 0004:0002c174       __imp__ImageList_Merge@24  00609174     comctl32:COMCTL32.dll
 0004:0002c178       __imp__ImageList_Draw@24   00609178     comctl32:COMCTL32.dll
 0004:0002c17c       __imp__ImageList_DrawEx@40 0060917c     comctl32:COMCTL32.dll
 0004:0002c180       COMCTL32_NULL_THUNK_DATA  00609180     comctl32:COMCTL32.dll
 0004:0002c184       __imp__ChooseFontA@4       00609184     comdlg32:comdlg32.dll
 0004:0002c188       __imp__GetOpenFileNameA@4  00609188     comdlg32:comdlg32.dll
 0004:0002c18c       __imp__GetSaveFileNameA@4  0060918c     comdlg32:comdlg32.dll
 0004:0002c190       __imp__PrintDlgA@4         00609190     comdlg32:comdlg32.dll
 0004:0002c194       __imp__PageSetupDlgA@4     00609194     comdlg32:comdlg32.dll
 0004:0002c198       __imp__CommDlgExtendedError@0 00609198     comdlg32:comdlg32.dll
 0004:0002c19c       __imp__ReplaceTextA@4      0060919c     comdlg32:comdlg32.dll
 0004:0002c1a0       __imp__FindTextA@4         006091a0     comdlg32:comdlg32.dll
 0004:0002c1a4       __imp__ChooseColorA@4      006091a4     comdlg32:comdlg32.dll
 0004:0002c1a8       comdlg32_NULL_THUNK_DATA  006091a8     comdlg32:comdlg32.dll
 0004:0002c1ac       __imp__GetTextExtentPoint32A@16 006091ac     gdi32:GDI32.dll
 0004:0002c1b0       __imp__GetTextMetricsA@8   006091b0     gdi32:GDI32.dll
 0004:0002c1b4       __imp__TextOutA@20         006091b4     gdi32:GDI32.dll
 0004:0002c1b8       __imp__SetTextColor@8      006091b8     gdi32:GDI32.dll
 0004:0002c1bc       __imp__SetDCPenColor@8     006091bc     gdi32:GDI32.dll
 0004:0002c1c0       __imp__SelectObject@8      006091c0     gdi32:GDI32.dll
 0004:0002c1c4       __imp__CreateFontA@56      006091c4     gdi32:GDI32.dll
 0004:0002c1c8       __imp__DeleteObject@4      006091c8     gdi32:GDI32.dll
 0004:0002c1cc       __imp__CreateSolidBrush@4  006091cc     gdi32:GDI32.dll
 0004:0002c1d0       __imp__CreateCompatibleDC@4 006091d0     gdi32:GDI32.dll
 0004:0002c1d4       __imp__CreateDCA@16        006091d4     gdi32:GDI32.dll
 0004:0002c1d8       __imp__ResetDCA@8          006091d8     gdi32:GDI32.dll
 0004:0002c1dc       __imp__GetDCOrgEx@8        006091dc     gdi32:GDI32.dll
 0004:0002c1e0       __imp__DeleteDC@4          006091e0     gdi32:GDI32.dll
 0004:0002c1e4       __imp__Polygon@12          006091e4     gdi32:GDI32.dll
 0004:0002c1e8       __imp__CreatePatternBrush@4 006091e8     gdi32:GDI32.dll
 0004:0002c1ec       __imp__SetBkMode@8         006091ec     gdi32:GDI32.dll
 0004:0002c1f0       __imp__GetObjectA@12       006091f0     gdi32:GDI32.dll
 0004:0002c1f4       __imp__CreateFontIndirectA@4 006091f4     gdi32:GDI32.dll
 0004:0002c1f8       __imp__GetStockObject@4    006091f8     gdi32:GDI32.dll
 0004:0002c1fc       __imp__CreateRectRgn@16    006091fc     gdi32:GDI32.dll
 0004:0002c200       __imp__Rectangle@20        00609200     gdi32:GDI32.dll
 0004:0002c204       __imp__LineTo@12           00609204     gdi32:GDI32.dll
 0004:0002c208       __imp__CreatePen@12        00609208     gdi32:GDI32.dll
 0004:0002c20c       __imp__MoveToEx@16         0060920c     gdi32:GDI32.dll
 0004:0002c210       __imp__SetBkColor@8        00609210     gdi32:GDI32.dll
 0004:0002c214       __imp__GetBkColor@4        00609214     gdi32:GDI32.dll
 0004:0002c218       __imp__GetTextColor@4      00609218     gdi32:GDI32.dll
 0004:0002c21c       __imp__SetTextAlign@8      0060921c     gdi32:GDI32.dll
 0004:0002c220       __imp__Polyline@12         00609220     gdi32:GDI32.dll
 0004:0002c224       __imp__ExtTextOutA@32      00609224     gdi32:GDI32.dll
 0004:0002c228       __imp__GetDeviceCaps@8     00609228     gdi32:GDI32.dll
 0004:0002c22c       __imp__GetClipBox@8        0060922c     gdi32:GDI32.dll
 0004:0002c230       __imp__SetROP2@8           00609230     gdi32:GDI32.dll
 0004:0002c234       __imp__CreateBitmap@20     00609234     gdi32:GDI32.dll
 0004:0002c238       __imp__BitBlt@36           00609238     gdi32:GDI32.dll
 0004:0002c23c       __imp__MaskBlt@48          0060923c     gdi32:GDI32.dll
 0004:0002c240       __imp__PatBlt@24           00609240     gdi32:GDI32.dll
 0004:0002c244       __imp__DPtoLP@12           00609244     gdi32:GDI32.dll
 0004:0002c248       __imp__LPtoDP@12           00609248     gdi32:GDI32.dll
 0004:0002c24c       __imp__CreateCompatibleBitmap@12 0060924c     gdi32:GDI32.dll
 0004:0002c250       __imp__CreateDIBitmap@24   00609250     gdi32:GDI32.dll
 0004:0002c254       __imp__RemoveFontResourceA@4 00609254     gdi32:GDI32.dll
 0004:0002c258       __imp__AddFontResourceA@4  00609258     gdi32:GDI32.dll
 0004:0002c25c       __imp__SetMapMode@8        0060925c     gdi32:GDI32.dll
 0004:0002c260       __imp__GetMapMode@4        00609260     gdi32:GDI32.dll
 0004:0002c264       __imp__UnrealizeObject@4   00609264     gdi32:GDI32.dll
 0004:0002c268       __imp__SetViewportExtEx@16 00609268     gdi32:GDI32.dll
 0004:0002c26c       __imp__SetBrushOrgEx@16    0060926c     gdi32:GDI32.dll
 0004:0002c270       __imp__EnumFontFamiliesA@16 00609270     gdi32:GDI32.dll
 0004:0002c274       __imp__EnumFontsA@16       00609274     gdi32:GDI32.dll
 0004:0002c278       __imp__SaveDC@4            00609278     gdi32:GDI32.dll
 0004:0002c27c       __imp__RestoreDC@8         0060927c     gdi32:GDI32.dll
 0004:0002c280       __imp__GetPixel@12         00609280     gdi32:GDI32.dll
 0004:0002c284       __imp__SetPixel@16         00609284     gdi32:GDI32.dll
 0004:0002c288       __imp__UpdateColors@4      00609288     gdi32:GDI32.dll
 0004:0002c28c       __imp__SelectPalette@12    0060928c     gdi32:GDI32.dll
 0004:0002c290       __imp__CreateHalftonePalette@4 00609290     gdi32:GDI32.dll
 0004:0002c294       __imp__RealizePalette@4    00609294     gdi32:GDI32.dll
 0004:0002c298       __imp__ResizePalette@8     00609298     gdi32:GDI32.dll
 0004:0002c29c       __imp__GetNearestColor@8   0060929c     gdi32:GDI32.dll
 0004:0002c2a0       __imp__GetNearestPaletteIndex@8 006092a0     gdi32:GDI32.dll
 0004:0002c2a4       __imp__AnimatePalette@16   006092a4     gdi32:GDI32.dll
 0004:0002c2a8       __imp__CreatePalette@4     006092a8     gdi32:GDI32.dll
 0004:0002c2ac       __imp__SetStretchBltMode@8 006092ac     gdi32:GDI32.dll
 0004:0002c2b0       __imp__StretchDIBits@52    006092b0     gdi32:GDI32.dll
 0004:0002c2b4       __imp__ExtFloodFill@20     006092b4     gdi32:GDI32.dll
 0004:0002c2b8       __imp__FloodFill@16        006092b8     gdi32:GDI32.dll
 0004:0002c2bc       __imp__CreatePolygonRgn@12 006092bc     gdi32:GDI32.dll
 0004:0002c2c0       __imp__FillRgn@12          006092c0     gdi32:GDI32.dll
 0004:0002c2c4       __imp__RoundRect@28        006092c4     gdi32:GDI32.dll
 0004:0002c2c8       __imp__ExtCreatePen@20     006092c8     gdi32:GDI32.dll
 0004:0002c2cc       __imp__CreateFontIndirectW@4 006092cc     gdi32:GDI32.dll
 0004:0002c2d0       __imp__CreateDIBSection@24 006092d0     gdi32:GDI32.dll
 0004:0002c2d4       __imp__ExtCreateRegion@12  006092d4     gdi32:GDI32.dll
 0004:0002c2d8       __imp__CombineRgn@16       006092d8     gdi32:GDI32.dll
 0004:0002c2dc       __imp__StretchBlt@44       006092dc     gdi32:GDI32.dll
 0004:0002c2e0       __imp__GetDIBits@28        006092e0     gdi32:GDI32.dll
 0004:0002c2e4       __imp__GetCurrentObject@8  006092e4     gdi32:GDI32.dll
 0004:0002c2e8       __imp__SetDIBits@28        006092e8     gdi32:GDI32.dll
 0004:0002c2ec       __imp__RectVisible@8       006092ec     gdi32:GDI32.dll
 0004:0002c2f0       __imp__GetTextExtentExPointA@28 006092f0     gdi32:GDI32.dll
 0004:0002c2f4       __imp__SetWindowOrgEx@16   006092f4     gdi32:GDI32.dll
 0004:0002c2f8       __imp__SetWindowExtEx@16   006092f8     gdi32:GDI32.dll
 0004:0002c2fc       __imp__SetViewportOrgEx@16 006092fc     gdi32:GDI32.dll
 0004:0002c300       __imp__GetDIBColorTable@16 00609300     gdi32:GDI32.dll
 0004:0002c304       __imp__GetTextFaceA@12     00609304     gdi32:GDI32.dll
 0004:0002c308       __imp__StartDocA@8         00609308     gdi32:GDI32.dll
 0004:0002c30c       __imp__AbortDoc@4          0060930c     gdi32:GDI32.dll
 0004:0002c310       __imp__EndDoc@4            00609310     gdi32:GDI32.dll
 0004:0002c314       __imp__StartPage@4         00609314     gdi32:GDI32.dll
 0004:0002c318       __imp__EndPage@4           00609318     gdi32:GDI32.dll
 0004:0002c31c       __imp__ExtTextOutW@32      0060931c     gdi32:GDI32.dll
 0004:0002c320       __imp__TextOutW@20         00609320     gdi32:GDI32.dll
 0004:0002c324       __imp__GetTextExtentPoint32W@16 00609324     gdi32:GDI32.dll
 0004:0002c328       __imp__CreateBrushIndirect@4 00609328     gdi32:GDI32.dll
 0004:0002c32c       __imp__Arc@36              0060932c     gdi32:GDI32.dll
 0004:0002c330       __imp__Ellipse@20          00609330     gdi32:GDI32.dll
 0004:0002c334       GDI32_NULL_THUNK_DATA     00609334     gdi32:GDI32.dll
 0004:0002c338       __imp__ShellExecuteA@24    00609338     shell32:SHELL32.dll
 0004:0002c33c       __imp__SHAppBarMessage@8   0060933c     shell32:SHELL32.dll
 0004:0002c340       __imp__Shell_NotifyIconA@8 00609340     shell32:SHELL32.dll
 0004:0002c344       __imp__ExtractIconA@12     00609344     shell32:SHELL32.dll
 0004:0002c348       __imp__ExtractAssociatedIconA@12 00609348     shell32:SHELL32.dll
 0004:0002c34c       __imp__SHGetFileInfoA@20   0060934c     shell32:SHELL32.dll
 0004:0002c350       __imp__SHGetDesktopFolder@4 00609350     shell32:SHELL32.dll
 0004:0002c354       __imp__DragAcceptFiles@8   00609354     shell32:SHELL32.dll
 0004:0002c358       __imp__DragFinish@4        00609358     shell32:SHELL32.dll
 0004:0002c35c       __imp__DragQueryPoint@8    0060935c     shell32:SHELL32.dll
 0004:0002c360       __imp__DragQueryFileA@16   00609360     shell32:SHELL32.dll
 0004:0002c364       __imp__SHFileOperationA@4  00609364     shell32:SHELL32.dll
 0004:0002c368       __imp__ShellExecuteExA@4   00609368     shell32:SHELL32.dll
 0004:0002c36c       __imp__SHGetSpecialFolderLocation@12 0060936c     shell32:SHELL32.dll
 0004:0002c370       __imp__SHGetPathFromIDListA@8 00609370     shell32:SHELL32.dll
 0004:0002c374       __imp__SHBrowseForFolderA@4 00609374     shell32:SHELL32.dll
 0004:0002c378       SHELL32_NULL_THUNK_DATA   00609378     shell32:SHELL32.dll
 0004:0002c37c       __imp__Netbios@4           0060937c     netapi32:NETAPI32.dll
 0004:0002c380       __imp__NetShareAdd@16      00609380     netapi32:NETAPI32.dll
 0004:0002c384       __imp__NetShareDel@12      00609384     netapi32:NETAPI32.dll
 0004:0002c388       __imp__NetShareGetInfo@16  00609388     netapi32:NETAPI32.dll
 0004:0002c38c       __imp__NetApiBufferFree@4  0060938c     netapi32:NETAPI32.dll
 0004:0002c390       __imp__NetShareEnum@28     00609390     netapi32:NETAPI32.dll
 0004:0002c394       NETAPI32_NULL_THUNK_DATA  00609394     netapi32:NETAPI32.dll
 0004:0002c398       __imp__GetProcessMemoryInfo@12 00609398     psapi:PSAPI.DLL
 0004:0002c39c       PSAPI_NULL_THUNK_DATA     0060939c     psapi:PSAPI.DLL
 0004:0002c3a0       __imp__UuidCreate@4        006093a0     rpcrt4:RPCRT4.dll
 0004:0002c3a4       __imp__UuidToStringA@8     006093a4     rpcrt4:RPCRT4.dll
 0004:0002c3a8       RPCRT4_NULL_THUNK_DATA    006093a8     rpcrt4:RPCRT4.dll
 0004:000386c4       _fnIsWow64Process          006156c4     <common>
 0004:000386c8       _hb_stackST                006156c8     <common>
 0004:00039da0       _yyleng                    00616da0     <common>
 0004:00039da4       __fltused                  00616da4     <common>
 0004:00039da8       ___crtheap                 00616da8     <common>
 0004:00039dac       ___iolim                   00616dac     <common>
 0004:00039db0       ___iotab                   00616db0     <common>
 0004:00039eb0       ___argc                    00616eb0     <common>
 0004:00039eb4       ___argv                    00616eb4     <common>
 0004:00039eb8       ___envp                    00616eb8     <common>

 entry point at        0001:001088d0

 Static symbols

 0001:00000000       _hb_vm_SymbolInit_PROJECT1_MAIN 00401000 f   Project1_Main.obj
 0001:000000e0       _HB_FUN___PROJECT1_INIT    004010e0 f   Project1_XFM.obj
 0001:00000100       _hb_INITSTATICS            00401100 f   Project1_XFM.obj
 0001:00000070       _hb_vm_SymbolInit_PROJECT1_XFM 00401070 f   Project1_XFM.obj
 0001:000001a0       _HB_FUN_FORM1_INIT         004011a0 f   Form1.obj
 0001:000002c0       _HB_FUN_FORM1_FORM1_ONCREATE 004012c0 f   Form1.obj
 0001:000002e0       _HB_FUN_FORM1_FORM1_ONDESTROY 004012e0 f   Form1.obj
 0001:00000320       _HB_FUN_FORM1_FORM1_ONSHOWWINDOW 00401320 f   Form1.obj
 0001:00000200       _HB_FUN_FORM1_BTNABRIR_ONCLICK 00401200 f   Form1.obj
 0001:00000220       _HB_FUN_FORM1_BNTVENDER_ONCLICK 00401220 f   Form1.obj
 0001:00000240       _HB_FUN_FORM1_BTNPAGAR_ONCLICK 00401240 f   Form1.obj
 0001:00000260       _HB_FUN_FORM1_BTNFECHAR_ONCLICK 00401260 f   Form1.obj
 0001:00000300       _HB_FUN_FORM1_LABEL1_ONCLICK 00401300 f   Form1.obj
 0001:00000280       _HB_FUN_FORM1_BTNCANCELAR_ONCLICK 00401280 f   Form1.obj
 0001:000001e0       _HB_FUN_FORM1_BTNSTATUSIMPRESSORA_ONCLICK 004011e0 f   Form1.obj
 0001:000001c0       _HB_FUN_FORM1_BTNINFOSISTEMA_ONCLICK 004011c0 f   Form1.obj
 0001:00000380       _HB_FUN_FORM1_BTNNOTAERRO_ONCLICK 00401380 f   Form1.obj
 0001:000002a0       _HB_FUN_FORM1_BNTCONSULTARNOTA_ONCLICK 004012a0 f   Form1.obj
 0001:00000340       _HB_FUN_FORM1_BTNIMPRIMIR_ONCLICK 00401340 f   Form1.obj
 0001:00000360       _HB_FUN_FORM1_BTNCONSULTARNOTACHAVE_ONCLICK 00401360 f   Form1.obj
 0001:000003a0       _HB_FUN_FORM1_BTNESTORNARNOTA_ONCLICK 004013a0 f   Form1.obj
 0001:000003c0       _hb_INITSTATICS            004013c0 f   Form1.obj
 0001:000003e0       _hb_REGISTERGLOBALS        004013e0 f   Form1.obj
 0001:00000120       _module_InitGlobalsArray   00401120 f   Form1.obj
 0001:00000130       _hb_vm_SymbolInit_FORM1    00401130 f   Form1.obj
 0001:00000490       _HB_FUN_init___INIT_EXCEPTION_RECORD 00401490 f   VXH:Application.obj
 0001:000004b0       _HB_FUN_init___INIT_CONTEXT 004014b0 f   VXH:Application.obj
 0001:000004d0       _HB_FUN_init___INIT_EXCEPTION_POINTERS 004014d0 f   VXH:Application.obj
 0001:000004f0       _HB_FUN_init___SETAUTOCLASSINIT 004014f0 f   VXH:Application.obj
 0001:00000510       _HB_FUN_exit___CLEANUP     00401510 f   VXH:Application.obj
 0001:00000550       _HB_FUN_init___GPFCATCH    00401550 f   VXH:Application.obj
 0001:00000810       _HB_FUN_VXH_DEFERROR       00401810 f   VXH:Application.obj
 0001:000005b0       _HB_FUN_APPLICATION_INIT   004015b0 f   VXH:Application.obj
 0001:000006b0       _HB_FUN_APPLICATION_RUN    004016b0 f   VXH:Application.obj
 0001:000006d0       _HB_FUN_APPLICATION_ADDACCELERATORS 004016d0 f   VXH:Application.obj
 0001:000006f0       _HB_FUN_APPLICATION_DELACCELERATORS 004016f0 f   VXH:Application.obj
 0001:00000670       _HB_FUN_APPLICATION_EXIT   00401670 f   VXH:Application.obj
 0001:00000750       _HB_FUN_APPLICATION_TRANSLATEACCELERATOR 00401750 f   VXH:Application.obj
 0001:00000690       _HB_FUN_APPLICATION_AXTRANSLATE 00401690 f   VXH:Application.obj
 0001:00000770       _HB_FUN_APPLICATION_MESSAGEBOX 00401770 f   VXH:Application.obj
 0001:00000650       _HB_FUN_APPLICATION_SAVERESOURCE 00401650 f   VXH:Application.obj
 0001:00000710       _HB_FUN_APPLICATION_SAVECUSTOMCOLORS 00401710 f   VXH:Application.obj
 0001:00000730       _HB_FUN_APPLICATION_LOADCUSTOMCOLORS 00401730 f   VXH:Application.obj
 0001:00000610       _HB_FUN_APPLICATION___SETASPROPERTY 00401610 f   VXH:Application.obj
 0001:000005f0       _HB_FUN_APPLICATION___INVALIDMEMBER 004015f0 f   VXH:Application.obj
 0001:00000630       _HB_FUN_APPLICATION___SETCOLORSCHEME 00401630 f   VXH:Application.obj
 0001:000005d0       _HB_FUN_APPLICATION_ONERROR 004015d0 f   VXH:Application.obj
 0001:000007b0       _HB_FUN___ALERTDLG_INIT    004017b0 f   VXH:Application.obj
 0001:000007d0       _HB_FUN___ALERTDLG_ONINITDIALOG 004017d0 f   VXH:Application.obj
 0001:00000830       _HB_FUN_LOGERROR           00401830 f   VXH:Application.obj
 0001:00000870       _HB_FUN_CONVERTARGS        00401870 f   VXH:Application.obj
 0001:00000850       _HB_FUN_GETVAL             00401850 f   VXH:Application.obj
 0001:000008f0       _HB_FUN_GENCODETEXT        004018f0 f   VXH:Application.obj
 0001:000008b0       _HB_FUN_DOSERRCODE         004018b0 f   VXH:Application.obj
 0001:000008d0       _HB_FUN_DOSERRTEXT         004018d0 f   VXH:Application.obj
 0001:000009b0       _hb_INITSTATICS            004019b0 f   VXH:Application.obj
 0001:00000440       _hb_vm_SymbolInit_APPLICATION 00401440 f   VXH:Application.obj
 0001:000011c0       _HB_FUN_WINDOW_MESSAGEWAIT 004021c0 f   VXH:Window.obj
 0001:00001120       _HB_FUN_WINDOW_ANIMATE     00402120 f   VXH:Window.obj
 0001:00000c60       _HB_FUN_WINDOW_DESTROY     00401c60 f   VXH:Window.obj
 0001:00000c00       _HB_FUN_WINDOW_CLOSE       00401c00 f   VXH:Window.obj
 0001:00000a60       _HB_FUN_WINDOW_INIT        00401a60 f   VXH:Window.obj
 0001:00000a40       _HB_FUN_WINDOW___WINDESTRUCT 00401a40 f   VXH:Window.obj
 0001:00000c20       _HB_FUN_WINDOW_CREATE      00401c20 f   VXH:Window.obj
 0001:00001200       _HB_FUN_WINDOW_UPDATESCROLLAREA 00402200 f   VXH:Window.obj
 0001:00000ba0       _HB_FUN_WINDOW___REGISTER  00401ba0 f   VXH:Window.obj
 0001:00001020       _HB_FUN_WINDOW___CONTROLPROC 00402020 f   VXH:Window.obj
 0001:00000ce0       _HB_FUN_WINDOW___CREATEMDI 00401ce0 f   VXH:Window.obj
 0001:00001160       _HB_FUN_WINDOW___ONPARENTSIZE 00402160 f   VXH:Window.obj
 0001:000010e0       _HB_FUN_WINDOW___SETSCROLLBARS 004020e0 f   VXH:Window.obj
 0001:00000ca0       _HB_FUN_WINDOW___SUBCLASS  00401ca0 f   VXH:Window.obj
 0001:00000cc0       _HB_FUN_WINDOW___UNSUBCLASS 00401cc0 f   VXH:Window.obj
 0001:00001280       _HB_FUN_WINDOW___GETSHOWMODE 00402280 f   VXH:Window.obj
 0001:000012a0       _HB_FUN_WINDOW___SETFRAMESTYLE 004022a0 f   VXH:Window.obj
 0001:000012c0       _HB_FUN_WINDOW___SETWINDOWCURSOR 004022c0 f   VXH:Window.obj
 0001:00000be0       _HB_FUN_WINDOW___SETSIZEPOS 00401be0 f   VXH:Window.obj
 0001:00000aa0       _HB_FUN_WINDOW___SETTHEMING 00401aa0 f   VXH:Window.obj
 0001:00000d40       _HB_FUN_WINDOW_ISCOVERED   00401d40 f   VXH:Window.obj
 0001:000010c0       _HB_FUN_WINDOW_GETWINDOWRECT 004020c0 f   VXH:Window.obj
 0001:00000d60       _HB_FUN_WINDOW_SETPARENT   00401d60 f   VXH:Window.obj
 0001:000010a0       _HB_FUN_WINDOW_GETCLIENTRECT 004020a0 f   VXH:Window.obj
 0001:00000b40       _HB_FUN_WINDOW_SETWINDOWTEXT 00401b40 f   VXH:Window.obj
 0001:00001180       _HB_FUN_WINDOW_TRACKMOUSEEVENT 00402180 f   VXH:Window.obj
 0001:00000da0       _HB_FUN_WINDOW_GETWINDOWPLACEMENT 00401da0 f   VXH:Window.obj
 0001:00000dc0       _HB_FUN_WINDOW_GETWINDOWINFO 00401dc0 f   VXH:Window.obj
 0001:00000de0       _HB_FUN_WINDOW_SETSTYLE    00401de0 f   VXH:Window.obj
 0001:00000d80       _HB_FUN_WINDOW_SETEXSTYLE  00401d80 f   VXH:Window.obj
 0001:00000d00       _HB_FUN_WINDOW_SETBACKCOLOR 00401d00 f   VXH:Window.obj
 0001:00000d20       _HB_FUN_WINDOW_SETFORECOLOR 00401d20 f   VXH:Window.obj
 0001:000011a0       _HB_FUN_WINDOW_MOVEWINDOW  004021a0 f   VXH:Window.obj
 0001:00001240       _HB_FUN_WINDOW_GETRECT     00402240 f   VXH:Window.obj
 0001:00000bc0       _HB_FUN_WINDOW_RECREATE    00401bc0 f   VXH:Window.obj
 0001:00001100       _HB_FUN_WINDOW_DOCKIT      00402100 f   VXH:Window.obj
 0001:00000ac0       _HB_FUN_WINDOW_SAVEVALUES  00401ac0 f   VXH:Window.obj
 0001:00000ae0       _HB_FUN_WINDOW_RESTOREVALUES 00401ae0 f   VXH:Window.obj
 0001:00000c80       _HB_FUN_WINDOW_REGISTERDOCKING 00401c80 f   VXH:Window.obj
 0001:00000f40       _HB_FUN_WINDOW_ONNCACTIVATE 00401f40 f   VXH:Window.obj
 0001:00000f60       _HB_FUN_WINDOW_ONMOUSEWHEEL 00401f60 f   VXH:Window.obj
 0001:00001220       _HB_FUN_WINDOW_ONHSCROLL   00402220 f   VXH:Window.obj
 0001:000011e0       _HB_FUN_WINDOW_ONVSCROLL   004021e0 f   VXH:Window.obj
 0001:00001040       _HB_FUN_WINDOW_ONMEASUREITEM 00402040 f   VXH:Window.obj
 0001:00001080       _HB_FUN_WINDOW_ONDRAWITEM  00402080 f   VXH:Window.obj
 0001:00001060       _HB_FUN_WINDOW_ONSETFOCUS  00402060 f   VXH:Window.obj
 0001:00001260       _HB_FUN_WINDOW_GETCHILDFROMPOINT 00402260 f   VXH:Window.obj
 0001:00000c40       _HB_FUN_WINDOW_ADDACCELERATOR 00401c40 f   VXH:Window.obj
 0001:00000b80       _HB_FUN_WINDOW_GETCCTL     00401b80 f   VXH:Window.obj
 0001:00001140       _HB_FUN_WINDOW___FIXDOCKING 00402140 f   VXH:Window.obj
 0001:00000b00       _HB_FUN_WINDOW_SAVELAYOUT  00401b00 f   VXH:Window.obj
 0001:00000b60       _HB_FUN_WINDOW_RESTORELAYOUT 00401b60 f   VXH:Window.obj
 0001:00000e40       _HB_FUN_WINDOW_ONDROPFILES 00401e40 f   VXH:Window.obj
 0001:00000e80       _HB_FUN_WINDOW_ONMOUSEMOVE 00401e80 f   VXH:Window.obj
 0001:00000e60       _HB_FUN_WINDOW_ONMOUSELEAVE 00401e60 f   VXH:Window.obj
 0001:00000ea0       _HB_FUN_WINDOW_ONNCMOUSEMOVE 00401ea0 f   VXH:Window.obj
 0001:00000ec0       _HB_FUN_WINDOW_ONNCMOUSEHOVER 00401ec0 f   VXH:Window.obj
 0001:00000ee0       _HB_FUN_WINDOW_ONNCMOUSELEAVE 00401ee0 f   VXH:Window.obj
 0001:00000f20       _HB_FUN_WINDOW_ONSIZE      00401f20 f   VXH:Window.obj
 0001:00000f00       _HB_FUN_WINDOW_ONSETCURSOR 00401f00 f   VXH:Window.obj
 0001:00000f80       _HB_FUN_WINDOW_ONCOMMAND   00401f80 f   VXH:Window.obj
 0001:00000fa0       _HB_FUN_WINDOW_BEGINPAINT  00401fa0 f   VXH:Window.obj
 0001:00000fc0       _HB_FUN_WINDOW_ENDPAINT    00401fc0 f   VXH:Window.obj
 0001:00000a80       _HB_FUN_WINDOW_GETCONTROL  00401a80 f   VXH:Window.obj
 0001:00000b20       _HB_FUN_WINDOW_ISCHILDOF   00401b20 f   VXH:Window.obj
 0001:00000fe0       _HB_FUN_WINDOW_ONNCDESTROY 00401fe0 f   VXH:Window.obj
 0001:00001000       _HB_FUN_WINDOW_ONERASEBKGND 00402000 f   VXH:Window.obj
 0001:00001320       _HB_FUN___WINDOWDOCK_INIT  00402320 f   VXH:Window.obj
 0001:000013a0       _HB_FUN___WINDOWDOCK_SETDOCK 004023a0 f   VXH:Window.obj
 0001:00001380       _HB_FUN___WINDOWDOCK_UPDATE 00402380 f   VXH:Window.obj
 0001:00001360       _HB_FUN___WINDOWDOCK_SETMARGINS 00402360 f   VXH:Window.obj
 0001:00001340       _HB_FUN___WINDOWDOCK_DESTROY 00402340 f   VXH:Window.obj
 0001:000013e0       _HB_FUN___ANCHORSET_INIT   004023e0 f   VXH:Window.obj
 0001:00001420       _HB_FUN___ANCHORSET_SETANCHOR 00402420 f   VXH:Window.obj
 0001:00001400       _HB_FUN___ANCHORSET_DESTROY 00402400 f   VXH:Window.obj
 0001:00001620       _HB_FUN_WINFORM_INIT       00402620 f   VXH:Window.obj
 0001:00001680       _HB_FUN_WINFORM_CREATE     00402680 f   VXH:Window.obj
 0001:00001860       _HB_FUN_WINFORM_MDIACTIVATE 00402860 f   VXH:Window.obj
 0001:000018a0       _HB_FUN_WINFORM_MDIDESTROY 004028a0 f   VXH:Window.obj
 0001:00001880       _HB_FUN_WINFORM_MDICLOSE   00402880 f   VXH:Window.obj
 0001:00001900       _HB_FUN_WINFORM_MDIGETACTIVE 00402900 f   VXH:Window.obj
 0001:000018c0       _HB_FUN_WINFORM_MDIMAXIMIZE 004028c0 f   VXH:Window.obj
 0001:000018e0       _HB_FUN_WINFORM_MDIRESTORE 004028e0 f   VXH:Window.obj
 0001:00001920       _HB_FUN_WINFORM_SETFORMICON 00402920 f   VXH:Window.obj
 0001:00001980       _HB_FUN_WINFORM_SETOPACITY 00402980 f   VXH:Window.obj
 0001:00001820       _HB_FUN_WINFORM_SHOW       00402820 f   VXH:Window.obj
 0001:000017c0       _HB_FUN_WINFORM_SAVELAYOUT 004027c0 f   VXH:Window.obj
 0001:000017e0       _HB_FUN_WINFORM_RESTORELAYOUT 004027e0 f   VXH:Window.obj
 0001:00001760       _HB_FUN_WINFORM_ONSIZE     00402760 f   VXH:Window.obj
 0001:00001960       _HB_FUN_WINFORM___SETBITMAPMASK 00402960 f   VXH:Window.obj
 0001:00001940       _HB_FUN_WINFORM___SETBITMAPMASKCOLOR 00402940 f   VXH:Window.obj
 0001:00001800       _HB_FUN_WINFORM___PAINTBAKGNDIMAGE 00402800 f   VXH:Window.obj
 0001:00001840       _HB_FUN_WINFORM___PRCMDIMENU 00402840 f   VXH:Window.obj
 0001:00001740       _HB_FUN_WINFORM___SETACTIVEMENUBAR 00402740 f   VXH:Window.obj
 0001:00001720       _HB_FUN_WINFORM___CREATEBKBRUSH 00402720 f   VXH:Window.obj
 0001:000019a0       _HB_FUN_WINFORM_SETIMAGELIST 004029a0 f   VXH:Window.obj
 0001:000017a0       _HB_FUN_WINFORM_SETBACKCOLOR 004027a0 f   VXH:Window.obj
 0001:000016e0       _HB_FUN_WINFORM_CENTERWINDOW 004026e0 f   VXH:Window.obj
 0001:00001700       _HB_FUN_WINFORM_ONNCDESTROY 00402700 f   VXH:Window.obj
 0001:000016c0       _HB_FUN_WINFORM___ONCLOSE  004026c0 f   VXH:Window.obj
 0001:00001780       _HB_FUN_WINFORM_ONSYSCOMMAND 00402780 f   VXH:Window.obj
 0001:00001660       _HB_FUN_WINFORM_SETINSTANCE 00402660 f   VXH:Window.obj
 0001:00001640       _HB_FUN_WINFORM___CREATEPROPERTY 00402640 f   VXH:Window.obj
 0001:000016a0       _HB_FUN_WINFORM_HIDE       004026a0 f   VXH:Window.obj
 0001:00001a40       _HB_FUN___ANIMATION_INIT   00402a40 f   VXH:Window.obj
 0001:00001b20       _hb_INITSTATICS            00402b20 f   VXH:Window.obj
 0001:000009d0       _hb_vm_SymbolInit_WINDOW   004019d0 f   VXH:Window.obj
 0001:00001bb0       _HB_FUN_BUTTON_INIT        00402bb0 f   VXH:Button.obj
 0001:00001c50       _HB_FUN_BUTTON_GETSTATE    00402c50 f   VXH:Button.obj
 0001:00001cb0       _HB_FUN_BUTTON_ONPARENTDRAWITEM 00402cb0 f   VXH:Button.obj
 0001:00001c90       _HB_FUN_BUTTON_DRAWFRAME   00402c90 f   VXH:Button.obj
 0001:00001cf0       _HB_FUN_BUTTON_ONCTLCOLORBTN 00402cf0 f   VXH:Button.obj
 0001:00001d10       _HB_FUN_BUTTON_ONCTLCOLORSTATIC 00402d10 f   VXH:Button.obj
 0001:00001c70       _HB_FUN_BUTTON_SETSTATE    00402c70 f   VXH:Button.obj
 0001:00001bd0       _HB_FUN_BUTTON_CREATE      00402bd0 f   VXH:Button.obj
 0001:00001bf0       _HB_FUN_BUTTON_SETBACKCOLOR 00402bf0 f   VXH:Button.obj
 0001:00001c10       _HB_FUN_BUTTON_SETFORECOLOR 00402c10 f   VXH:Button.obj
 0001:00001c30       _HB_FUN_BUTTON_SETIMAGEINDEX 00402c30 f   VXH:Button.obj
 0001:00001d30       _HB_FUN_BUTTON_ONMOUSEHOVER 00402d30 f   VXH:Button.obj
 0001:00001d50       _HB_FUN_BUTTON_ONMOUSELEAVE 00402d50 f   VXH:Button.obj
 0001:00001cd0       _HB_FUN_BUTTON_ONPARENTCOMMAND 00402cd0 f   VXH:Button.obj
 0001:00001d90       _HB_FUN_COMMANDLINK_INIT   00402d90 f   VXH:Button.obj
 0001:00001db0       _HB_FUN_COMMANDLINK_CREATE 00402db0 f   VXH:Button.obj
 0001:00001dd0       _HB_FUN_COMMANDLINK___SETNOTE 00402dd0 f   VXH:Button.obj
 0001:00001df0       _HB_FUN_COMMANDLINK_ONCTLCOLORBTN 00402df0 f   VXH:Button.obj
 0001:00001e10       _hb_INITSTATICS            00402e10 f   VXH:Button.obj
 0001:00001b40       _hb_vm_SymbolInit_BUTTON   00402b40 f   VXH:Button.obj
 0001:00001ea0       _HB_FUN_EDITBOX_INIT       00402ea0 f   VXH:Edit.obj
 0001:00001ee0       _HB_FUN_EDITBOX_CREATE     00402ee0 f   VXH:Edit.obj
 0001:00002040       _HB_FUN_EDITBOX_SETCASE    00403040 f   VXH:Edit.obj
 0001:00002060       _HB_FUN_EDITBOX_SETALIGNMENT 00403060 f   VXH:Edit.obj
 0001:000021c0       _HB_FUN_EDITBOX_ONCTLCOLOREDIT 004031c0 f   VXH:Edit.obj
 0001:000020a0       _HB_FUN_EDITBOX_ONCTLCOLORSTATIC 004030a0 f   VXH:Edit.obj
 0001:000021e0       _HB_FUN_EDITBOX_GETCUEBANNER 004031e0 f   VXH:Edit.obj
 0001:00002200       _HB_FUN_EDITBOX_GETLINE    00403200 f   VXH:Edit.obj
 0001:00002220       _HB_FUN_EDITBOX_GETEDITRECT 00403220 f   VXH:Edit.obj
 0001:00002240       _HB_FUN_EDITBOX_GETSEL     00403240 f   VXH:Edit.obj
 0001:00001f20       _HB_FUN_EDITBOX_SETCUEBANNER 00402f20 f   VXH:Edit.obj
 0001:00001f00       _HB_FUN_EDITBOX_ONERASEBKGND 00402f00 f   VXH:Edit.obj
 0001:00002260       _HB_FUN_EDITBOX_SETRECT    00403260 f   VXH:Edit.obj
 0001:00002280       _HB_FUN_EDITBOX_SETRECTNP  00403280 f   VXH:Edit.obj
 0001:000022a0       _HB_FUN_EDITBOX_SETTABSTOPS 004032a0 f   VXH:Edit.obj
 0001:000022c0       _HB_FUN_EDITBOX_SHOWBALLOONTIP 004032c0 f   VXH:Edit.obj
 0001:000022e0       _HB_FUN_EDITBOX_ONPARENTCOMMAND 004032e0 f   VXH:Edit.obj
 0001:00002120       _HB_FUN_EDITBOX_ONNCCALCSIZE 00403120 f   VXH:Edit.obj
 0001:00002140       _HB_FUN_EDITBOX_ONNCPAINT  00403140 f   VXH:Edit.obj
 0001:00002160       _HB_FUN_EDITBOX_ONNCLBUTTONDOWN 00403160 f   VXH:Edit.obj
 0001:00002180       _HB_FUN_EDITBOX_ONNCLBUTTONUP 00403180 f   VXH:Edit.obj
 0001:000021a0       _HB_FUN_EDITBOX_ONNCHITTEST 004031a0 f   VXH:Edit.obj
 0001:000020c0       _HB_FUN_EDITBOX___SETCONTEXTMENU 004030c0 f   VXH:Edit.obj
 0001:00002080       _HB_FUN_EDITBOX___SETSELCOLOR 00403080 f   VXH:Edit.obj
 0001:00002300       _HB_FUN_EDITBOX_ONKEYDOWN  00403300 f   VXH:Edit.obj
 0001:00001fe0       _HB_FUN_EDITBOX_ONGETDLGCODE 00402fe0 f   VXH:Edit.obj
 0001:00001f80       _HB_FUN_EDITBOX_ONKILLFOCUS 00402f80 f   VXH:Edit.obj
 0001:00001fc0       _HB_FUN_EDITBOX_ONLBUTTONDOWN 00402fc0 f   VXH:Edit.obj
 0001:00002320       _HB_FUN_EDITBOX_ONCHAR     00403320 f   VXH:Edit.obj
 0001:00002360       _HB_FUN_EDITBOX_ONPASTE    00403360 f   VXH:Edit.obj
 0001:00002340       _HB_FUN_EDITBOX_ONUNDO     00403340 f   VXH:Edit.obj
 0001:00002380       _HB_FUN_EDITBOX_ONCUT      00403380 f   VXH:Edit.obj
 0001:00002000       _HB_FUN_EDITBOX___SETLAYOUT 00403000 f   VXH:Edit.obj
 0001:00002020       _HB_FUN_EDITBOX___SETIMAGEINDEX 00403020 f   VXH:Edit.obj
 0001:00001f60       _HB_FUN_EDITBOX___UPDATEDATAGRID 00402f60 f   VXH:Edit.obj
 0001:00001fa0       _HB_FUN_EDITBOX___CHKGRIDKEYS 00402fa0 f   VXH:Edit.obj
 0001:00002100       _HB_FUN_EDITBOX_ONNCMOUSEMOVE 00403100 f   VXH:Edit.obj
 0001:000020e0       _HB_FUN_EDITBOX_ONMOUSEMOVE 004030e0 f   VXH:Edit.obj
 0001:00001f40       _HB_FUN_EDITBOX___SETAUTOSCROLL 00402f40 f   VXH:Edit.obj
 0001:00001ec0       _HB_FUN_EDITBOX___SETMENUARROW 00402ec0 f   VXH:Edit.obj
 0001:000023c0       _hb_INITSTATICS            004033c0 f   VXH:Edit.obj
 0001:00001e30       _hb_vm_SymbolInit_EDIT     00402e30 f   VXH:Edit.obj
 0001:00002450       _HB_FUN_LABEL_INIT         00403450 f   VXH:Label.obj
 0001:00002470       _HB_FUN_LABEL_CREATE       00403470 f   VXH:Label.obj
 0001:00002510       _HB_FUN_LABEL_ONPAINT      00403510 f   VXH:Label.obj
 0001:000024b0       _HB_FUN_LABEL___SETBLINKCOLOR 004034b0 f   VXH:Label.obj
 0001:000024f0       _HB_FUN_LABEL_ONLBUTTONUP  004034f0 f   VXH:Label.obj
 0001:000024d0       _HB_FUN_LABEL_ONTIMER      004034d0 f   VXH:Label.obj
 0001:00002490       _HB_FUN_LABEL_SETFORECOLOR 00403490 f   VXH:Label.obj
 0001:00002550       _HB_FUN_LINE_INIT          00403550 f   VXH:Label.obj
 0001:00002570       _HB_FUN_LINE_CREATE        00403570 f   VXH:Label.obj
 0001:00002610       _HB_FUN_LINE_ONERASEBKGND  00403610 f   VXH:Label.obj
 0001:000025f0       _HB_FUN_LINE_ONSIZE        004035f0 f   VXH:Label.obj
 0001:00002590       _HB_FUN_LINE___SETVERTICAL 00403590 f   VXH:Label.obj
 0001:000025b0       _HB_FUN_LINE___SETSUNKEN   004035b0 f   VXH:Label.obj
 0001:000025d0       _HB_FUN_LINE___SETLENGHT   004035d0 f   VXH:Label.obj
 0001:00002630       _hb_INITSTATICS            00403630 f   VXH:Label.obj
 0001:000023e0       _hb_vm_SymbolInit_LABEL    004033e0 f   VXH:Label.obj
 0001:000026c0       _HB_FUN_CHECKBOX_INIT      004036c0 f   VXH:CheckBox.obj
 0001:00002700       _HB_FUN_CHECKBOX_CREATE    00403700 f   VXH:CheckBox.obj
 0001:00002760       _HB_FUN_CHECKBOX_DRAWFRAME 00403760 f   VXH:CheckBox.obj
 0001:00002780       _HB_FUN_CHECKBOX_SETCHECKSTYLE 00403780 f   VXH:CheckBox.obj
 0001:000027a0       _HB_FUN_CHECKBOX_ONCTLCOLORSTATIC 004037a0 f   VXH:CheckBox.obj
 0001:00002740       _HB_FUN_CHECKBOX_ONPARENTNOTIFY 00403740 f   VXH:CheckBox.obj
 0001:000027c0       _HB_FUN_CHECKBOX_SETSTATE  004037c0 f   VXH:CheckBox.obj
 0001:000026e0       _HB_FUN_CHECKBOX___SETSIZE 004036e0 f   VXH:CheckBox.obj
 0001:00002720       _HB_FUN_CHECKBOX_ONPARENTCOMMAND 00403720 f   VXH:CheckBox.obj
 0001:000027e0       _hb_INITSTATICS            004037e0 f   VXH:CheckBox.obj
 0001:00002650       _hb_vm_SymbolInit_CHECKBOX 00403650 f   VXH:CheckBox.obj
 0001:00002870       _HB_FUN_COMBOBOX_INIT      00403870 f   VXH:ComboBox.obj
 0001:00002a50       _HB_FUN_COMBOBOX_GETSTRING 00403a50 f   VXH:ComboBox.obj
 0001:000029d0       _HB_FUN_COMBOBOX_ADDSTRING 004039d0 f   VXH:ComboBox.obj
 0001:000029b0       _HB_FUN_COMBOBOX_FINDSTRINGEXACT 004039b0 f   VXH:ComboBox.obj
 0001:000028b0       _HB_FUN_COMBOBOX_GETEDITTEXT 004038b0 f   VXH:ComboBox.obj
 0001:00002a10       _HB_FUN_COMBOBOX_GETCOMBOBOXINFO 00403a10 f   VXH:ComboBox.obj
 0001:000029f0       _HB_FUN_COMBOBOX_GETSELSTRING 004039f0 f   VXH:ComboBox.obj
 0001:00002a30       _HB_FUN_COMBOBOX_DRAWFRAME 00403a30 f   VXH:ComboBox.obj
 0001:00002a70       _HB_FUN_COMBOBOX_ONPARENTCOMMAND 00403a70 f   VXH:ComboBox.obj
 0001:000028f0       _HB_FUN_COMBOBOX_CREATE    004038f0 f   VXH:ComboBox.obj
 0001:00002990       _HB_FUN_COMBOBOX_SETITEMHEIGHT 00403990 f   VXH:ComboBox.obj
 0001:000028d0       _HB_FUN_COMBOBOX_SETDROPDOWNSTYLE 004038d0 f   VXH:ComboBox.obj
 0001:00002a90       _HB_FUN_COMBOBOX___LISTCALLBACK 00403a90 f   VXH:ComboBox.obj
 0001:00002ad0       _HB_FUN_COMBOBOX___TIPCALLBACK 00403ad0 f   VXH:ComboBox.obj
 0001:00002b30       _HB_FUN_COMBOBOX___LISTBOXMOUSEMOVE 00403b30 f   VXH:ComboBox.obj
 0001:00002ab0       _HB_FUN_COMBOBOX___TRACKMOUSEEVENT 00403ab0 f   VXH:ComboBox.obj
 0001:00002af0       _HB_FUN_COMBOBOX___HANDLEONPAINT 00403af0 f   VXH:ComboBox.obj
 0001:00002b10       _HB_FUN_COMBOBOX___HANDLEONTIMER 00403b10 f   VXH:ComboBox.obj
 0001:00002970       _HB_FUN_COMBOBOX___SETITEMTOOLTIPS 00403970 f   VXH:ComboBox.obj
 0001:00002930       _HB_FUN_COMBOBOX___COMBOBOXEDITPROC 00403930 f   VXH:ComboBox.obj
 0001:00002910       _HB_FUN_COMBOBOX___RESETEDIT 00403910 f   VXH:ComboBox.obj
 0001:00002890       _HB_FUN_COMBOBOX___SETSIZEPOS 00403890 f   VXH:ComboBox.obj
 0001:00002950       _HB_FUN_COMBOBOX_ONPARENTDRAWITEM 00403950 f   VXH:ComboBox.obj
 0001:00002b70       _HB_FUN_DRIVECOMBOBOX_INIT 00403b70 f   VXH:ComboBox.obj
 0001:00002b90       _HB_FUN_DRIVECOMBOBOX_CREATE 00403b90 f   VXH:ComboBox.obj
 0001:00002bb0       _HB_FUN_DRIVECOMBOBOX_ONPARENTDRAWITEM 00403bb0 f   VXH:ComboBox.obj
 0001:00002bf0       _HB_FUN_COLORPICKER_INIT   00403bf0 f   VXH:ComboBox.obj
 0001:00002c30       _HB_FUN_COLORPICKER_CREATE 00403c30 f   VXH:ComboBox.obj
 0001:00002c70       _HB_FUN_COLORPICKER_ONPARENTDRAWITEM 00403c70 f   VXH:ComboBox.obj
 0001:00002c50       _HB_FUN_COLORPICKER_ONPARENTCOMMAND 00403c50 f   VXH:ComboBox.obj
 0001:00002c10       _HB_FUN_COLORPICKER_SELECTCOLOR 00403c10 f   VXH:ComboBox.obj
 0001:00002cb0       _HB_FUN_CURSORCOMBOBOX_INIT 00403cb0 f   VXH:ComboBox.obj
 0001:00002cd0       _HB_FUN_CURSORCOMBOBOX_CREATE 00403cd0 f   VXH:ComboBox.obj
 0001:00002cf0       _HB_FUN_CURSORCOMBOBOX_ONPARENTDRAWITEM 00403cf0 f   VXH:ComboBox.obj
 0001:00002d30       _HB_FUN_FONTCOMBOBOX_INIT  00403d30 f   VXH:ComboBox.obj
 0001:00002d50       _HB_FUN_FONTCOMBOBOX_CREATE 00403d50 f   VXH:ComboBox.obj
 0001:00002d70       _HB_FUN_FONTCOMBOBOX_ONPARENTDRAWITEM 00403d70 f   VXH:ComboBox.obj
 0001:00002db0       _HB_FUN_COMBOBOXEX_INIT    00403db0 f   VXH:ComboBox.obj
 0001:00002df0       _HB_FUN_COMBOBOXEX_ADDITEM 00403df0 f   VXH:ComboBox.obj
 0001:00002dd0       _HB_FUN_COMBOBOXEX_CREATE  00403dd0 f   VXH:ComboBox.obj
 0001:00002e10       _HB_FUN_COMBOBOXEX_SETIMAGELIST 00403e10 f   VXH:ComboBox.obj
 0001:00002e30       _HB_FUN_COMBOBOXEX_ONSIZE  00403e30 f   VXH:ComboBox.obj
 0001:00002e70       _HB_FUN_COMBOBOXEX_SETITEMHEIGHT 00403e70 f   VXH:ComboBox.obj
 0001:00002e50       _HB_FUN_COMBOBOXEX_ONMOVE  00403e50 f   VXH:ComboBox.obj
 0001:00002eb0       _HB_FUN_FORMCOMBOBOX_INIT  00403eb0 f   VXH:ComboBox.obj
 0001:00002f70       _HB_FUN_FORMCOMBOBOX_ONPARENTDRAWITEM 00403f70 f   VXH:ComboBox.obj
 0001:00002f30       _HB_FUN_FORMCOMBOBOX_RESET 00403f30 f   VXH:ComboBox.obj
 0001:00002ed0       _HB_FUN_FORMCOMBOBOX_CREATE 00403ed0 f   VXH:ComboBox.obj
 0001:00002f90       _HB_FUN_FORMCOMBOBOX_ONPARENTCOMMAND 00403f90 f   VXH:ComboBox.obj
 0001:00002f10       _HB_FUN_FORMCOMBOBOX_SELECTCONTROL 00403f10 f   VXH:ComboBox.obj
 0001:00002ef0       _HB_FUN_FORMCOMBOBOX_RESETCONTENT 00403ef0 f   VXH:ComboBox.obj
 0001:00002fb0       _hb_INITSTATICS            00403fb0 f   VXH:ComboBox.obj
 0001:00002800       _hb_vm_SymbolInit_COMBOBOX 00403800 f   VXH:ComboBox.obj
 0001:00003150       _HB_FUN_init__INITSYMBOLS_ 00404150 f   VXH:winapi.obj
 0001:000038a0       _HB_FUN_exit__CLEANUP_     004048a0 f   VXH:winapi.obj
 0001:00003020       _winapi_Exit               00404020 f   VXH:winapi.obj
 0001:00003030       _winapi_Init               00404030 f   VXH:winapi.obj
 0001:000030b0       _hbtRetnl                  004040b0 f   VXH:winapi.obj
 0001:00003a90       _hb_pureparam              00404a90 f   VXH:winapi.obj
 0001:00003090       __winapi_init_             00404090 f   VXH:winapi.obj
 0001:00002fd0       _winapi__InitSymbols       00403fd0 f   VXH:winapi.obj
 0001:00018510       _HB_FUN_ALERTDIALOG_INIT   00419510 f   VXH:Alert.obj
 0001:00018530       _HB_FUN_ALERTDIALOG_ONINITDIALOG 00419530 f   VXH:Alert.obj
 0001:00018550       _hb_INITSTATICS            00419550 f   VXH:Alert.obj
 0001:00018480       _hb_vm_SymbolInit_ALERT    00419480 f   VXH:Alert.obj
 0001:000185c0       _HB_FUN_init___INIT_WNDCLASS 004195c0 f   VXH:System.obj
 0001:000185e0       _HB_FUN_init___INIT_NMHDR  004195e0 f   VXH:System.obj
 0001:00018600       _HB_FUN_init___INIT_POINT  00419600 f   VXH:System.obj
 0001:00018620       _HB_FUN_init___INIT_MSG    00419620 f   VXH:System.obj
 0001:00018640       _HB_FUN_init___INIT_SIZE   00419640 f   VXH:System.obj
 0001:00018660       _HB_FUN_init___INIT_TEXTMETRIC 00419660 f   VXH:System.obj
 0001:00018680       _HB_FUN_init___INIT_RECT   00419680 f   VXH:System.obj
 0001:000186a0       _HB_FUN_init___INIT_PAINTSTRUCT 004196a0 f   VXH:System.obj
 0001:000186c0       _HB_FUN_init___INIT_WNDCLASSEX 004196c0 f   VXH:System.obj
 0001:000186e0       _HB_FUN_init___INIT_OSVERSIONINFOEX 004196e0 f   VXH:System.obj
 0001:00018700       _HB_FUN_init___INIT_OSVERSIONINFO 00419700 f   VXH:System.obj
 0001:00018720       _HB_FUN_init___INIT_LOGFONT 00419720 f   VXH:System.obj
 0001:00018740       _HB_FUN_init___INIT_XLOGFONT 00419740 f   VXH:System.obj
 0001:00018760       _HB_FUN_init___INIT_ENUMLOGFONT 00419760 f   VXH:System.obj
 0001:00018780       _HB_FUN_init___INIT_NONCLIENTMETRICS 00419780 f   VXH:System.obj
 0001:000187a0       _HB_FUN_init___INIT_DRAWITEMSTRUCT 004197a0 f   VXH:System.obj
 0001:000187c0       _HB_FUN_init___INIT_MEASUREITEMSTRUCT 004197c0 f   VXH:System.obj
 0001:000187e0       _HB_FUN_init___INIT_TBBUTTONINFOA 004197e0 f   VXH:System.obj
 0001:00018800       _HB_FUN_init___INIT_TBBUTTON 00419800 f   VXH:System.obj
 0001:00018820       _HB_FUN_init___INIT_COLORSCHEME 00419820 f   VXH:System.obj
 0001:00018840       _HB_FUN_init___INIT_REBARINFO 00419840 f   VXH:System.obj
 0001:00018860       _HB_FUN_init___INIT_REBARBANDINFOA 00419860 f   VXH:System.obj
 0001:00018880       _HB_FUN_init___INIT_NMCUSTOMDRAW 00419880 f   VXH:System.obj
 0001:000188a0       _HB_FUN_init___INIT_NMTBCUSTOMDRAW 004198a0 f   VXH:System.obj
 0001:000188c0       _HB_FUN_init___INIT_NMTBHOTITEM 004198c0 f   VXH:System.obj
 0001:000188e0       _HB_FUN_init___INIT_TOOLINFOA 004198e0 f   VXH:System.obj
 0001:00018900       _HB_FUN_init___INIT_SCROLLBARINFO 00419900 f   VXH:System.obj
 0001:00018920       _HB_FUN_init___INIT_WINDOWPOS 00419920 f   VXH:System.obj
 0001:00018940       _HB_FUN_init___INIT_MDINEXTMENU 00419940 f   VXH:System.obj
 0001:00018960       _HB_FUN_init___INIT_CLIENTCREATESTRUCT 00419960 f   VXH:System.obj
 0001:00018980       _HB_FUN_init___INIT_CREATESTRUCT 00419980 f   VXH:System.obj
 0001:000189a0       _HB_FUN_init___INIT_TOOLTIPTEXT 004199a0 f   VXH:System.obj
 0001:000189c0       _HB_FUN_init___INIT_NMREBAR 004199c0 f   VXH:System.obj
 0001:000189e0       _HB_FUN_init___INIT_NMREBARCHEVRON 004199e0 f   VXH:System.obj
 0001:00018a00       _HB_FUN_init___INIT_MENUINFO 00419a00 f   VXH:System.obj
 0001:00018a20       _HB_FUN_init___INIT_MENUITEMINFO 00419a20 f   VXH:System.obj
 0001:00018a40       _HB_FUN_init___INIT_NMTOOLBARA 00419a40 f   VXH:System.obj
 0001:00018a60       _HB_FUN_init___INIT_ICONINFO 00419a60 f   VXH:System.obj
 0001:00018a80       _HB_FUN_init___INIT_SCROLLINFO 00419a80 f   VXH:System.obj
 0001:00018aa0       _HB_FUN_init___INIT_NCCALCSIZE_PARAMS 00419aa0 f   VXH:System.obj
 0001:00018ac0       _HB_FUN_init___INIT_HDITEM 00419ac0 f   VXH:System.obj
 0001:00018ae0       _HB_FUN_init___INIT_NMHEADER 00419ae0 f   VXH:System.obj
 0001:00018b00       _HB_FUN_init___INIT_DLGITEMTEMPLATE 00419b00 f   VXH:System.obj
 0001:00018b20       _HB_FUN_init___INIT_DLGTEMPLATE 00419b20 f   VXH:System.obj
 0001:00018b40       _HB_FUN_init___INIT_DLGTEMPLATEEX 00419b40 f   VXH:System.obj
 0001:00018b60       _HB_FUN_init___INIT_TRACKMOUSEEVENT 00419b60 f   VXH:System.obj
 0001:00018b80       _HB_FUN_init___INIT_TBADDBITMAP 00419b80 f   VXH:System.obj
 0001:00018ba0       _HB_FUN_init___INIT_TCITEMA 00419ba0 f   VXH:System.obj
 0001:00018bc0       _HB_FUN_init___INIT_TVITEMA 00419bc0 f   VXH:System.obj
 0001:00018be0       _HB_FUN_init___INIT_TVITEMEX 00419be0 f   VXH:System.obj
 0001:00018c00       _HB_FUN_init___INIT_TVINSERTSTRUCT 00419c00 f   VXH:System.obj
 0001:00018c20       _HB_FUN_init___INIT_NMTREEVIEWA 00419c20 f   VXH:System.obj
 0001:00018c40       _HB_FUN_init___INIT_NMTVCUSTOMDRAW 00419c40 f   VXH:System.obj
 0001:00018c60       _HB_FUN_init___INIT_TVHITTESTINFO 00419c60 f   VXH:System.obj
 0001:00018c80       _HB_FUN_init___INIT_LVITEMA 00419c80 f   VXH:System.obj
 0001:00018ca0       _HB_FUN_init___INIT_LVCOLUMNA 00419ca0 f   VXH:System.obj
 0001:00018cc0       _HB_FUN_init___INIT_CHOOSEFONT 00419cc0 f   VXH:System.obj
 0001:00018ce0       _HB_FUN_init___INIT_NMPGCALCSIZE 00419ce0 f   VXH:System.obj
 0001:00018d00       _HB_FUN_init___INIT_NMPGSCROLL 00419d00 f   VXH:System.obj
 0001:00018d20       _HB_FUN_init___INIT_OPENFILENAME 00419d20 f   VXH:System.obj
 0001:00018d40       _HB_FUN_init___INIT_NMTVKEYDOWN 00419d40 f   VXH:System.obj
 0001:00018d60       _HB_FUN_init___INIT_WINDOWPLACEMENT 00419d60 f   VXH:System.obj
 0001:00018d80       _HB_FUN_init___INIT_NMTVGETINFOTIPA 00419d80 f   VXH:System.obj
 0001:00018da0       _HB_FUN_init___INIT_LITEM  00419da0 f   VXH:System.obj
 0001:00018dc0       _HB_FUN_init___INIT_RBHITTESTINFO 00419dc0 f   VXH:System.obj
 0001:00018de0       _HB_FUN_init___INIT_POINTS 00419de0 f   VXH:System.obj
 0001:00018e00       _HB_FUN_init___INIT_SECURITY_ATTRIBUTES 00419e00 f   VXH:System.obj
 0001:00018e20       _HB_FUN_init___INIT_SYSTEMTIME 00419e20 f   VXH:System.obj
 0001:00018e40       _HB_FUN_init___INIT_NMDATETIMECHANGE 00419e40 f   VXH:System.obj
 0001:00018e60       _HB_FUN_init___INIT_DLGTEMPLATEX 00419e60 f   VXH:System.obj
 0001:00018e80       _HB_FUN_init___INIT_WINDOWINFO 00419e80 f   VXH:System.obj
 0001:00018ea0       _HB_FUN_init___INIT_MINMAXINFO 00419ea0 f   VXH:System.obj
 0001:00018ec0       _HB_FUN_init___INIT_COMBOBOXEXITEMA 00419ec0 f   VXH:System.obj
 0001:00018ee0       _HB_FUN_init___INIT_DEVNAMES 00419ee0 f   VXH:System.obj
 0001:00018f00       _HB_FUN_init___INIT_PRINTDLG 00419f00 f   VXH:System.obj
 0001:00018f20       _HB_FUN_init___INIT_PRINTDLGEX 00419f20 f   VXH:System.obj
 0001:00018f40       _HB_FUN_init___INIT_EDITBALLOONTIP 00419f40 f   VXH:System.obj
 0001:00018f60       _HB_FUN_init___INIT_NMLVCUSTOMDRAW 00419f60 f   VXH:System.obj
 0001:00018f80       _HB_FUN_init___INIT_HDHITTESTINFO 00419f80 f   VXH:System.obj
 0001:00018fa0       _HB_FUN_init___INIT_IMAGEINFO 00419fa0 f   VXH:System.obj
 0001:00018fc0       _HB_FUN_init___INIT_NMLINK 00419fc0 f   VXH:System.obj
 0001:00018fe0       _HB_FUN_init___INIT_LVGROUP 00419fe0 f   VXH:System.obj
 0001:00019000       _HB_FUN_init___INIT_LVWITEM 0041a000 f   VXH:System.obj
 0001:00019020       _HB_FUN_init___INIT_NMLVDISPINFOA 0041a020 f   VXH:System.obj
 0001:00019040       _HB_FUN_init___INIT_NMLVCACHEHINT 0041a040 f   VXH:System.obj
 0001:00019060       _HB_FUN_init___INIT_LVGROUPMETRICS 0041a060 f   VXH:System.obj
 0001:00019080       _HB_FUN_init___INIT_NMDAYSTATE 0041a080 f   VXH:System.obj
 0001:000190a0       _HB_FUN_init___INIT_NMSELCHANGE 0041a0a0 f   VXH:System.obj
 0001:000190c0       _HB_FUN_init___INIT_NOTIFYICONDATA 0041a0c0 f   VXH:System.obj
 0001:000190e0       _HB_FUN_init___INIT_CHARRANGE 0041a0e0 f   VXH:System.obj
 0001:00019100       _HB_FUN_init___INIT_FINDTEXT 0041a100 f   VXH:System.obj
 0001:00019120       _HB_FUN_init___INIT_GETTEXTLENGTHEX 0041a120 f   VXH:System.obj
 0001:00019140       _HB_FUN_init___INIT_NMUPDOWN 0041a140 f   VXH:System.obj
 0001:00019160       _HB_FUN_init___INIT_TCHITTESTINFO 0041a160 f   VXH:System.obj
 0001:00019180       _HB_FUN_init___INIT_NMTCKEYDOWN 0041a180 f   VXH:System.obj
 0001:000191a0       _HB_FUN_init___INIT_TASKPANE 0041a1a0 f   VXH:System.obj
 0001:000191c0       _HB_FUN_init___INIT_TASKNORMAL 0041a1c0 f   VXH:System.obj
 0001:000191e0       _HB_FUN_init___INIT_TASKSPECIAL 0041a1e0 f   VXH:System.obj
 0001:00019200       _HB_FUN_init___INIT_HEADERNORMAL 0041a200 f   VXH:System.obj
 0001:00019220       _HB_FUN_init___INIT_HEADERSPECIAL 0041a220 f   VXH:System.obj
 0001:00019240       _HB_FUN_init___INIT_EXPBARINFO 0041a240 f   VXH:System.obj
 0001:00019260       _HB_FUN_init___INIT_MAPIFILEDESC 0041a260 f   VXH:System.obj
 0001:00019280       _HB_FUN_init___INIT_MAPIFILETAGEXT 0041a280 f   VXH:System.obj
 0001:000192a0       _HB_FUN_init___INIT_MAPIRECIPDESC 0041a2a0 f   VXH:System.obj
 0001:000192c0       _HB_FUN_init___INIT_MAPIMESSAGE 0041a2c0 f   VXH:System.obj
 0001:000192e0       _HB_FUN_init___INIT_SERVICE_STATUS 0041a2e0 f   VXH:System.obj
 0001:00019300       _HB_FUN_init___INIT_SHFILEINFO 0041a300 f   VXH:System.obj
 0001:00019320       _HB_FUN_init___INIT_COMMTIMEOUTS 0041a320 f   VXH:System.obj
 0001:00019340       _HB_FUN_init___INIT_OVERLAPPED 0041a340 f   VXH:System.obj
 0001:00019360       _HB_FUN_init___INIT_MONITORINFOEX 0041a360 f   VXH:System.obj
 0001:00019380       _HB_FUN_init___INIT_CWPSTRUCT 0041a380 f   VXH:System.obj
 0001:000193a0       _HB_FUN_init___INIT_TRIVERTEX 0041a3a0 f   VXH:System.obj
 0001:000193c0       _HB_FUN_init___INIT_GRADIENT_RECT 0041a3c0 f   VXH:System.obj
 0001:000193e0       _HB_FUN_init___INIT_GRADIENT_TRIANGLE 0041a3e0 f   VXH:System.obj
 0001:00019400       _HB_FUN_init___INIT_FILETIME 0041a400 f   VXH:System.obj
 0001:00019420       _HB_FUN_init___INIT_WIN32_FIND_DATA 0041a420 f   VXH:System.obj
 0001:00019440       _HB_FUN_init___INIT_NMLISTVIEW 0041a440 f   VXH:System.obj
 0001:00019460       _HB_FUN_init___INIT_NMLVKEYDOWN 0041a460 f   VXH:System.obj
 0001:00019480       _HB_FUN_init___INIT_LVFINDINFOA 0041a480 f   VXH:System.obj
 0001:000194a0       _HB_FUN_init___INIT_NMLVFINDITEMA 0041a4a0 f   VXH:System.obj
 0001:000194c0       _HB_FUN_init___INIT_CHARFORMAT 0041a4c0 f   VXH:System.obj
 0001:000194e0       _HB_FUN_init___INIT_EDITSTREAM 0041a4e0 f   VXH:System.obj
 0001:00019500       _HB_FUN_init___INIT_HYPHENATEINFO 0041a500 f   VXH:System.obj
 0001:00019520       _HB_FUN_init___INIT_MEMORYSTATUS 0041a520 f   VXH:System.obj
 0001:00019540       _HB_FUN_init___INIT_MEMORYSTATUSEX 0041a540 f   VXH:System.obj
 0001:00019560       _HB_FUN_init___INIT_PERFORMANCE_INFORMATION 0041a560 f   VXH:System.obj
 0001:00019580       _HB_FUN_init___INIT_BY_HANDLE_FILE_INFORMATION 0041a580 f   VXH:System.obj
 0001:000195a0       _HB_FUN_init___INIT_OFSTRUCT 0041a5a0 f   VXH:System.obj
 0001:000195c0       _HB_FUN_init___INIT_DCB    0041a5c0 f   VXH:System.obj
 0001:000195e0       _HB_FUN_init___INIT_COMSTAT 0041a5e0 f   VXH:System.obj
 0001:00019600       _HB_FUN_init___INIT_COMMPROP 0041a600 f   VXH:System.obj
 0001:00019620       _HB_FUN_init___INIT_HELPINFO 0041a620 f   VXH:System.obj
 0001:00019640       _HB_FUN_init___INIT_BITMAP 0041a640 f   VXH:System.obj
 0001:00019660       _HB_FUN_init___INIT_MOUSEHOOKSTRUCT 0041a660 f   VXH:System.obj
 0001:00019680       _HB_FUN_init___INIT_NMTTDISPINFOA 0041a680 f   VXH:System.obj
 0001:000196a0       _HB_FUN_init___INIT_DWM_BLURBEHIND 0041a6a0 f   VXH:System.obj
 0001:000196c0       _HB_FUN_init___INIT_MARGINS 0041a6c0 f   VXH:System.obj
 0001:000196e0       _HB_FUN_init___INIT_NMITEMACTIVATE 0041a6e0 f   VXH:System.obj
 0001:00019700       _HB_FUN_init___INIT_SHFILEOPSTRUCT 0041a700 f   VXH:System.obj
 0001:00019720       _HB_FUN_init___INIT_QUERY_SERVICE_CONFIG 0041a720 f   VXH:System.obj
 0001:00019740       _HB_FUN_init___INIT_SERVICE_DESCRIPTION 0041a740 f   VXH:System.obj
 0001:00019760       _HB_FUN_init___INIT_SHELLEXECUTEINFO 0041a760 f   VXH:System.obj
 0001:00019780       _HB_FUN_init___INIT_RGBQUAD 0041a780 f   VXH:System.obj
 0001:000197a0       _HB_FUN_init___INIT_BITMAPINFOHEADER 0041a7a0 f   VXH:System.obj
 0001:000197c0       _HB_FUN_init___INIT_BITMAPINFO 0041a7c0 f   VXH:System.obj
 0001:000197e0       _HB_FUN_init___INIT_IMAGELISTDRAWPARAMS 0041a7e0 f   VXH:System.obj
 0001:00019800       _HB_FUN_init___INIT_DTTOPTS 0041a800 f   VXH:System.obj
 0001:00019820       _HB_FUN_init___INIT_NMTVDISPINFO 0041a820 f   VXH:System.obj
 0001:00019840       _HB_FUN_init___INIT_PAGESETUPDLG 0041a840 f   VXH:System.obj
 0001:00019860       _HB_FUN_init___INIT_DEVMODE 0041a860 f   VXH:System.obj
 0001:00019880       _HB_FUN_init___INIT_COMBOBOXINFO 0041a880 f   VXH:System.obj
 0001:000198a0       _HB_FUN_init___INIT_LVTILEINFO 0041a8a0 f   VXH:System.obj
 0001:000198c0       _HB_FUN_init___INIT_LVTILEVIEWINFO 0041a8c0 f   VXH:System.obj
 0001:000198e0       _HB_FUN_init___INIT_SCNOTIFICATION 0041a8e0 f   VXH:System.obj
 0001:00019900       _HB_FUN_init___INIT_FINDREPLACE 0041a900 f   VXH:System.obj
 0001:00019920       _HB_FUN_init___INIT_SCI_CHARACTERRANGE 0041a920 f   VXH:System.obj
 0001:00019940       _HB_FUN_init___INIT_SCI_TEXTRANGE 0041a940 f   VXH:System.obj
 0001:00019960       _HB_FUN_init___INIT_SCI_TEXTTOFIND 0041a960 f   VXH:System.obj
 0001:00019980       _HB_FUN_init___INIT_MDICREATESTRUCT 0041a980 f   VXH:System.obj
 0001:000199a0       _HB_FUN_init___INIT_NMTRBTHUMBPOSCHANGING 0041a9a0 f   VXH:System.obj
 0001:000199c0       _HB_FUN_init___INITSYSTEM  0041a9c0 f   VXH:System.obj
 0001:000199e0       _HB_FUN_exit___SYSTEMCLEANUP 0041a9e0 f   VXH:System.obj
 0001:00019ae0       _HB_FUN_SYSTEM_INIT        0041aae0 f   VXH:System.obj
 0001:00019ba0       _HB_FUN_SYSTEM_UPDATE      0041aba0 f   VXH:System.obj
 0001:00019a80       _HB_FUN_SYSTEM_GETPATHFROMFOLDER 0041aa80 f   VXH:System.obj
 0001:00019ac0       _HB_FUN_SYSTEM_GETLOCALTIME 0041aac0 f   VXH:System.obj
 0001:00019b00       _HB_FUN_SYSTEM_GETRUNNINGPROCS 0041ab00 f   VXH:System.obj
 0001:00019b20       _HB_FUN_SYSTEM_GETOSNAME   0041ab20 f   VXH:System.obj
 0001:00019aa0       _HB_FUN_SYSTEM_GETENVIRONMENT 0041aaa0 f   VXH:System.obj
 0001:00019b40       _HB_FUN_SYSTEM_GETENUMCURSOR 0041ab40 f   VXH:System.obj
 0001:00019a60       _HB_FUN_SYSTEM___GETLASTERROR 0041aa60 f   VXH:System.obj
 0001:00019b60       _HB_FUN_SYSTEM_TYPECAST    0041ab60 f   VXH:System.obj
 0001:00019a40       _HB_FUN_SYSTEM_GETBRUSH    0041aa40 f   VXH:System.obj
 0001:00019c20       _HB_FUN_GETWIN32PROC       0041ac20 f   VXH:System.obj
 0001:00019be0       _HB_FUN___SYSTIME___GETSYSTIME 0041abe0 f   VXH:System.obj
 0001:00019c00       _HB_FUN___SYSTIME___SETSYSTIME 0041ac00 f   VXH:System.obj
 0001:00019c80       _hb_INITSTATICS            0041ac80 f   VXH:System.obj
 0001:00018570       _hb_vm_SymbolInit_SYSTEM   00419570 f   VXH:System.obj
 0001:0001edf0       _MsgFilterFunc@12          0041fdf0 f   VXH:WinUtil.obj
 0001:000254a0       _HB_FUN_INIFILE_INIT       004264a0 f   VXH:IniFile.obj
 0001:00025560       _HB_FUN_INIFILE_FLUSH      00426560 f   VXH:IniFile.obj
 0001:000254c0       _HB_FUN_INIFILE_GETSECTIONS 004264c0 f   VXH:IniFile.obj
 0001:00025500       _HB_FUN_INIFILE_GETENTRIES 00426500 f   VXH:IniFile.obj
 0001:000254e0       _HB_FUN_INIFILE_GETSECTIONENTRIES 004264e0 f   VXH:IniFile.obj
 0001:00025520       _HB_FUN_INIFILE_DELSECTION 00426520 f   VXH:IniFile.obj
 0001:00025540       _HB_FUN_INIFILE_DELENTRY   00426540 f   VXH:IniFile.obj
 0001:000255a0       _HB_FUN_INIFILE_READ       004265a0 f   VXH:IniFile.obj
 0001:00025580       _HB_FUN_INIFILE_WRITE      00426580 f   VXH:IniFile.obj
 0001:000255c0       _HB_FUN_INIFILE_READCOLOR  004265c0 f   VXH:IniFile.obj
 0001:000255e0       _HB_FUN_INIFILE_READSTRING 004265e0 f   VXH:IniFile.obj
 0001:00025600       _HB_FUN_INIFILE_READDATE   00426600 f   VXH:IniFile.obj
 0001:00025620       _HB_FUN_INIFILE_READNUMBER 00426620 f   VXH:IniFile.obj
 0001:00025660       _HB_FUN_INIFILE_READINTEGER 00426660 f   VXH:IniFile.obj
 0001:00025680       _HB_FUN_INIFILE_READLOGICAL 00426680 f   VXH:IniFile.obj
 0001:00025640       _HB_FUN_INIFILE_READARRAY  00426640 f   VXH:IniFile.obj
 0001:000256a0       _hb_INITSTATICS            004266a0 f   VXH:IniFile.obj
 0001:00025430       _hb_vm_SymbolInit_INIFILE  00426430 f   VXH:IniFile.obj
 0001:00025790       _HB_FUN_PROFESSIONALCOLORTABLE_GETCURRENTSTYLE 00426790 f   VXH:ProfessionalColorTable.obj
 0001:00025750       _HB_FUN_PROFESSIONALCOLORTABLE_LOAD 00426750 f   VXH:ProfessionalColorTable.obj
 0001:00025730       _HB_FUN_PROFESSIONALCOLORTABLE_UNLOAD 00426730 f   VXH:ProfessionalColorTable.obj
 0001:00025770       _HB_FUN_PROFESSIONALCOLORTABLE_CLEAN 00426770 f   VXH:ProfessionalColorTable.obj
 0001:000257d0       _HB_FUN_FLATGRAYCOLORTABLE_LOAD 004267d0 f   VXH:ProfessionalColorTable.obj
 0001:00025810       _HB_FUN_VSCOLORTABLE_LOAD  00426810 f   VXH:ProfessionalColorTable.obj
 0001:00025830       _hb_INITSTATICS            00426830 f   VXH:ProfessionalColorTable.obj
 0001:000256c0       _hb_vm_SymbolInit_PROFESSIONALCOLORTABLE 004266c0 f   VXH:ProfessionalColorTable.obj
 0001:000258e0       _HB_FUN_REGISTRY_INIT      004268e0 f   VXH:Misc.obj
 0001:00025940       _HB_FUN_REGISTRY_OPEN      00426940 f   VXH:Misc.obj
 0001:00025960       _HB_FUN_REGISTRY_CREATE    00426960 f   VXH:Misc.obj
 0001:00025920       _HB_FUN_REGISTRY_GETKEYS   00426920 f   VXH:Misc.obj
 0001:00025900       _HB_FUN_REGISTRY_GETVALUE  00426900 f   VXH:Misc.obj
 0001:000258c0       _HB_FUN_REGISTRY_ONERROR   004268c0 f   VXH:Misc.obj
 0001:000259c0       _hb_INITSTATICS            004269c0 f   VXH:Misc.obj
 0001:00025850       _hb_vm_SymbolInit_MISC     00426850 f   VXH:Misc.obj
 0001:00025a50       _HB_FUN_DIALOG_INIT        00426a50 f   VXH:Dialog.obj
 0001:00025ab0       _HB_FUN_DIALOG_CREATE      00426ab0 f   VXH:Dialog.obj
 0001:00025b10       _HB_FUN_DIALOG_CLOSE       00426b10 f   VXH:Dialog.obj
 0001:00025b30       _HB_FUN_DIALOG_SETOBJECT   00426b30 f   VXH:Dialog.obj
 0001:00025b50       _HB_FUN_DIALOG_SETDIALOGRECT 00426b50 f   VXH:Dialog.obj
 0001:00025ad0       _HB_FUN_DIALOG_RECREATE    00426ad0 f   VXH:Dialog.obj
 0001:00025a90       _HB_FUN_DIALOG_PREINITDIALOG 00426a90 f   VXH:Dialog.obj
 0001:00025a70       _HB_FUN_DIALOG_POSTINITDIALOG 00426a70 f   VXH:Dialog.obj
 0001:00025bb0       _hb_INITSTATICS            00426bb0 f   VXH:Dialog.obj
 0001:000259e0       _hb_vm_SymbolInit_DIALOG   004269e0 f   VXH:Dialog.obj
 0001:00028a60       _HB_FUN_OBJECT_HASPROPERTY 00429a60 f   VXH:Object.obj
 0001:00028aa0       _HB_FUN_OBJECT___SETCTRLNAME 00429aa0 f   VXH:Object.obj
 0001:00028ae0       _HB_FUN_OBJECT_GETCONTROLNAME 00429ae0 f   VXH:Object.obj
 0001:00028ac0       _HB_FUN_OBJECT___CREATEPROPERTY 00429ac0 f   VXH:Object.obj
 0001:00028b00       _HB_FUN_OBJECT___SETASPROPERTY 00429b00 f   VXH:Object.obj
 0001:00028b20       _HB_FUN_OBJECT_CREATE      00429b20 f   VXH:Object.obj
 0001:00028a80       _HB_FUN_OBJECT___INVALIDMEMBER 00429a80 f   VXH:Object.obj
 0001:00028b40       _HB_FUN_OBJECT_REMOVEPROPERTY 00429b40 f   VXH:Object.obj
 0001:00028b60       _HB_FUN_OBJECT_SETTABORDER 00429b60 f   VXH:Object.obj
 0001:00028a40       _HB_FUN_OBJECT_ONERROR     00429a40 f   VXH:Object.obj
 0001:00028c60       _hb_INITSTATICS            00429c60 f   VXH:Object.obj
 0001:000289d0       _hb_vm_SymbolInit_OBJECT   004299d0 f   VXH:Object.obj
 0001:00028cf0       _HB_FUN_FONT_INIT          00429cf0 f   VXH:Font.obj
 0001:00028d10       _HB_FUN_FONT_CREATE        00429d10 f   VXH:Font.obj
 0001:00028d30       _HB_FUN_FONT_DELETE        00429d30 f   VXH:Font.obj
 0001:00028d70       _HB_FUN_FONT_CHOOSE        00429d70 f   VXH:Font.obj
 0001:00028d90       _HB_FUN_FONT_MODIFY        00429d90 f   VXH:Font.obj
 0001:00028d50       _HB_FUN_FONT_SET           00429d50 f   VXH:Font.obj
 0001:00028df0       _HB_FUN_FONT_SETPOINTSIZE  00429df0 f   VXH:Font.obj
 0001:00028e10       _HB_FUN_FONT_GETPOINTSIZE  00429e10 f   VXH:Font.obj
 0001:00028db0       _HB_FUN_FONT_ENUMFAMILIES  00429db0 f   VXH:Font.obj
 0001:00028dd0       _HB_FUN_FONT_ENUMFAMILIESPROC 00429dd0 f   VXH:Font.obj
 0001:00028e30       _hb_INITSTATICS            00429e30 f   VXH:Font.obj
 0001:00028c80       _hb_vm_SymbolInit_FONT     00429c80 f   VXH:Font.obj
 0001:00028ec0       _HB_FUN_TOOLTIP_INIT       00429ec0 f   VXH:ToolTip.obj
 0001:00028ee0       _HB_FUN_TOOLTIP_CREATE     00429ee0 f   VXH:ToolTip.obj
 0001:00028f20       _HB_FUN_TOOLTIP_DESTROY    00429f20 f   VXH:ToolTip.obj
 0001:00028f80       _HB_FUN_TOOLTIP_TRACKACTIVATE 00429f80 f   VXH:ToolTip.obj
 0001:00028f00       _HB_FUN_TOOLTIP_SETTTSTYLE 00429f00 f   VXH:ToolTip.obj
 0001:00028f40       _HB_FUN_TOOLTIP_GETMARGIN  00429f40 f   VXH:ToolTip.obj
 0001:00028f60       _HB_FUN_TOOLTIP_SETNEWRECT 00429f60 f   VXH:ToolTip.obj
 0001:00028fa0       _HB_FUN_TOOLTIP_SETTEXT    00429fa0 f   VXH:ToolTip.obj
 0001:00028fc0       _HB_FUN_TOOLTIP_ONLBUTTONDOWN 00429fc0 f   VXH:ToolTip.obj
 0001:00028fe0       _HB_FUN_TOOLTIP_ONPARENTNOTIFY 00429fe0 f   VXH:ToolTip.obj
 0001:00029000       _HB_FUN_TOOLTIP_ONTIMER    0042a000 f   VXH:ToolTip.obj
 0001:00029020       _hb_INITSTATICS            0042a020 f   VXH:ToolTip.obj
 0001:00028e50       _hb_vm_SymbolInit_TOOLTIP  00429e50 f   VXH:ToolTip.obj
 0001:000290b0       _HB_FUN_DRAWING_INIT       0042a0b0 f   VXH:Drawing.obj
 0001:00029170       _HB_FUN_DRAWING_DESTROY    0042a170 f   VXH:Drawing.obj
 0001:000290d0       _HB_FUN_DRAWING_REFRESHDC  0042a0d0 f   VXH:Drawing.obj
 0001:000290f0       _HB_FUN_DRAWING_GETTEXTEXTENTPOINT32 0042a0f0 f   VXH:Drawing.obj
 0001:00029110       _HB_FUN_DRAWING_GETTEXTEXTENTEXPOINT 0042a110 f   VXH:Drawing.obj
 0001:000291f0       _HB_FUN_DRAWING_DRAWFRAMECONTROL 0042a1f0 f   VXH:Drawing.obj
 0001:000291b0       _HB_FUN_DRAWING_FILLRECT   0042a1b0 f   VXH:Drawing.obj
 0001:000291d0       _HB_FUN_DRAWING_RECTANGLE  0042a1d0 f   VXH:Drawing.obj
 0001:00029210       _HB_FUN_DRAWING_ENUMFONTS  0042a210 f   VXH:Drawing.obj
 0001:00029190       _HB_FUN_DRAWING_BEGINPAINT 0042a190 f   VXH:Drawing.obj
 0001:00029150       _HB_FUN_DRAWING_GETCLIPBOX 0042a150 f   VXH:Drawing.obj
 0001:00029130       _HB_FUN_DRAWING_GETTEXTMETRICS 0042a130 f   VXH:Drawing.obj
 0001:00029250       _hb_INITSTATICS            0042a250 f   VXH:Drawing.obj
 0001:00029040       _hb_vm_SymbolInit_DRAWING  0042a040 f   VXH:Drawing.obj
 0001:000292e0       _HB_FUN_MDICLIENT_INIT     0042a2e0 f   VXH:MDIClient.obj
 0001:00029300       _HB_FUN_MDICLIENT_CREATE   0042a300 f   VXH:MDIClient.obj
 0001:000293e0       _HB_FUN_MDICLIENT_MOVEWINDOW 0042a3e0 f   VXH:MDIClient.obj
 0001:00029340       _HB_FUN_MDICLIENT_SETBACKCOLOR 0042a340 f   VXH:MDIClient.obj
 0001:00029360       _HB_FUN_MDICLIENT_SETEXSTYLE 0042a360 f   VXH:MDIClient.obj
 0001:00029380       _HB_FUN_MDICLIENT___CONTROLPROC 0042a380 f   VXH:MDIClient.obj
 0001:00029320       _HB_FUN_MDICLIENT___SETBORDER 0042a320 f   VXH:MDIClient.obj
 0001:000293a0       _HB_FUN_MDICLIENT_GETACTIVE 0042a3a0 f   VXH:MDIClient.obj
 0001:000293c0       _HB_FUN_MDICLIENT_SETMARGINS 0042a3c0 f   VXH:MDIClient.obj
 0001:00029400       _hb_INITSTATICS            0042a400 f   VXH:MDIClient.obj
 0001:00029270       _hb_vm_SymbolInit_MDICLIENT 0042a270 f   VXH:MDIClient.obj
 0001:00029530       _HB_FUN_MESSAGEWAIT_SETTEXT 0042a530 f   VXH:Splash.obj
 0001:000294d0       _HB_FUN_MESSAGEWAIT_INIT   0042a4d0 f   VXH:Splash.obj
 0001:00029550       _HB_FUN_MESSAGEWAIT_SETPOSITION 0042a550 f   VXH:Splash.obj
 0001:00029510       _HB_FUN_MESSAGEWAIT___SETMARQUEE 0042a510 f   VXH:Splash.obj
 0001:000294f0       _HB_FUN_MESSAGEWAIT_ADJUSTSIZE 0042a4f0 f   VXH:Splash.obj
 0001:000295b0       _hb_INITSTATICS            0042a5b0 f   VXH:Splash.obj
 0001:00029420       _hb_vm_SymbolInit_SPLASH   0042a420 f   VXH:Splash.obj
 0001:00029640       _HB_FUN_TREEVIEW_INIT      0042a640 f   VXH:TreeView.obj
 0001:00029660       _HB_FUN_TREEVIEW_CREATE    0042a660 f   VXH:TreeView.obj
 0001:00029680       _HB_FUN_TREEVIEW_ADDITEM   0042a680 f   VXH:TreeView.obj
 0001:00029780       _HB_FUN_TREEVIEW_GETSELECTED 0042a780 f   VXH:TreeView.obj
 0001:000297a0       _HB_FUN_TREEVIEW_GETITEM   0042a7a0 f   VXH:TreeView.obj
 0001:000296c0       _HB_FUN_TREEVIEW_EXPANDALL 0042a6c0 f   VXH:TreeView.obj
 0001:000296e0       _HB_FUN_TREEVIEW_GETITEMSTATE 0042a6e0 f   VXH:TreeView.obj
 0001:000297c0       _HB_FUN_TREEVIEW_SETIMAGELIST 0042a7c0 f   VXH:TreeView.obj
 0001:00029800       _HB_FUN_TREEVIEW_ONPARENTNOTIFY 0042a800 f   VXH:TreeView.obj
 0001:00029760       _HB_FUN_TREEVIEW_RESETCONTENT 0042a760 f   VXH:TreeView.obj
 0001:00029700       _HB_FUN_TREEVIEW_GETITEMRECT 0042a700 f   VXH:TreeView.obj
 0001:00029820       _HB_FUN_TREEVIEW_HITTEST   0042a820 f   VXH:TreeView.obj
 0001:00029740       _HB_FUN_TREEVIEW_SEARCHSTRING 0042a740 f   VXH:TreeView.obj
 0001:000296a0       _HB_FUN_TREEVIEW_GETEXPANDEDCOUNT 0042a6a0 f   VXH:TreeView.obj
 0001:000297e0       _HB_FUN_TREEVIEW_ONUSERMSG 0042a7e0 f   VXH:TreeView.obj
 0001:00029840       _HB_FUN_TREEVIEW_ONMOUSEMOVE 0042a840 f   VXH:TreeView.obj
 0001:00029860       _HB_FUN_TREEVIEW_ONLBUTTONUP 0042a860 f   VXH:TreeView.obj
 0001:00029880       _HB_FUN_TREEVIEW_MOVEITEM  0042a880 f   VXH:TreeView.obj
 0001:000298a0       _hb_INITSTATICS            0042a8a0 f   VXH:TreeView.obj
 0001:000295d0       _hb_vm_SymbolInit_TREEVIEW 0042a5d0 f   VXH:TreeView.obj
 0001:00029970       _HB_FUN_CONTROL_INIT       0042a970 f   VXH:Control.obj
 0001:00029990       _HB_FUN_CONTROL_CREATE     0042a990 f   VXH:Control.obj
 0001:00029a30       _HB_FUN_CONTROL_ONSIZE     0042aa30 f   VXH:Control.obj
 0001:00029a90       _HB_FUN_CONTROL_ONMOVE     0042aa90 f   VXH:Control.obj
 0001:00029ab0       _HB_FUN_CONTROL_ONSYSKEYDOWN 0042aab0 f   VXH:Control.obj
 0001:00029a50       _HB_FUN_CONTROL_ONENTERSIZEMOVE 0042aa50 f   VXH:Control.obj
 0001:00029a70       _HB_FUN_CONTROL_ONEXITSIZEMOVE 0042aa70 f   VXH:Control.obj
 0001:00029950       _HB_FUN_CONTROL___ENABLE   0042a950 f   VXH:Control.obj
 0001:00029ad0       _HB_FUN_CONTROL_GETBKBRUSH 0042aad0 f   VXH:Control.obj
 0001:00029af0       _HB_FUN_CONTROL_ONNCPAINT  0042aaf0 f   VXH:Control.obj
 0001:00029a10       _HB_FUN_CONTROL_DRAWARROW  0042aa10 f   VXH:Control.obj
 0001:00029930       _HB_FUN_CONTROL___SETBORDER 0042a930 f   VXH:Control.obj
 0001:000299f0       _HB_FUN_CONTROL_SHOW       0042a9f0 f   VXH:Control.obj
 0001:000299d0       _HB_FUN_CONTROL_HIDE       0042a9d0 f   VXH:Control.obj
 0001:000299b0       _HB_FUN_CONTROL_CENTER     0042a9b0 f   VXH:Control.obj
 0001:00029b50       _HB_FUN_USERCONTROL_INIT   0042ab50 f   VXH:Control.obj
 0001:00029b90       _HB_FUN_TITLECONTROL_CREATE 0042ab90 f   VXH:Control.obj
 0001:00029bd0       _HB_FUN_TITLECONTROL_ONNCCALCSIZE 0042abd0 f   VXH:Control.obj
 0001:00029bf0       _HB_FUN_TITLECONTROL_ONNCMOUSELEAVE 0042abf0 f   VXH:Control.obj
 0001:00029c10       _HB_FUN_TITLECONTROL_ONNCPAINT 0042ac10 f   VXH:Control.obj
 0001:00029c30       _HB_FUN_TITLECONTROL_ONNCHITTEST 0042ac30 f   VXH:Control.obj
 0001:00029c50       _HB_FUN_TITLECONTROL_ONNCLBUTTONDOWN 0042ac50 f   VXH:Control.obj
 0001:00029c70       _HB_FUN_TITLECONTROL_ONNCLBUTTONUP 0042ac70 f   VXH:Control.obj
 0001:00029cb0       _HB_FUN_TITLECONTROL_UNDOCK 0042acb0 f   VXH:Control.obj
 0001:00029c90       _HB_FUN_TITLECONTROL_REDOCK 0042ac90 f   VXH:Control.obj
 0001:00029cd0       _HB_FUN_TITLECONTROL_DRAWCLOSE 0042acd0 f   VXH:Control.obj
 0001:00029cf0       _HB_FUN_TITLECONTROL_DRAWPIN 0042acf0 f   VXH:Control.obj
 0001:00029bb0       _HB_FUN_TITLECONTROL___ONCLOSE 0042abb0 f   VXH:Control.obj
 0001:00029d10       _HB_FUN_TITLECONTROL_ONPAINT 0042ad10 f   VXH:Control.obj
 0001:00029d30       _hb_INITSTATICS            0042ad30 f   VXH:Control.obj
 0001:000298c0       _hb_vm_SymbolInit_CONTROL  0042a8c0 f   VXH:Control.obj
 0001:00029dc0       _HB_FUN_TOOLSTRIPCONTAINER_INIT 0042adc0 f   VXH:ToolStrip.obj
 0001:00029de0       _HB_FUN_TOOLSTRIPCONTAINER_CREATE 0042ade0 f   VXH:ToolStrip.obj
 0001:00029ec0       _HB_FUN_TOOLSTRIPCONTAINER_ONPAINT 0042aec0 f   VXH:ToolStrip.obj
 0001:00029e00       _HB_FUN_TOOLSTRIPCONTAINER_ONSIZE 0042ae00 f   VXH:ToolStrip.obj
 0001:00029e60       _HB_FUN_TOOLSTRIPCONTAINER_ONPARENTSYSCOMMAND 0042ae60 f   VXH:ToolStrip.obj
 0001:00029e40       _HB_FUN_TOOLSTRIPCONTAINER_ONSYSKEYDOWN 0042ae40 f   VXH:ToolStrip.obj
 0001:00029e80       _HB_FUN_TOOLSTRIPCONTAINER_ONPARENTCOMMAND 0042ae80 f   VXH:ToolStrip.obj
 0001:00029e20       _HB_FUN_TOOLSTRIPCONTAINER___SETVERTEX 0042ae20 f   VXH:ToolStrip.obj
 0001:00029f20       _HB_FUN_TOOLSTRIPCONTAINER___REFRESHLAYOUT 0042af20 f   VXH:ToolStrip.obj
 0001:00029f00       _HB_FUN_TOOLSTRIPCONTAINER___REFRESHPOSNO 0042af00 f   VXH:ToolStrip.obj
 0001:00029ea0       _HB_FUN_TOOLSTRIPCONTAINER___ADDTOOLSTRIP 0042aea0 f   VXH:ToolStrip.obj
 0001:00029ee0       _HB_FUN_TOOLSTRIPCONTAINER___SETPOSITION 0042aee0 f   VXH:ToolStrip.obj
 0001:00029f80       _HB_FUN_TOOLSTRIP_INIT     0042af80 f   VXH:ToolStrip.obj
 0001:00029fa0       _HB_FUN_TOOLSTRIP_CREATE   0042afa0 f   VXH:ToolStrip.obj
 0001:0002a100       _HB_FUN_TOOLSTRIP_ONPAINT  0042b100 f   VXH:ToolStrip.obj
 0001:00029fc0       _HB_FUN_TOOLSTRIP_ONPARENTCOMMAND 0042afc0 f   VXH:ToolStrip.obj
 0001:0002a1c0       _HB_FUN_TOOLSTRIP_ONSIZE   0042b1c0 f   VXH:ToolStrip.obj
 0001:0002a1e0       _HB_FUN_TOOLSTRIP_ONMOVE   0042b1e0 f   VXH:ToolStrip.obj
 0001:0002a0c0       _HB_FUN_TOOLSTRIP_ONMOUSEMOVE 0042b0c0 f   VXH:ToolStrip.obj
 0001:0002a180       _HB_FUN_TOOLSTRIP_ONLBUTTONDOWN 0042b180 f   VXH:ToolStrip.obj
 0001:0002a1a0       _HB_FUN_TOOLSTRIP_ONLBUTTONUP 0042b1a0 f   VXH:ToolStrip.obj
 0001:0002a240       _HB_FUN_TOOLSTRIP_ONNCCALCSIZE 0042b240 f   VXH:ToolStrip.obj
 0001:0002a220       _HB_FUN_TOOLSTRIP_ONNCPAINT 0042b220 f   VXH:ToolStrip.obj
 0001:0002a260       _HB_FUN_TOOLSTRIP_ONNCHITTEST 0042b260 f   VXH:ToolStrip.obj
 0001:0002a280       _HB_FUN_TOOLSTRIP_ONNCLBUTTONDOWN 0042b280 f   VXH:ToolStrip.obj
 0001:0002a2c0       _HB_FUN_TOOLSTRIP_ONNCMOUSEMOVE 0042b2c0 f   VXH:ToolStrip.obj
 0001:0002a2a0       _HB_FUN_TOOLSTRIP_ONNCLBUTTONUP 0042b2a0 f   VXH:ToolStrip.obj
 0001:0002a2e0       _HB_FUN_TOOLSTRIP_ONEXITSIZEMOVE 0042b2e0 f   VXH:ToolStrip.obj
 0001:00029fe0       _HB_FUN_TOOLSTRIP_ONDESTROY 0042afe0 f   VXH:ToolStrip.obj
 0001:0002a020       _HB_FUN_TOOLSTRIP___ADDTOOLSTRIPITEM 0042b020 f   VXH:ToolStrip.obj
 0001:0002a120       _HB_FUN_TOOLSTRIP___DRAWCHEVRON 0042b120 f   VXH:ToolStrip.obj
 0001:0002a140       _HB_FUN_TOOLSTRIP___SETCHEVRONVERTEX 0042b140 f   VXH:ToolStrip.obj
 0001:0002a160       _HB_FUN_TOOLSTRIP___SETVERTEX 0042b160 f   VXH:ToolStrip.obj
 0001:0002a080       _HB_FUN_TOOLSTRIP___SETROW 0042b080 f   VXH:ToolStrip.obj
 0001:0002a200       _HB_FUN_TOOLSTRIP___SETFLOAT 0042b200 f   VXH:ToolStrip.obj
 0001:0002a300       _HB_FUN_TOOLSTRIP___UPDATEWIDTH 0042b300 f   VXH:ToolStrip.obj
 0001:0002a000       _HB_FUN_TOOLSTRIP___SETHEIGHT 0042b000 f   VXH:ToolStrip.obj
 0001:0002a0a0       _HB_FUN_TOOLSTRIP___ONPARENTSIZE 0042b0a0 f   VXH:ToolStrip.obj
 0001:0002a040       _HB_FUN_TOOLSTRIP___SHOWCHEVRON 0042b040 f   VXH:ToolStrip.obj
 0001:0002a060       _HB_FUN_TOOLSTRIP___SHOWGRIP 0042b060 f   VXH:ToolStrip.obj
 0001:00029f60       _HB_FUN_TOOLSTRIP___ENABLE 0042af60 f   VXH:ToolStrip.obj
 0001:0002a0e0       _HB_FUN_TOOLSTRIP___CREATEBKBRUSH 0042b0e0 f   VXH:ToolStrip.obj
 0001:0002a660       _HB_FUN___RELEASEMENU      0042b660 f   VXH:ToolStrip.obj
 0001:0002a340       _HB_FUN_TOOLSTRIPITEM_INIT 0042b340 f   VXH:ToolStrip.obj
 0001:0002a360       _HB_FUN_TOOLSTRIPITEM_CREATE 0042b360 f   VXH:ToolStrip.obj
 0001:0002a480       _HB_FUN_TOOLSTRIPITEM_ONMOUSEHOVER 0042b480 f   VXH:ToolStrip.obj
 0001:0002a4c0       _HB_FUN_TOOLSTRIPITEM_ONMOUSELEAVE 0042b4c0 f   VXH:ToolStrip.obj
 0001:0002a4a0       _HB_FUN_TOOLSTRIPITEM_ONMOUSEMOVE 0042b4a0 f   VXH:ToolStrip.obj
 0001:0002a4e0       _HB_FUN_TOOLSTRIPITEM_ONLBUTTONDOWN 0042b4e0 f   VXH:ToolStrip.obj
 0001:0002a500       _HB_FUN_TOOLSTRIPITEM_ONLBUTTONUP 0042b500 f   VXH:ToolStrip.obj
 0001:0002a400       _HB_FUN_TOOLSTRIPITEM_ONPARENTCOMMAND 0042b400 f   VXH:ToolStrip.obj
 0001:0002a440       _HB_FUN_TOOLSTRIPITEM___ONPARENTSIZE 0042b440 f   VXH:ToolStrip.obj
 0001:0002a460       _HB_FUN_TOOLSTRIPITEM___SETVERTEX 0042b460 f   VXH:ToolStrip.obj
 0001:0002a420       _HB_FUN_TOOLSTRIPITEM___SETIMAGEALIGN 0042b420 f   VXH:ToolStrip.obj
 0001:0002a3e0       _HB_FUN_TOOLSTRIPITEM___ADDTOOLSTRIPITEM 0042b3e0 f   VXH:ToolStrip.obj
 0001:0002a3c0       _HB_FUN_TOOLSTRIPITEM_CANCEL 0042b3c0 f   VXH:ToolStrip.obj
 0001:0002a3a0       _HB_FUN_TOOLSTRIPITEM_DESTROY 0042b3a0 f   VXH:ToolStrip.obj
 0001:0002a380       _HB_FUN_TOOLSTRIPITEM_SETTABORDER 0042b380 f   VXH:ToolStrip.obj
 0001:0002a560       _HB_FUN_TOOLSTRIPBUTTON_INIT 0042b560 f   VXH:ToolStrip.obj
 0001:0002a580       _HB_FUN_TOOLSTRIPBUTTON_CREATE 0042b580 f   VXH:ToolStrip.obj
 0001:0002a600       _HB_FUN_TOOLSTRIPBUTTON_ONPAINT 0042b600 f   VXH:ToolStrip.obj
 0001:0002a640       _HB_FUN_TOOLSTRIPBUTTON_SETWINDOWTEXT 0042b640 f   VXH:ToolStrip.obj
 0001:0002a700       _HB_FUN_TOOLSTRIPBUTTON_ONUSERMSG 0042b700 f   VXH:ToolStrip.obj
 0001:0002a5c0       _HB_FUN_TOOLSTRIPBUTTON_ONLBUTTONDOWN 0042b5c0 f   VXH:ToolStrip.obj
 0001:0002a6a0       _HB_FUN_TOOLSTRIPBUTTON___OPENMENU 0042b6a0 f   VXH:ToolStrip.obj
 0001:0002a6e0       _HB_FUN_TOOLSTRIPBUTTON___CLOSEMENU 0042b6e0 f   VXH:ToolStrip.obj
 0001:0002a620       _HB_FUN_TOOLSTRIPBUTTON___SETIMAGEINDEX 0042b620 f   VXH:ToolStrip.obj
 0001:0002a720       _HB_FUN_TOOLSTRIPBUTTON___DRAWSTRIPE 0042b720 f   VXH:ToolStrip.obj
 0001:0002a5e0       _HB_FUN_TOOLSTRIPBUTTON___SETDROPDOWN 0042b5e0 f   VXH:ToolStrip.obj
 0001:0002a760       _HB_FUN_TOOLSTRIPBUTTON___DRAWSHADOW 0042b760 f   VXH:ToolStrip.obj
 0001:0002a7c0       _HB_FUN_TOOLSTRIPBUTTON___GETOBJBYID 0042b7c0 f   VXH:ToolStrip.obj
 0001:0002a540       _HB_FUN_TOOLSTRIPBUTTON___ENABLE 0042b540 f   VXH:ToolStrip.obj
 0001:0002a5a0       _HB_FUN_TOOLSTRIPBUTTON___SETITEMSIZE 0042b5a0 f   VXH:ToolStrip.obj
 0001:0002a680       _HB_FUN___SETSUBMENU       0042b680 f   VXH:ToolStrip.obj
 0001:0002a740       _HB_FUN___MENUDIALOGPROC   0042b740 f   VXH:ToolStrip.obj
 0001:0002a820       _HB_FUN_TOOLSTRIPCOMBOBOX_INIT 0042b820 f   VXH:ToolStrip.obj
 0001:0002a840       _HB_FUN_TOOLSTRIPCOMBOBOX_CREATE 0042b840 f   VXH:ToolStrip.obj
 0001:0002a880       _HB_FUN_TOOLSTRIPLABEL_INIT 0042b880 f   VXH:ToolStrip.obj
 0001:0002a8a0       _HB_FUN_TOOLSTRIPLABEL_CREATE 0042b8a0 f   VXH:ToolStrip.obj
 0001:0002a8e0       _HB_FUN_MENUSTRIPITEM_INIT 0042b8e0 f   VXH:ToolStrip.obj
 0001:0002a900       _HB_FUN_MENUSTRIPITEM_CREATE 0042b900 f   VXH:ToolStrip.obj
 0001:0002a9a0       _HB_FUN_MENUSTRIPITEM_ONLBUTTONUP 0042b9a0 f   VXH:ToolStrip.obj
 0001:0002a980       _HB_FUN_MENUSTRIPITEM_ONMEASUREITEM 0042b980 f   VXH:ToolStrip.obj
 0001:0002a960       _HB_FUN_MENUSTRIPITEM_ONDRAWITEM 0042b960 f   VXH:ToolStrip.obj
 0001:0002a940       _HB_FUN_MENUSTRIPITEM_DESTROY 0042b940 f   VXH:ToolStrip.obj
 0001:0002a920       _HB_FUN_MENUSTRIPITEM_ONDESTROY 0042b920 f   VXH:ToolStrip.obj
 0001:0002aa00       _HB_FUN___MENUSTRIPITEMSHORTCUT_INIT 0042ba00 f   VXH:ToolStrip.obj
 0001:0002aa40       _HB_FUN___MENUSTRIPITEMSHORTCUT_GETSHORTCUTTEXT 0042ba40 f   VXH:ToolStrip.obj
 0001:0002aa20       _HB_FUN___MENUSTRIPITEMSHORTCUT_SETACCEL 0042ba20 f   VXH:ToolStrip.obj
 0001:0002aaa0       _HB_FUN_CONTEXTSTRIP_INIT  0042baa0 f   VXH:ToolStrip.obj
 0001:0002ab00       _HB_FUN_CONTEXTSTRIP_SHOW  0042bb00 f   VXH:ToolStrip.obj
 0001:0002aac0       _HB_FUN_CONTEXTSTRIP_CREATE 0042bac0 f   VXH:ToolStrip.obj
 0001:0002aae0       _HB_FUN_CONTEXTSTRIP___ADDTOOLSTRIPITEM 0042bae0 f   VXH:ToolStrip.obj
 0001:0002ab40       _hb_INITSTATICS            0042bb40 f   VXH:ToolStrip.obj
 0001:00029d50       _hb_vm_SymbolInit_TOOLSTRIP 0042ad50 f   VXH:ToolStrip.obj
 0001:0002abd0       _HB_FUN_DATAGRID_INIT      0042bbd0 f   VXH:DataGrid.obj
 0001:0002abf0       _HB_FUN_DATAGRID_CREATE    0042bbf0 f   VXH:DataGrid.obj
 0001:0002b1b0       _HB_FUN_DATAGRID_UPDATE    0042c1b0 f   VXH:DataGrid.obj
 0001:0002b410       _HB_FUN_DATAGRID_AUTOADDCOLUMNS 0042c410 f   VXH:DataGrid.obj
 0001:0002b310       _HB_FUN_DATAGRID_ARROWRIGHT 0042c310 f   VXH:DataGrid.obj
 0001:0002b2f0       _HB_FUN_DATAGRID_ARROWLEFT 0042c2f0 f   VXH:DataGrid.obj
 0001:0002b390       _HB_FUN_DATAGRID_PAGEDOWN  0042c390 f   VXH:DataGrid.obj
 0001:0002b3b0       _HB_FUN_DATAGRID_PAGEUP    0042c3b0 f   VXH:DataGrid.obj
 0001:0002b3d0       _HB_FUN_DATAGRID_HOME      0042c3d0 f   VXH:DataGrid.obj
 0001:0002b3f0       _HB_FUN_DATAGRID_END       0042c3f0 f   VXH:DataGrid.obj
 0001:0002b350       _HB_FUN_DATAGRID_UP        0042c350 f   VXH:DataGrid.obj
 0001:0002b330       _HB_FUN_DATAGRID_DOWN      0042c330 f   VXH:DataGrid.obj
 0001:0002b450       _HB_FUN_DATAGRID_GETITEMRECT 0042c450 f   VXH:DataGrid.obj
 0001:0002aef0       _HB_FUN_DATAGRID_UPDATEROW 0042bef0 f   VXH:DataGrid.obj
 0001:0002aeb0       _HB_FUN_DATAGRID_DELETECOLUMN 0042beb0 f   VXH:DataGrid.obj
 0001:0002ae50       _HB_FUN_DATAGRID_SKIP      0042be50 f   VXH:DataGrid.obj
 0001:0002ac50       _HB_FUN_DATAGRID___DRAWMULTITEXT 0042bc50 f   VXH:DataGrid.obj
 0001:0002ae10       _HB_FUN_DATAGRID___SETBLOCKS 0042be10 f   VXH:DataGrid.obj
 0001:0002adb0       _HB_FUN_DATAGRID___RESETDATASOURCE 0042bdb0 f   VXH:DataGrid.obj
 0001:0002ad90       _HB_FUN_DATAGRID___SETDATASOURCE 0042bd90 f   VXH:DataGrid.obj
 0001:0002b190       _HB_FUN_DATAGRID___UPDATE  0042c190 f   VXH:DataGrid.obj
 0001:0002af70       _HB_FUN_DATAGRID___SIZEUPDATE 0042bf70 f   VXH:DataGrid.obj
 0001:0002b130       _HB_FUN_DATAGRID___DISPLAYDATA 0042c130 f   VXH:DataGrid.obj
 0001:0002b250       _HB_FUN_DATAGRID___UPDATEHSCROLLBAR 0042c250 f   VXH:DataGrid.obj
 0001:0002b230       _HB_FUN_DATAGRID___UPDATEVSCROLLBAR 0042c230 f   VXH:DataGrid.obj
 0001:0002b1d0       _HB_FUN_DATAGRID___SCROLLUP 0042c1d0 f   VXH:DataGrid.obj
 0001:0002b1f0       _HB_FUN_DATAGRID___SCROLLDOWN 0042c1f0 f   VXH:DataGrid.obj
 0001:0002ac90       _HB_FUN_DATAGRID___GETPOSITION 0042bc90 f   VXH:DataGrid.obj
 0001:0002b0d0       _HB_FUN_DATAGRID___RESETRECORDPOS 0042c0d0 f   VXH:DataGrid.obj
 0001:0002b170       _HB_FUN_DATAGRID___UPDATEHEIGHT 0042c170 f   VXH:DataGrid.obj
 0001:0002b470       _HB_FUN_DATAGRID___CONTROLSAVEDATA 0042c470 f   VXH:DataGrid.obj
 0001:0002b430       _HB_FUN_DATAGRID___EDIT    0042c430 f   VXH:DataGrid.obj
 0001:0002b2b0       _HB_FUN_DATAGRID___FILLCOL 0042c2b0 f   VXH:DataGrid.obj
 0001:0002b2d0       _HB_FUN_DATAGRID___FILLROW 0042c2d0 f   VXH:DataGrid.obj
 0001:0002add0       _HB_FUN_DATAGRID___GOTOREC 0042bdd0 f   VXH:DataGrid.obj
 0001:0002adf0       _HB_FUN_DATAGRID___SKIPRECORDS 0042bdf0 f   VXH:DataGrid.obj
 0001:0002af30       _HB_FUN_DATAGRID___RESETCONTROL 0042bf30 f   VXH:DataGrid.obj
 0001:0002ae70       _HB_FUN_DATAGRID___SETCOLPOS 0042be70 f   VXH:DataGrid.obj
 0001:0002af10       _HB_FUN_DATAGRID___SETCOLWIDTH 0042bf10 f   VXH:DataGrid.obj
 0001:0002ad70       _HB_FUN_DATAGRID___CHECKDATA 0042bd70 f   VXH:DataGrid.obj
 0001:0002ac70       _HB_FUN_DATAGRID___GETDATAWIDTH 0042bc70 f   VXH:DataGrid.obj
 0001:0002aff0       _HB_FUN_DATAGRID_COLFROMPOS 0042bff0 f   VXH:DataGrid.obj
 0001:0002b070       _HB_FUN_DATAGRID___ONPARENTSYSCOMMAND 0042c070 f   VXH:DataGrid.obj
 0001:0002ae30       _HB_FUN_DATAGRID___ONTIMER 0042be30 f   VXH:DataGrid.obj
 0001:0002b110       _HB_FUN_DATAGRID_ONPAINT   0042c110 f   VXH:DataGrid.obj
 0001:0002b270       _HB_FUN_DATAGRID_ONHORZSCROLL 0042c270 f   VXH:DataGrid.obj
 0001:0002b290       _HB_FUN_DATAGRID_ONVERTSCROLL 0042c290 f   VXH:DataGrid.obj
 0001:0002ad30       _HB_FUN_DATAGRID_SAVELAYOUT 0042bd30 f   VXH:DataGrid.obj
 0001:0002ad50       _HB_FUN_DATAGRID_RESTORELAYOUT 0042bd50 f   VXH:DataGrid.obj
 0001:0002b370       _HB_FUN_DATAGRID_ONDESTROY 0042c370 f   VXH:DataGrid.obj
 0001:0002b0f0       _HB_FUN_DATAGRID_ONKEYDOWN 0042c0f0 f   VXH:DataGrid.obj
 0001:0002b050       _HB_FUN_DATAGRID_ONLBUTTONDOWN 0042c050 f   VXH:DataGrid.obj
 0001:0002afd0       _HB_FUN_DATAGRID_ONLBUTTONUP 0042bfd0 f   VXH:DataGrid.obj
 0001:0002af90       _HB_FUN_DATAGRID_ONCHAR    0042bf90 f   VXH:DataGrid.obj
 0001:0002af50       _HB_FUN_DATAGRID_ONSIZE    0042bf50 f   VXH:DataGrid.obj
 0001:0002b090       _HB_FUN_DATAGRID_ONKILLFOCUS 0042c090 f   VXH:DataGrid.obj
 0001:0002b0b0       _HB_FUN_DATAGRID_ONSETFOCUS 0042c0b0 f   VXH:DataGrid.obj
 0001:0002ac10       _HB_FUN_DATAGRID_ONGETDLGCODE 0042bc10 f   VXH:DataGrid.obj
 0001:0002afb0       _HB_FUN_DATAGRID_ONLBUTTONDBLCLK 0042bfb0 f   VXH:DataGrid.obj
 0001:0002aed0       _HB_FUN_DATAGRID_ONITEMCHANGED 0042bed0 f   VXH:DataGrid.obj
 0001:0002ae90       _HB_FUN_DATAGRID_ONHEADERCLICK 0042be90 f   VXH:DataGrid.obj
 0001:0002ac30       _HB_FUN_DATAGRID_ONMOUSELEAVE 0042bc30 f   VXH:DataGrid.obj
 0001:0002b150       _HB_FUN_DATAGRID___DRAWREPRESENTATION 0042c150 f   VXH:DataGrid.obj
 0001:0002ad10       _HB_FUN_DATAGRID_ONMOUSEMOVE 0042bd10 f   VXH:DataGrid.obj
 0001:0002acb0       _HB_FUN_DATAGRID_GETPOSITION 0042bcb0 f   VXH:DataGrid.obj
 0001:0002acd0       _HB_FUN_DATAGRID_ONMOUSEWHEEL 0042bcd0 f   VXH:DataGrid.obj
 0001:0002acf0       _HB_FUN_DATAGRID_CREATEDRAGIMAGE 0042bcf0 f   VXH:DataGrid.obj
 0001:0002b210       _HB_FUN_DATAGRID_GETRECORDCOUNT 0042c210 f   VXH:DataGrid.obj
 0001:0002b010       _HB_FUN_DATAGRID_DESELECTALL 0042c010 f   VXH:DataGrid.obj
 0001:0002b030       _HB_FUN_DATAGRID_TOGGLESELECTION 0042c030 f   VXH:DataGrid.obj
 0001:0002b670       _HB_FUN_CEILING            0042c670 f   VXH:DataGrid.obj
 0001:0002b4b0       _HB_FUN_GRIDCOLUMN_INIT    0042c4b0 f   VXH:DataGrid.obj
 0001:0002b650       _HB_FUN_GRIDCOLUMN_SETCOLOR 0042c650 f   VXH:DataGrid.obj
 0001:0002b4d0       _HB_FUN_GRIDCOLUMN_CREATE  0042c4d0 f   VXH:DataGrid.obj
 0001:0002b550       _HB_FUN_GRIDCOLUMN_DRAWHEADER 0042c550 f   VXH:DataGrid.obj
 0001:0002b510       _HB_FUN_GRIDCOLUMN_CREATEDRAGIMAGE 0042c510 f   VXH:DataGrid.obj
 0001:0002b5f0       _HB_FUN_GRIDCOLUMN_DESTROY 0042c5f0 f   VXH:DataGrid.obj
 0001:0002b590       _HB_FUN_GRIDCOLUMN_GETRECT 0042c590 f   VXH:DataGrid.obj
 0001:0002b570       _HB_FUN_GRIDCOLUMN_GETSIZE 0042c570 f   VXH:DataGrid.obj
 0001:0002b5d0       _HB_FUN_GRIDCOLUMN_SETIMAGEINDEX 0042c5d0 f   VXH:DataGrid.obj
 0001:0002b610       _HB_FUN_GRIDCOLUMN_SETALIGNMENT 0042c610 f   VXH:DataGrid.obj
 0001:0002b630       _HB_FUN_GRIDCOLUMN_SETREPRESENTATION 0042c630 f   VXH:DataGrid.obj
 0001:0002b530       _HB_FUN_GRIDCOLUMN___SETSORTARROW 0042c530 f   VXH:DataGrid.obj
 0001:0002b5b0       _HB_FUN_GRIDCOLUMN___SETAUTOEDIT 0042c5b0 f   VXH:DataGrid.obj
 0001:0002b4f0       _HB_FUN_GRIDCOLUMN___GETFIELDS 0042c4f0 f   VXH:DataGrid.obj
 0001:0002b690       _hb_INITSTATICS            0042c690 f   VXH:DataGrid.obj
 0001:0002ab60       _hb_vm_SymbolInit_DATAGRID 0042bb60 f   VXH:DataGrid.obj
 0001:0002b720       _hb_INITSTATICS            0042c720 f   VXH:SysColors.obj
 0001:0002b6b0       _hb_vm_SymbolInit_SYSCOLORS 0042c6b0 f   VXH:SysColors.obj
 0001:000305f0       _LoadAlphaBitmap           004315f0 f   VXH:ExplorBar.obj
 0001:0002c870       _ParsePropertyFile         0042d870 f   VXH:ExplorBar.obj
 0001:0002cf40       _GetStyleDllValues         0042df40 f   VXH:ExplorBar.obj
 0001:0002ebd0       _FreeTokens                0042fbd0 f   VXH:ExplorBar.obj
 0001:0002ec00       _GetPropertyTokens         0042fc00 f   VXH:ExplorBar.obj
 0001:0002f070       _AnalyseToken              00430070 f   VXH:ExplorBar.obj
 0001:0002b740       _EnumFontFamProc@16        0042c740 f   VXH:ExplorBar.obj
 0001:0002ffe0       _Bitmap2AlphaBitmap        00430fe0 f   VXH:ExplorBar.obj
 0001:00030920       _GetColor                  00431920 f   VXH:ExplorBar.obj
 0001:00030d70       _AlphaBlendHeaderBitmap@24 00431d70 f   VXH:ExplorBar.obj
 0001:000310a0       _HB_FUN_IMAGELIST_INIT     004320a0 f   VXH:ImageList.obj
 0001:000310c0       _HB_FUN_IMAGELIST_CREATE   004320c0 f   VXH:ImageList.obj
 0001:000310e0       _HB_FUN_IMAGELIST_DESTROY  004320e0 f   VXH:ImageList.obj
 0001:00031120       _HB_FUN_IMAGELIST_CLEAN    00432120 f   VXH:ImageList.obj
 0001:00031180       _HB_FUN_IMAGELIST_ADDBITMAP 00432180 f   VXH:ImageList.obj
 0001:00031160       _HB_FUN_IMAGELIST_ADDIMAGE 00432160 f   VXH:ImageList.obj
 0001:000311a0       _HB_FUN_IMAGELIST_ADDICON  004321a0 f   VXH:ImageList.obj
 0001:000311c0       _HB_FUN_IMAGELIST_DRAWDISABLED 004321c0 f   VXH:ImageList.obj
 0001:00031200       _HB_FUN_IMAGELIST_DRAWIMAGE 00432200 f   VXH:ImageList.obj
 0001:00031100       _HB_FUN_IMAGELIST_GETBITMAP 00432100 f   VXH:ImageList.obj
 0001:00031140       _HB_FUN_IMAGELIST___REFRESHHANDLE 00432140 f   VXH:ImageList.obj
 0001:00031220       _HB_FUN_IMAGELIST_GETIMAGES 00432220 f   VXH:ImageList.obj
 0001:000311e0       _HB_FUN_IMAGELIST_DRAWINDIRECT 004321e0 f   VXH:ImageList.obj
 0001:00031260       _HB_FUN___IMAGELISTCOMBOBOX_INIT 00432260 f   VXH:ImageList.obj
 0001:00031280       _HB_FUN___IMAGELISTCOMBOBOX_CREATE 00432280 f   VXH:ImageList.obj
 0001:000312a0       _HB_FUN___IMAGELISTCOMBOBOX_ONPARENTDRAWITEM 004322a0 f   VXH:ImageList.obj
 0001:000312c0       _hb_INITSTATICS            004322c0 f   VXH:ImageList.obj
 0001:00031030       _hb_vm_SymbolInit_IMAGELIST 00432030 f   VXH:ImageList.obj
 0001:00031350       _HB_FUN_LISTVIEW_INIT      00432350 f   VXH:ListView.obj
 0001:00031370       _HB_FUN_LISTVIEW_CREATE    00432370 f   VXH:ListView.obj
 0001:00031570       _HB_FUN_LISTVIEW_INSERTITEM 00432570 f   VXH:ListView.obj
 0001:00031590       _HB_FUN_LISTVIEW_INSERTITEMS 00432590 f   VXH:ListView.obj
 0001:00031470       _HB_FUN_LISTVIEW_SETLVEXSTYLE 00432470 f   VXH:ListView.obj
 0001:00031510       _HB_FUN_LISTVIEW_ADDCOLUMN 00432510 f   VXH:ListView.obj
 0001:00031450       _HB_FUN_LISTVIEW_SETITEMTEXT 00432450 f   VXH:ListView.obj
 0001:000314b0       _HB_FUN_LISTVIEW_SETIMAGELIST 004324b0 f   VXH:ListView.obj
 0001:000314d0       _HB_FUN_LISTVIEW_SETIMAGELISTSMALL 004324d0 f   VXH:ListView.obj
 0001:000313d0       _HB_FUN_LISTVIEW_SETCURSEL 004323d0 f   VXH:ListView.obj
 0001:00031550       _HB_FUN_LISTVIEW_ONPARENTNOTIFY 00432550 f   VXH:ListView.obj
 0001:00031410       _HB_FUN_LISTVIEW_SETDATASOURCE 00432410 f   VXH:ListView.obj
 0001:00031530       _HB_FUN_LISTVIEW_GETVIRTUALVALUE 00432530 f   VXH:ListView.obj
 0001:000314f0       _HB_FUN_LISTVIEW_SORTITEMS 004324f0 f   VXH:ListView.obj
 0001:000313b0       _HB_FUN_LISTVIEW_SETBACKCOLOR 004323b0 f   VXH:ListView.obj
 0001:00031390       _HB_FUN_LISTVIEW_SETFORECOLOR 00432390 f   VXH:ListView.obj
 0001:00031490       _HB_FUN_LISTVIEW_FINDITEM  00432490 f   VXH:ListView.obj
 0001:000313f0       _HB_FUN_LISTVIEW_GETSEARCHSTRING 004323f0 f   VXH:ListView.obj
 0001:000315b0       _HB_FUN_LISTVIEW_GETSELECTION 004325b0 f   VXH:ListView.obj
 0001:00031430       _HB_FUN_LISTVIEW___SETVIEWSTYLE 00432430 f   VXH:ListView.obj
 0001:00031610       _HB_FUN_LISTVIEWCOLUMN_INIT 00432610 f   VXH:ListView.obj
 0001:00031630       _HB_FUN_LISTVIEWCOLUMN_CREATE 00432630 f   VXH:ListView.obj
 0001:00031650       _HB_FUN_LISTVIEWCOLUMN_DESTROY 00432650 f   VXH:ListView.obj
 0001:00031690       _HB_FUN_LISTVIEWGROUP_INIT 00432690 f   VXH:ListView.obj
 0001:000316b0       _HB_FUN_LISTVIEWGROUP_CREATE 004326b0 f   VXH:ListView.obj
 0001:000316d0       _HB_FUN_LISTVIEWGROUP_DESTROY 004326d0 f   VXH:ListView.obj
 0001:000316f0       _HB_FUN_LISTVIEWGROUP_SETTEXT 004326f0 f   VXH:ListView.obj
 0001:00031710       _HB_FUN_LISTVIEWGROUP_SETALIGNMENT 00432710 f   VXH:ListView.obj
 0001:00031730       _HB_FUN_LISTVIEWGROUP_GETRECTANGLE 00432730 f   VXH:ListView.obj
 0001:00031750       _hb_INITSTATICS            00432750 f   VXH:ListView.obj
 0001:000312e0       _hb_vm_SymbolInit_LISTVIEW 004322e0 f   VXH:ListView.obj
 0001:000318e0       _HB_FUN_GROUPBOX_INIT      004328e0 f   VXH:GroupBox.obj
 0001:00031940       _HB_FUN_GROUPBOX_ONPAINT   00432940 f   VXH:GroupBox.obj
 0001:00031900       _HB_FUN_GROUPBOX_GETSYSCOLOR 00432900 f   VXH:GroupBox.obj
 0001:00031920       _HB_FUN_GROUPBOX___CREATEBKBRUSH 00432920 f   VXH:GroupBox.obj
 0001:00031960       _hb_INITSTATICS            00432960 f   VXH:GroupBox.obj
 0001:00031870       _hb_vm_SymbolInit_GROUPBOX 00432870 f   VXH:GroupBox.obj
 0001:000319f0       _HB_FUN_RADIOBUTTON_INIT   004329f0 f   VXH:Radio.obj
 0001:00031a50       _HB_FUN_RADIOBUTTON_ONPARENTNOTIFY 00432a50 f   VXH:Radio.obj
 0001:00031a30       _HB_FUN_RADIOBUTTON_GETSTATE 00432a30 f   VXH:Radio.obj
 0001:00031a10       _HB_FUN_RADIOBUTTON___SETINITIALSTATE 00432a10 f   VXH:Radio.obj
 0001:00031a70       _HB_FUN_RADIOBUTTON_ONCTLCOLORSTATIC 00432a70 f   VXH:Radio.obj
 0001:00031a90       _hb_INITSTATICS            00432a90 f   VXH:Radio.obj
 0001:00031980       _hb_vm_SymbolInit_RADIO    00432980 f   VXH:Radio.obj
 0001:00032720       _HB_FUN_TREEVIEWITEM_INIT  00433720 f   VXH:TreeViewItem.obj
 0001:00032740       _HB_FUN_TREEVIEWITEM_CREATE 00433740 f   VXH:TreeViewItem.obj
 0001:00032820       _HB_FUN_TREEVIEWITEM_ADDITEM 00433820 f   VXH:TreeViewItem.obj
 0001:00032860       _HB_FUN_TREEVIEWITEM_DELETE 00433860 f   VXH:TreeViewItem.obj
 0001:00032760       _HB_FUN_TREEVIEWITEM_EXPANDALL 00433760 f   VXH:TreeViewItem.obj
 0001:000327e0       _HB_FUN_TREEVIEWITEM_SETITEMSTATE 004337e0 f   VXH:TreeViewItem.obj
 0001:000327a0       _HB_FUN_TREEVIEWITEM_SETSTYLE 004337a0 f   VXH:TreeViewItem.obj
 0001:000327c0       _HB_FUN_TREEVIEWITEM_SEARCHSTRING 004337c0 f   VXH:TreeViewItem.obj
 0001:00032880       _HB_FUN_TREEVIEWITEM_SETITEMTEXT 00433880 f   VXH:TreeViewItem.obj
 0001:00032780       _HB_FUN_TREEVIEWITEM_GETEXPANDEDCOUNT 00433780 f   VXH:TreeViewItem.obj
 0001:000328a0       _HB_FUN_TREEVIEWITEM_SETIMAGEINDEX 004338a0 f   VXH:TreeViewItem.obj
 0001:00032840       _HB_FUN_TREEVIEWITEM_SETOWNER 00433840 f   VXH:TreeViewItem.obj
 0001:00032800       _HB_FUN_TREEVIEWITEM_SETPOSITION 00433800 f   VXH:TreeViewItem.obj
 0001:000328c0       _hb_INITSTATICS            004338c0 f   VXH:TreeViewItem.obj
 0001:000326b0       _hb_vm_SymbolInit_TREEVIEWITEM 004336b0 f   VXH:TreeViewItem.obj
 0001:00032950       _HB_FUN_SPLITTER_INIT      00433950 f   VXH:Splitter.obj
 0001:00032990       _HB_FUN_SPLITTER_CREATE    00433990 f   VXH:Splitter.obj
 0001:000329b0       _HB_FUN_SPLITTER___ONPARENTSIZE 004339b0 f   VXH:Splitter.obj
 0001:000329d0       _HB_FUN_SPLITTER_ONPARENTMOVE 004339d0 f   VXH:Splitter.obj
 0001:00032a10       _HB_FUN_SPLITTER_ONMOUSEMOVE 00433a10 f   VXH:Splitter.obj
 0001:000329f0       _HB_FUN_SPLITTER_SPLITON   004339f0 f   VXH:Splitter.obj
 0001:00032a50       _HB_FUN_SPLITTER_ONLBUTTONUP 00433a50 f   VXH:Splitter.obj
 0001:00032a70       _HB_FUN_SPLITTER_GETSIZES  00433a70 f   VXH:Splitter.obj
 0001:00032a90       _HB_FUN_SPLITTER_SETSIZES  00433a90 f   VXH:Splitter.obj
 0001:00032a30       _HB_FUN_SPLITTER_ONLBUTTONDOWN 00433a30 f   VXH:Splitter.obj
 0001:00032970       _HB_FUN_SPLITTER___GETOWNER 00433970 f   VXH:Splitter.obj
 0001:00032ab0       _hb_INITSTATICS            00433ab0 f   VXH:Splitter.obj
 0001:000328e0       _hb_vm_SymbolInit_SPLITTER 004338e0 f   VXH:Splitter.obj
 0001:00032b60       _HB_FUN_COMPONENT_INIT     00433b60 f   VXH:Component.obj
 0001:00032b80       _HB_FUN_COMPONENT_DESTROY  00433b80 f   VXH:Component.obj
 0001:00032bc0       _HB_FUN_COMPONENT___SETCTRLNAME 00433bc0 f   VXH:Component.obj
 0001:00032b40       _HB_FUN_COMPONENT___GETINSTANCE 00433b40 f   VXH:Component.obj
 0001:00032ba0       _HB_FUN_COMPONENT_RENAMECOMPONENTS 00433ba0 f   VXH:Component.obj
 0001:00032be0       _hb_INITSTATICS            00433be0 f   VXH:Component.obj
 0001:00032ad0       _hb_vm_SymbolInit_COMPONENT 00433ad0 f   VXH:Component.obj
 0001:00032d10       _HB_FUN_MASKEDIT_SETGETPROP 00433d10 f   VXH:MaskEdit.obj
 0001:00032c70       _HB_FUN_MASKEDIT_INIT      00433c70 f   VXH:MaskEdit.obj
 0001:00032c90       _HB_FUN_MASKEDIT_CREATE    00433c90 f   VXH:MaskEdit.obj
 0001:00032cb0       _HB_FUN_MASKEDIT_ONGETDLGCODE 00433cb0 f   VXH:MaskEdit.obj
 0001:00032d30       _HB_FUN_MASKEDIT_ONUSERMSG 00433d30 f   VXH:MaskEdit.obj
 0001:00032d50       _HB_FUN_MASKEDIT_ONUNDO    00433d50 f   VXH:MaskEdit.obj
 0001:00032d70       _HB_FUN_MASKEDIT_ONKEYDOWN 00433d70 f   VXH:MaskEdit.obj
 0001:00032db0       _HB_FUN_MASKEDIT_ONCHAR    00433db0 f   VXH:MaskEdit.obj
 0001:00032dd0       _HB_FUN_MASKEDIT_ONSETFOCUS 00433dd0 f   VXH:MaskEdit.obj
 0001:00032df0       _HB_FUN_MASKEDIT_ONKILLFOCUS 00433df0 f   VXH:MaskEdit.obj
 0001:00032e10       _HB_FUN_MASKEDIT_ONPASTE   00433e10 f   VXH:MaskEdit.obj
 0001:00032e30       _HB_FUN_MASKEDIT_ONCOPY    00433e30 f   VXH:MaskEdit.obj
 0001:00032e50       _HB_FUN_MASKEDIT_ONCUT     00433e50 f   VXH:MaskEdit.obj
 0001:00032cd0       _HB_FUN_MASKEDIT_ONLBUTTONDOWN 00433cd0 f   VXH:MaskEdit.obj
 0001:00032d90       _HB_FUN_MASKEDIT___GOTONEXTCONTROL 00433d90 f   VXH:MaskEdit.obj
 0001:00032cf0       _HB_FUN_MASKEDIT___VALIDATE 00433cf0 f   VXH:MaskEdit.obj
 0001:00032eb0       _hb_INITSTATICS            00433eb0 f   VXH:MaskEdit.obj
 0001:00032c00       _hb_vm_SymbolInit_MASKEDIT 00433c00 f   VXH:MaskEdit.obj
 0001:00041c60       _hb_vmDoBlock              00442c60 f   OptG:hvm.obj
 0001:00033100       _hb_vmDoInitFunc           00434100 f   OptG:hvm.obj
 0001:00033090       _hb_vmDoInitError          00434090 f   OptG:hvm.obj
 0001:00041f90       _hb_vmDebugEntry           00442f90 f   OptG:hvm.obj
 0001:000458e0       _hb_vmDoInitStatics        004468e0 f   OptG:hvm.obj
 0001:00032fc0       _hb_vmDoModuleFunctions    00433fc0 f   OptG:hvm.obj
 0001:000459c0       _hb_vmDoInitFunctions      004469c0 f   OptG:hvm.obj
 0001:000421e0       _hb_vmDebuggerExit         004431e0 f   OptG:hvm.obj
 0001:00032f70       _hb_vmCleanModuleFunctions 00433f70 f   OptG:hvm.obj
 0001:00037fb0       _hb_vmNegate               00438fb0 f   OptG:hvm.obj
 0001:00038260       _hb_vmPlus                 00439260 f   OptG:hvm.obj
 0001:00038870       _hb_vmMinus                00439870 f   OptG:hvm.obj
 0001:00039520       _hb_vmMult                 0043a520 f   OptG:hvm.obj
 0001:000396f0       _hb_vmDivide               0043a6f0 f   OptG:hvm.obj
 0001:000399f0       _hb_vmModulus              0043a9f0 f   OptG:hvm.obj
 0001:00039f80       _hb_vmPower                0043af80 f   OptG:hvm.obj
 0001:0003db90       _hb_vmBitAnd               0043eb90 f   OptG:hvm.obj
 0001:0003e250       _hb_vmBitOr                0043f250 f   OptG:hvm.obj
 0001:0003e910       _hb_vmBitXor               0043f910 f   OptG:hvm.obj
 0001:0003f1c0       _hb_vmBitShiftRight        004401c0 f   OptG:hvm.obj
 0001:0003efd0       _hb_vmBitShiftLeft         0043ffd0 f   OptG:hvm.obj
 0001:0003a140       _hb_vmInc                  0043b140 f   OptG:hvm.obj
 0001:0003a3c0       _hb_vmDec                  0043b3c0 f   OptG:hvm.obj
 0001:0003a640       _hb_vmFuncPtr              0043b640 f   OptG:hvm.obj
 0001:0003a690       _hb_vmEqual                0043b690 f   OptG:hvm.obj
 0001:0003b1d0       _hb_vmNotEqual             0043c1d0 f   OptG:hvm.obj
 0001:0003ba20       _hb_vmLess                 0043ca20 f   OptG:hvm.obj
 0001:0003bed0       _hb_vmLessEqual            0043ced0 f   OptG:hvm.obj
 0001:0003c380       _hb_vmGreater              0043d380 f   OptG:hvm.obj
 0001:0003c830       _hb_vmGreaterEqual         0043d830 f   OptG:hvm.obj
 0001:0003cce0       _hb_vmInstringOrArray      0043dce0 f   OptG:hvm.obj
 0001:0003d370       _hb_vmForTest              0043e370 f   OptG:hvm.obj
 0001:0003d770       _hb_vmNot                  0043e770 f   OptG:hvm.obj
 0001:0003d850       _hb_vmAnd                  0043e850 f   OptG:hvm.obj
 0001:0003d9f0       _hb_vmOr                   0043e9f0 f   OptG:hvm.obj
 0001:0003f3b0       _hb_vmArrayPush            004403b0 f   OptG:hvm.obj
 0001:0003fc00       _hb_vmArrayPushRef         00440c00 f   OptG:hvm.obj
 0001:0003ff20       _hb_vmArrayPop             00440f20 f   OptG:hvm.obj
 0001:000408b0       _hb_vmArrayDim             004418b0 f   OptG:hvm.obj
 0001:00040980       _hb_vmArrayGen             00441980 f   OptG:hvm.obj
 0001:00040aa0       _hb_vmHashGen              00441aa0 f   OptG:hvm.obj
 0001:00041020       _hb_vmSwapAlias            00442020 f   OptG:hvm.obj
 0001:00041270       _hb_vmClassError           00442270 f   OptG:hvm.obj
 0001:00042310       _hb_vmDebuggerShowLine     00443310 f   OptG:hvm.obj
 0001:00042350       _hb_vmFrame                00443350 f   OptG:hvm.obj
 0001:00042e40       _hb_vmSFrame               00443e40 f   OptG:hvm.obj
 0001:00042e50       _hb_vmStatics              00443e50 f   OptG:hvm.obj
 0001:00042f10       _hb_vmRetValue             00443f10 f   OptG:hvm.obj
 0001:00042220       _hb_vmLocalName            00443220 f   OptG:hvm.obj
 0001:00042260       _hb_vmStaticName           00443260 f   OptG:hvm.obj
 0001:000422a0       _hb_vmModuleName           004432a0 f   OptG:hvm.obj
 0001:00044300       _hb_vmPopLogical           00445300 f   OptG:hvm.obj
 0001:000436c0       _hb_vmPushIntegerConst     004446c0 f   OptG:hvm.obj
 0001:00043800       _hb_vmPushLongLongConst    00444800 f   OptG:hvm.obj
 0001:00043900       _hb_vmPushDoubleConst      00444900 f   OptG:hvm.obj
 0001:00033010       _hb_vmUnhideString         00434010 f   OptG:hvm.obj
 0001:00043b30       _hb_vmPushBlock            00444b30 f   OptG:hvm.obj
 0001:00043c50       _hb_vmPushBlockShort       00444c50 f   OptG:hvm.obj
 0001:00043e20       _hb_vmPushAlias            00444e20 f   OptG:hvm.obj
 0001:00043e60       _hb_vmPushAliasedField     00444e60 f   OptG:hvm.obj
 0001:00043ea0       _hb_vmPushAliasedVar       00444ea0 f   OptG:hvm.obj
 0001:00043f50       _hb_vmPushLocal            00444f50 f   OptG:hvm.obj
 0001:00037bb0       _hb_vmAddInt               00438bb0 f   OptG:hvm.obj
 0001:00043fd0       _hb_vmPushLocalByRef       00444fd0 f   OptG:hvm.obj
 0001:00044050       _hb_vmPushStatic           00445050 f   OptG:hvm.obj
 0001:000440c0       _hb_vmPushStaticByRef      004450c0 f   OptG:hvm.obj
 0001:00044120       _hb_vmPushVariable         00445120 f   OptG:hvm.obj
 0001:000441b0       _hb_vmDuplicate            004451b0 f   OptG:hvm.obj
 0001:000441f0       _hb_vmDuplTwo              004451f0 f   OptG:hvm.obj
 0001:000445f0       _hb_vmPopAlias             004455f0 f   OptG:hvm.obj
 0001:00044640       _hb_vmPopAliasedField      00445640 f   OptG:hvm.obj
 0001:00044710       _hb_vmPopAliasedVar        00445710 f   OptG:hvm.obj
 0001:00044940       _hb_vmPopLocal             00445940 f   OptG:hvm.obj
 0001:00044af0       _hb_vmPopStatic            00445af0 f   OptG:hvm.obj
 0001:00043d40       _hb_vmPushMacroBlock       00444d40 f   OptG:hvm.obj
 0001:00042eb0       _hb_vmEndBlock             00443eb0 f   OptG:hvm.obj
 0001:000427a0       _hb_vmSetDivert            004437a0 f   OptG:hvm.obj
 0001:00043060       _hb_vmSumDate              00444060 f   OptG:hvm.obj
 0001:00043290       _hb_vmSubDate              00444290 f   OptG:hvm.obj
 0001:000444b0       _hb_vmPopHBLong            004454b0 f   OptG:hvm.obj
 0001:00044580       _hb_vmPopDouble            00445580 f   OptG:hvm.obj
 0001:00042f80       _hb_vmTimeStampPut         00443f80 f   OptG:hvm.obj
 0001:00043010       _hb_vmTimeStampAdd         00444010 f   OptG:hvm.obj
 0001:00044380       _hb_vmPopNumber            00445380 f   OptG:hvm.obj
 0001:00040bf0       _hb_vmArrayNew             00441bf0 f   OptG:hvm.obj
 0001:00040dd0       _hb_vmSelectWorkarea       00441dd0 f   OptG:hvm.obj
 0001:000422e0       _hb_vmDebuggerEndProc      004432e0 f   OptG:hvm.obj
 0001:000421d0       _hb_vmDummyDebugEntry      004431d0 f   OptG:hvm.obj
 0001:000425a0       _hb_vmDivertFrame          004435a0 f   OptG:hvm.obj
 0001:00043770       _hb_vmPushHBLong           00444770 f   OptG:hvm.obj
 0001:00043610       _hb_vmCalcIntWidth         00444610 f   OptG:hvm.obj
 0001:00044cb0       _hb_vmFindFreeModule       00445cb0 f   OptG:hvm.obj
 0001:000331f0       _hb_vmSymbolOverloadDefinition 004341f0 f   OptG:hvm.obj
 0001:00045b30       _hb_vmFindSymInModule      00446b30 f   OptG:hvm.obj
 0001:00046880       _hb_xvmActionRequest       00447880 f   OptG:hvm.obj
 0001:000487c0       _hb_vmArrayItemPush        004497c0 f   OptG:hvm.obj
 0001:00048b40       _hb_vmArrayItemPop         00449b40 f   OptG:hvm.obj
 0001:00046150       _hb_vmItemRefRead          00447150 f   OptG:hvm.obj
 0001:00046160       _hb_vmItemRefWrite         00447160 f   OptG:hvm.obj
 0001:00046170       _hb_vmItemRefCopy          00447170 f   OptG:hvm.obj
 0001:00046190       _hb_vmItemRefDummy         00447190 f   OptG:hvm.obj
 0001:0004b340       _hb_clsFindMethod          0044c340 f   xhb:classes.obj
 0001:0004fa80       _hb___msgSuper             00450a80 f   xhb:classes.obj
 0001:0004a620       _hb_clsIsFriendSymbol      0044b620 f   xhb:classes.obj
 0001:0004a7f0       _hb_clsClearClassDatas     0044b7f0 f   xhb:classes.obj
 0001:0004a820       _hb_clsClear               0044b820 f   xhb:classes.obj
 0001:0004a760       _hb_clsRelease             0044b760 f   xhb:classes.obj
 0001:0004a5d0       _hb_clsHasParent           0044b5d0 f   xhb:classes.obj
 0001:0004aa60       _hb_clsValidScope          0044ba60 f   xhb:classes.obj
 0001:0004fcd0       _hb___msgVirtual           00450cd0 f   xhb:classes.obj
 0001:0004f5e0       _hb___msgClsName           004505e0 f   xhb:classes.obj
 0001:0004f490       _hb___msgClsH              00450490 f   xhb:classes.obj
 0001:0004f820       _hb___msgClsSel            00450820 f   xhb:classes.obj
 0001:0004f610       _hb___msgClsFullSel        00450610 f   xhb:classes.obj
 0001:0004f4c0       _hb___msgClsParent         004504c0 f   xhb:classes.obj
 0001:0004b960       _hb_objGetMessage          0044c960 f   xhb:classes.obj
 0001:0004b3d0       _hb_clsSaveMethod          0044c3d0 f   xhb:classes.obj
 0001:0004f9c0       _hb___msgEvalInline        004509c0 f   xhb:classes.obj
 0001:0004fce0       _hb___msgDelegate          00450ce0 f   xhb:classes.obj
 0001:0004b9c0       _hb_clsAddMsg              0044c9c0 f   xhb:classes.obj
 0001:0004cc80       _hb_clsNew                 0044dc80 f   xhb:classes.obj
 0001:0004b430       _hb_clsDelMethod           0044c430 f   xhb:classes.obj
 0001:0004b4e0       _hb_clsMakeSuperObject     0044c4e0 f   xhb:classes.obj
 0001:0004a690       _hb_clsAddFriendSymbol     0044b690 f   xhb:classes.obj
 0001:00050730       ___clsAddFriend            00451730 f   xhb:classes.obj
 0001:00050e80       _HB_FUN_NEW                00451e80 f   xhb:tclass.obj
 0001:00050ea0       _HB_FUN_CREATE             00451ea0 f   xhb:tclass.obj
 0001:00050f00       _HB_FUN_ADDDATA            00451f00 f   xhb:tclass.obj
 0001:00050f20       _HB_FUN_ADDMULTIDATA       00451f20 f   xhb:tclass.obj
 0001:00050f40       _HB_FUN_ADDCLASSDATA       00451f40 f   xhb:tclass.obj
 0001:00050f60       _HB_FUN_ADDMULTICLSDATA    00451f60 f   xhb:tclass.obj
 0001:00050f80       _HB_FUN_ADDINLINE          00451f80 f   xhb:tclass.obj
 0001:00050fa0       _HB_FUN_ADDMETHOD          00451fa0 f   xhb:tclass.obj
 0001:00050fc0       _HB_FUN_ADDCLSMETHOD       00451fc0 f   xhb:tclass.obj
 0001:00050fe0       _HB_FUN_ADDVIRTUAL         00451fe0 f   xhb:tclass.obj
 0001:00051000       _HB_FUN_ADDDELEGATE        00452000 f   xhb:tclass.obj
 0001:00051040       _HB_FUN_MODINLINE          00452040 f   xhb:tclass.obj
 0001:00051060       _HB_FUN_MODMETHOD          00452060 f   xhb:tclass.obj
 0001:00051080       _HB_FUN_MODCLSMETHOD       00452080 f   xhb:tclass.obj
 0001:00050ee0       _HB_FUN_INSTANCE           00451ee0 f   xhb:tclass.obj
 0001:000510a0       _HB_FUN_SETONERROR         004520a0 f   xhb:tclass.obj
 0001:000510c0       _HB_FUN_SETDESTRUCTOR      004520c0 f   xhb:tclass.obj
 0001:000510e0       _HB_FUN_CONSTRUCTORCALL    004520e0 f   xhb:tclass.obj
 0001:00051100       _HB_FUN_DIVERTCONSTRUCTORCALL 00452100 f   xhb:tclass.obj
 0001:00050ec0       _HB_FUN_REFRESH            00451ec0 f   xhb:tclass.obj
 0001:00051020       _HB_FUN_ADDFRIENDS         00452020 f   xhb:tclass.obj
 0001:00051120       _hb_INITSTATICS            00452120 f   xhb:tclass.obj
 0001:00050e10       _hb_vm_SymbolInit_TCLASS   00451e10 f   xhb:tclass.obj
 0001:00051140       _hb_arrayNewRagged         00452140 f   xhb:arrayshb.obj
 0001:000558a0       __DLLUnload                004568a0 f   xhb:dllcall.obj
 0001:00055d10       _DllExec                   00456d10 f   xhb:dllcall.obj
 0001:00058950       _hb_datectod               00459950 f   xhb:dateshb.obj
 0001:00058c20       _hb_timectot               00459c20 f   xhb:dateshb.obj
 0001:0005b390       _filelength                0045c390 f   xhb:base64.obj
 0001:0005b3d0       _filetoBuff                0045c3d0 f   xhb:base64.obj
 0001:00061860       _HB_FUN_INITSYMBOLS        00462860 f   xhb:cstruct.obj
 0001:00061720       _HB_FUN_RESET              00462720 f   xhb:cstruct.obj
 0001:00061740       _HB_FUN_BUFFER             00462740 f   xhb:cstruct.obj
 0001:00061780       _HB_FUN_VALUE              00462780 f   xhb:cstruct.obj
 0001:000617a0       _HB_FUN_DEVALUE            004627a0 f   xhb:cstruct.obj
 0001:000617c0       _HB_FUN_ARRAYMETHOD        004627c0 f   xhb:cstruct.obj
 0001:00061700       _HB_FUN_SAYMEMBERS         00462700 f   xhb:cstruct.obj
 0001:000617e0       _HB_FUN_INIT               004627e0 f   xhb:cstruct.obj
 0001:00061800       _HB_FUN_POINTER            00462800 f   xhb:cstruct.obj
 0001:00061760       _HB_FUN_GETPOINTER         00462760 f   xhb:cstruct.obj
 0001:00061880       _HB_FUN_COPYTO             00462880 f   xhb:cstruct.obj
 0001:00061680       _HB_FUN_ALLOCATEMEMBERS    00462680 f   xhb:cstruct.obj
 0001:00061820       _HB_FUN_ASSTRING           00462820 f   xhb:cstruct.obj
 0001:00061840       _hb_INITSTATICS            00462840 f   xhb:cstruct.obj
 0001:00061570       _hb_vm_SymbolInit_CSTRUCT  00462570 f   xhb:cstruct.obj
 0001:000619e0       _HB_FUN_DEFERROR           004629e0 f   xhb:errorsys.obj
 0001:00061a00       _HB_FUN_ERRORMESSAGE       00462a00 f   xhb:errorsys.obj
 0001:00061a80       _HB_FUN_ARGUMENTS          00462a80 f   xhb:errorsys.obj
 0001:00061a20       _HB_FUN_LOGERROR           00462a20 f   xhb:errorsys.obj
 0001:00061a60       _HB_FUN_FWRITELINE         00462a60 f   xhb:errorsys.obj
 0001:00061a40       _HB_FUN_STRVALUE           00462a40 f   xhb:errorsys.obj
 0001:00061970       _hb_vm_SymbolInit_ERRORSYS 00462970 f   xhb:errorsys.obj
 0001:00061c20       _hb_errGetNumCode          00462c20 f   xhb:errorapi.obj
 0001:00061d20       _HB_FUN_ARGS               00462d20 f   xhb:errorapi.obj
 0001:00061d40       _HB_FUN__ARGS              00462d40 f   xhb:errorapi.obj
 0001:00061d80       _HB_FUN_CANDEFAULT         00462d80 f   xhb:errorapi.obj
 0001:00061db0       _HB_FUN__CANDEFAULT        00462db0 f   xhb:errorapi.obj
 0001:00061e30       _HB_FUN_CANRETRY           00462e30 f   xhb:errorapi.obj
 0001:00061e60       _HB_FUN__CANRETRY          00462e60 f   xhb:errorapi.obj
 0001:00061ee0       _HB_FUN_CANSUBST           00462ee0 f   xhb:errorapi.obj
 0001:00061f10       _HB_FUN__CANSUBST          00462f10 f   xhb:errorapi.obj
 0001:00061cc0       _HB_FUN_CARGO              00462cc0 f   xhb:errorapi.obj
 0001:00061ce0       _HB_FUN__CARGO             00462ce0 f   xhb:errorapi.obj
 0001:00061f90       _HB_FUN_DESCRIPTION        00462f90 f   xhb:errorapi.obj
 0001:00061fc0       _HB_FUN__DESCRIPTION       00462fc0 f   xhb:errorapi.obj
 0001:00062010       _HB_FUN_FILENAME           00463010 f   xhb:errorapi.obj
 0001:00062040       _HB_FUN__FILENAME          00463040 f   xhb:errorapi.obj
 0001:00062190       _HB_FUN_GENCODE            00463190 f   xhb:errorapi.obj
 0001:000621c0       _HB_FUN__GENCODE           004631c0 f   xhb:errorapi.obj
 0001:00062090       _HB_FUN_OPERATION          00463090 f   xhb:errorapi.obj
 0001:000620c0       _HB_FUN__OPERATION         004630c0 f   xhb:errorapi.obj
 0001:00062230       _HB_FUN_OSCODE             00463230 f   xhb:errorapi.obj
 0001:00062260       _HB_FUN__OSCODE            00463260 f   xhb:errorapi.obj
 0001:00062330       _HB_FUN_SEVERITY           00463330 f   xhb:errorapi.obj
 0001:00062360       _HB_FUN__SEVERITY          00463360 f   xhb:errorapi.obj
 0001:000622b0       _HB_FUN_SUBCODE            004632b0 f   xhb:errorapi.obj
 0001:000622e0       _HB_FUN__SUBCODE           004632e0 f   xhb:errorapi.obj
 0001:00062110       _HB_FUN_SUBSYSTEM          00463110 f   xhb:errorapi.obj
 0001:00062140       _HB_FUN__SUBSYSTEM         00463140 f   xhb:errorapi.obj
 0001:000623b0       _HB_FUN_TRIES              004633b0 f   xhb:errorapi.obj
 0001:000623e0       _HB_FUN__TRIES             004633e0 f   xhb:errorapi.obj
 0001:00062430       _HB_FUN__PROCNAME          00463430 f   xhb:errorapi.obj
 0001:00062480       _HB_FUN__PROCLINE          00463480 f   xhb:errorapi.obj
 0001:000624d0       _HB_FUN__RUNNINGTHREADS    004634d0 f   xhb:errorapi.obj
 0001:00062520       _HB_FUN__OSTHREADID        00463520 f   xhb:errorapi.obj
 0001:00062570       _HB_FUN__VMTHREADID        00463570 f   xhb:errorapi.obj
 0001:000625c0       _HB_FUN__MODULENAME        004635c0 f   xhb:errorapi.obj
 0001:00062610       _HB_FUN__AASTACK           00463610 f   xhb:errorapi.obj
 0001:00062650       _hb_errClassCreate         00463650 f   xhb:errorapi.obj
 0001:00064720       _HB_FUN_HBOBJECT_COPY      00465720 f   xhb:tobject.obj
 0001:00064740       _HB_FUN_HBOBJECT_DEEPCOPY  00465740 f   xhb:tobject.obj
 0001:00064760       _HB_FUN_HBOBJECT_ISKINDOF  00465760 f   xhb:tobject.obj
 0001:00064780       _HB_FUN_HBOBJECT_ERROR     00465780 f   xhb:tobject.obj
 0001:00064880       _HB_FUN_HBOBJECT_ERRORHANDLER 00465880 f   xhb:tobject.obj
 0001:000647a0       _HB_FUN_HBOBJECT_MSGNOTFOUND 004657a0 f   xhb:tobject.obj
 0001:00064800       _HB_FUN_HASHENTRY_GETVALUE 00465800 f   xhb:tobject.obj
 0001:00064820       _HB_FUN_HASHENTRY_SETVALUE 00465820 f   xhb:tobject.obj
 0001:00064860       _hb_INITSTATICS            00465860 f   xhb:tobject.obj
 0001:000646b0       _hb_vm_SymbolInit_TOBJECT  004656b0 f   xhb:tobject.obj
 0001:00064cd0       _open_handle               00465cd0 f   xhb:set.obj
 0001:00064bc0       _close_binary              00465bc0 f   xhb:set.obj
 0001:00064a00       _set_logical               00465a00 f   xhb:set.obj
 0001:00064b70       _set_string                00465b70 f   xhb:set.obj
 0001:00064c80       _close_text                00465c80 f   xhb:set.obj
 0001:00064b30       _set_number                00465b30 f   xhb:set.obj
 0001:00065100       _hb_set_SetDefaultPrinter  00466100 f   xhb:set.obj
 0001:000649c0       _set_char                  004659c0 f   xhb:set.obj
 0001:00065000       _hb_set_OSCODEPAGE         00466000 f   xhb:set.obj
 0001:00067c10       _hb_setSetFile             00468c10 f   xhb:set.obj
 0001:000698f0       _s_memicmp                 0046a8f0 f   xhb:hash.obj
 0001:00069a30       _s_hashOrderComplex        0046aa30 f   xhb:hash.obj
 0001:00069c30       _hb_hashSurfaceScan        0046ac30 f   xhb:hash.obj
 0001:00069d60       _hb_calcTotalLenght        0046ad60 f   xhb:hash.obj
 0001:0006ef80       _hb_socketSetNonBlocking   0046ff80 f   xhb:inet.obj
 0001:0006efb0       _hb_socketSetBlocking      0046ffb0 f   xhb:inet.obj
 0001:0006f150       _hb_inetSocketFinalize     00470150 f   xhb:inet.obj
 0001:0006eb40       _hb_selectReadSocket       0046fb40 f   xhb:inet.obj
 0001:0006fca0       _s_inetRecvInternal        00470ca0 f   xhb:inet.obj
 0001:0006ff40       _s_inetRecvPattern         00470f40 f   xhb:inet.obj
 0001:0006ec40       _hb_selectWriteSocket      0046fc40 f   xhb:inet.obj
 0001:00070940       _s_inetSendInternal        00471940 f   xhb:inet.obj
 0001:0006eed0       _hb_getHosts               0046fed0 f   xhb:inet.obj
 0001:0006efe0       _hb_socketConnect          0046ffe0 f   xhb:inet.obj
 0001:00071c50       _hb_tokenCount             00472c50 f   xhb:hbtoken.obj
 0001:00071fb0       _hb_tokenParam             00472fb0 f   xhb:hbtoken.obj
 0001:00071d30       _hb_tokenGet               00472d30 f   xhb:hbtoken.obj
 0001:00071e60       _hb_tokenArray             00472e60 f   xhb:hbtoken.obj
 0001:00073680       _hb_cmdargGet              00474680 f   xhb:cmdarg.obj
 0001:00073e00       _hb_memowrit               00474e00 f   xhb:memofile.obj
 0001:00074580       _GetDate                   00475580 f   xhb:files.obj
 0001:00074620       _GetTime                   00475620 f   xhb:files.obj
 0001:00074e90       _hb_arraySortDO            00475e90 f   xhb:asort.obj
 0001:00074ad0       _hb_itemIsLess             00475ad0 f   xhb:asort.obj
 0001:00074fe0       _hb_arraySortStart         00475fe0 f   xhb:asort.obj
 0001:00076880       _hb_gcLink                 00477880 f   xhb:garbage.obj
 0001:000768d0       _hb_gcUnlink               004778d0 f   xhb:garbage.obj
 0001:00076a90       _hb_gcGripRelease          00477a90 f   xhb:garbage.obj
 0001:000779c0       _hb_vm_SymbolInit_CSTR     004789c0 f   xhb:cstr.obj
 0001:0007dd60       _RetValue                  0047ed60 f   xhb:hbwinole.obj
 0001:0007d450       _SafeArrayToArray          0047e450 f   xhb:hbwinole.obj
 0001:0007df00       _Ole2TxtError              0047ef00 f   xhb:hbwinole.obj
 0001:0007e300       _GetObjectCLSID            0047f300 f   xhb:hbwinole.obj
 0001:0007deb0       _ReleaseExcepInfo          0047eeb0 f   xhb:hbwinole.obj
 0001:0007e7b0       _OleGetProperty            0047f7b0 f   xhb:hbwinole.obj
 0001:0007e860       _OleThrowError             0047f860 f   xhb:hbwinole.obj
 0001:0007ce80       _GetParams                 0047de80 f   xhb:hbwinole.obj
 0001:0007e6a0       _OleSetProperty            0047f6a0 f   xhb:hbwinole.obj
 0001:0007cf40       _FreeParams                0047df40 f   xhb:hbwinole.obj
 0001:0007e770       _OleInvoke                 0047f770 f   xhb:hbwinole.obj
 0001:0007ebe0       _OleGetID                  0047fbe0 f   xhb:hbwinole.obj
 0001:0007e7f0       _OleGetValue               0047f7f0 f   xhb:hbwinole.obj
 0001:0007f460       _HB_FUN_VTWRAPPER_NEW      00480460 f   xhb:win32ole.obj
 0001:0007f4a0       _HB_FUN_VTARRAYWRAPPER_ASARRAY 004804a0 f   xhb:win32ole.obj
 0001:0007f4c0       _HB_FUN_VTARRAYWRAPPER_ENUMERATE 004804c0 f   xhb:win32ole.obj
 0001:0007f500       _HB_FUN_TOLEAUTO_NEW       00480500 f   xhb:win32ole.obj
 0001:0007f540       _HB_FUN_TOLEAUTO_GETACTIVEOBJECT 00480540 f   xhb:win32ole.obj
 0001:0007f560       _HB_FUN_TOLEAUTO_OLECOLLECTION 00480560 f   xhb:win32ole.obj
 0001:0007f580       _HB_FUN_TOLEAUTO_OLEVALUEPLUS 00480580 f   xhb:win32ole.obj
 0001:0007f5a0       _HB_FUN_TOLEAUTO_OLEVALUEMINUS 004805a0 f   xhb:win32ole.obj
 0001:0007f5c0       _HB_FUN_TOLEAUTO_OLEVALUEMULTIPLY 004805c0 f   xhb:win32ole.obj
 0001:0007f5e0       _HB_FUN_TOLEAUTO_OLEVALUEDIVIDE 004805e0 f   xhb:win32ole.obj
 0001:0007f600       _HB_FUN_TOLEAUTO_OLEVALUEMODULUS 00480600 f   xhb:win32ole.obj
 0001:0007f620       _HB_FUN_TOLEAUTO_OLEVALUEINC 00480620 f   xhb:win32ole.obj
 0001:0007f640       _HB_FUN_TOLEAUTO_OLEVALUEDEC 00480640 f   xhb:win32ole.obj
 0001:0007f660       _HB_FUN_TOLEAUTO_OLEVALUEPOWER 00480660 f   xhb:win32ole.obj
 0001:0007f680       _HB_FUN_TOLEAUTO_OLEVALUEEQUAL 00480680 f   xhb:win32ole.obj
 0001:0007f6a0       _HB_FUN_TOLEAUTO_OLEVALUEEXACTEQUAL 004806a0 f   xhb:win32ole.obj
 0001:0007f6c0       _HB_FUN_TOLEAUTO_OLEVALUENOTEQUAL 004806c0 f   xhb:win32ole.obj
 0001:0007f6e0       _HB_FUN_TOLEAUTO_OLEENUMERATE 004806e0 f   xhb:win32ole.obj
 0001:0007f520       _HB_FUN_TOLEAUTO_RELEASE   00480520 f   xhb:win32ole.obj
 0001:0007f700       _hb_INITSTATICS            00480700 f   xhb:win32ole.obj
 0001:0007f390       _hb_vm_SymbolInit_WIN32OLE 00480390 f   xhb:win32ole.obj
 0001:0007fc00       _hb_numPow10               00480c00 f   xhb:hbstr.obj
 0001:0007fe80       _hb_str2number             00480e80 f   xhb:hbstr.obj
 0001:00081330       _HB_FUN_HB_READINI2        00482330 f   xhb:hbini.obj
 0001:00081370       _hb_INITGLOBALS            00482370 f   xhb:hbini.obj
 0001:00081390       _hb_REGISTERGLOBALS        00482390 f   xhb:hbini.obj
 0001:00081280       _module_InitGlobalsArray   00482280 f   xhb:hbini.obj
 0001:000812a0       _hb_vm_SymbolInit_HBINI    004822a0 f   xhb:hbini.obj
 0001:00081420       _HB_FUN_WIN32PRN_NEW       00482420 f   xhb:win32prn.obj
 0001:00081440       _HB_FUN_WIN32PRN_CREATE    00482440 f   xhb:win32prn.obj
 0001:00081460       _HB_FUN_WIN32PRN_DESTROY   00482460 f   xhb:win32prn.obj
 0001:00081480       _HB_FUN_WIN32PRN_STARTDOC  00482480 f   xhb:win32prn.obj
 0001:000814a0       _HB_FUN_WIN32PRN_ENDDOC    004824a0 f   xhb:win32prn.obj
 0001:000814c0       _HB_FUN_WIN32PRN_STARTPAGE 004824c0 f   xhb:win32prn.obj
 0001:000814e0       _HB_FUN_WIN32PRN_ENDPAGE   004824e0 f   xhb:win32prn.obj
 0001:00081500       _HB_FUN_WIN32PRN_NEWLINE   00482500 f   xhb:win32prn.obj
 0001:00081520       _HB_FUN_WIN32PRN_NEWPAGE   00482520 f   xhb:win32prn.obj
 0001:00081540       _HB_FUN_WIN32PRN_SETFONT   00482540 f   xhb:win32prn.obj
 0001:00081560       _HB_FUN_WIN32PRN_SETDEFAULTFONT 00482560 f   xhb:win32prn.obj
 0001:00081640       _HB_FUN_WIN32PRN_GETFONTS  00482640 f   xhb:win32prn.obj
 0001:00081580       _HB_FUN_WIN32PRN_BOLD      00482580 f   xhb:win32prn.obj
 0001:000815a0       _HB_FUN_WIN32PRN_UNDERLINE 004825a0 f   xhb:win32prn.obj
 0001:000815c0       _HB_FUN_WIN32PRN_ITALIC    004825c0 f   xhb:win32prn.obj
 0001:00081600       _HB_FUN_WIN32PRN_SETDUPLEXTYPE 00482600 f   xhb:win32prn.obj
 0001:00081620       _HB_FUN_WIN32PRN_SETPRINTQUALITY 00482620 f   xhb:win32prn.obj
 0001:000815e0       _HB_FUN_WIN32PRN_CHARSET   004825e0 f   xhb:win32prn.obj
 0001:00081660       _HB_FUN_WIN32PRN_SETPOS    00482660 f   xhb:win32prn.obj
 0001:00082b30       _HB_FUN_SETCOLOR           00483b30 f   xhb:win32prn.obj
 0001:00081680       _HB_FUN_WIN32PRN_TEXTOUT   00482680 f   xhb:win32prn.obj
 0001:000816c0       _HB_FUN_WIN32PRN_TEXTOUTAT 004826c0 f   xhb:win32prn.obj
 0001:000816a0       _HB_FUN_WIN32PRN_TEXTOUTW  004826a0 f   xhb:win32prn.obj
 0001:000816e0       _HB_FUN_WIN32PRN_TEXTOUTWAT 004826e0 f   xhb:win32prn.obj
 0001:00082ba0       _HB_FUN_SETPEN             00483ba0 f   xhb:win32prn.obj
 0001:00082ce0       _HB_FUN_LINETO             00483ce0 f   xhb:win32prn.obj
 0001:00082d60       _HB_FUN_RECTANGLE          00483d60 f   xhb:win32prn.obj
 0001:00082e30       _HB_FUN_ARC                00483e30 f   xhb:win32prn.obj
 0001:00082eb0       _HB_FUN_ELLIPSE            00483eb0 f   xhb:win32prn.obj
 0001:00082c10       _HB_FUN_FILLRECT           00483c10 f   xhb:win32prn.obj
 0001:00081700       _HB_FUN_WIN32PRN_GETCHARWIDTH 00482700 f   xhb:win32prn.obj
 0001:00081720       _HB_FUN_WIN32PRN_GETCHARHEIGHT 00482720 f   xhb:win32prn.obj
 0001:00081740       _HB_FUN_WIN32PRN_GETTEXTWIDTH 00482740 f   xhb:win32prn.obj
 0001:00081760       _HB_FUN_WIN32PRN_GETTEXTHEIGHT 00482760 f   xhb:win32prn.obj
 0001:00081780       _HB_FUN_WIN32PRN_DRAWBITMAP 00482780 f   xhb:win32prn.obj
 0001:00082f70       _HB_FUN_DRAWTEXT           00483f70 f   xhb:win32prn.obj
 0001:000817a0       _HB_FUN_WIN32PRN_SETPRC    004827a0 f   xhb:win32prn.obj
 0001:000817c0       _HB_FUN_WIN32PRN_PROW      004827c0 f   xhb:win32prn.obj
 0001:000817e0       _HB_FUN_WIN32PRN_PCOL      004827e0 f   xhb:win32prn.obj
 0001:00081800       _HB_FUN_WIN32PRN_MAXROW    00482800 f   xhb:win32prn.obj
 0001:00081820       _HB_FUN_WIN32PRN_MAXCOL    00482820 f   xhb:win32prn.obj
 0001:00081840       _HB_FUN_WIN32PRN_MM_TO_POSX 00482840 f   xhb:win32prn.obj
 0001:00081860       _HB_FUN_WIN32PRN_MM_TO_POSY 00482860 f   xhb:win32prn.obj
 0001:00081880       _HB_FUN_WIN32PRN_INCH_TO_POSX 00482880 f   xhb:win32prn.obj
 0001:000818a0       _HB_FUN_WIN32PRN_INCH_TO_POSY 004828a0 f   xhb:win32prn.obj
 0001:000818c0       _HB_FUN_WIN32PRN_TEXTATFONT 004828c0 f   xhb:win32prn.obj
 0001:00082f30       _HB_FUN_SETBKMODE          00483f30 f   xhb:win32prn.obj
 0001:00081f80       _HB_FUN_GETDEVICECAPS      00482f80 f   xhb:win32prn.obj
 0001:000819e0       _HB_FUN_CREATEDC           004829e0 f   xhb:win32prn.obj
 0001:00082270       _HB_FUN_SETDOCUMENTPROPERTIES 00483270 f   xhb:win32prn.obj
 0001:00081fd0       _HB_FUN_SETMAPMODE         00482fd0 f   xhb:win32prn.obj
 0001:00082220       _HB_FUN_BITMAPSOK          00483220 f   xhb:win32prn.obj
 0001:00081b30       _HB_FUN_DELETEDC           00482b30 f   xhb:win32prn.obj
 0001:00082af0       _HB_FUN_GETEXEFILENAME     00483af0 f   xhb:win32prn.obj
 0001:00081a30       _HB_FUN_STARTDOC           00482a30 f   xhb:win32prn.obj
 0001:00081ab0       _HB_FUN_ENDDOC             00482ab0 f   xhb:win32prn.obj
 0001:00081b60       _HB_FUN_STARTPAGE          00482b60 f   xhb:win32prn.obj
 0001:00081bb0       _HB_FUN_ENDPAGE            00482bb0 f   xhb:win32prn.obj
 0001:00082070       _HB_FUN_CREATEFONT         00483070 f   xhb:win32prn.obj
 0001:000821c0       _HB_FUN_GETPRINTERFONTNAME 004831c0 f   xhb:win32prn.obj
 0001:00082a80       _HB_FUN_ENUMFONTS          00483a80 f   xhb:win32prn.obj
 0001:00081c00       _HB_FUN_TEXTOUT            00482c00 f   xhb:win32prn.obj
 0001:00081d50       _HB_FUN_TEXTOUTW           00482d50 f   xhb:win32prn.obj
 0001:00081f20       _HB_FUN_GETCHARSIZE        00482f20 f   xhb:win32prn.obj
 0001:00081ea0       _HB_FUN_GETTEXTSIZE        00482ea0 f   xhb:win32prn.obj
 0001:00082900       _HB_FUN_DRAWBITMAP         00483900 f   xhb:win32prn.obj
 0001:00081900       _HB_FUN_WIN32BMP_NEW       00482900 f   xhb:win32prn.obj
 0001:00081920       _HB_FUN_WIN32BMP_LOADFILE  00482920 f   xhb:win32prn.obj
 0001:00081940       _HB_FUN_WIN32BMP_CREATE    00482940 f   xhb:win32prn.obj
 0001:00081960       _HB_FUN_WIN32BMP_DESTROY   00482960 f   xhb:win32prn.obj
 0001:00081980       _HB_FUN_WIN32BMP_DRAW      00482980 f   xhb:win32prn.obj
 0001:00082810       _HB_FUN_LOADBITMAPFILE     00483810 f   xhb:win32prn.obj
 0001:000819c0       _hb_INITSTATICS            004829c0 f   xhb:win32prn.obj
 0001:000829e0       _FontEnumCallBack@16       004839e0 f   xhb:win32prn.obj
 0001:000813b0       _hb_vm_SymbolInit_WIN32PRN 004823b0 f   xhb:win32prn.obj
 0001:00083120       _HB_FUN_TXMLNODE_NEW       00484120 f   xhb:txml.obj
 0001:00083180       _HB_FUN_TXMLNODE_NEXTINTREE 00484180 f   xhb:txml.obj
 0001:00083140       _HB_FUN_TXMLNODE_GETATTRIBUTE 00484140 f   xhb:txml.obj
 0001:00083160       _HB_FUN_TXMLNODE_SETATTRIBUTE 00484160 f   xhb:txml.obj
 0001:000831a0       _HB_FUN_TXMLNODE_DEPTH     004841a0 f   xhb:txml.obj
 0001:000831c0       _HB_FUN_TXMLNODE_PATH      004841c0 f   xhb:txml.obj
 0001:00083200       _HB_FUN_TXMLITERATOR_NEW   00484200 f   xhb:txml.obj
 0001:00083260       _HB_FUN_TXMLITERATOR_NEXT  00484260 f   xhb:txml.obj
 0001:00083240       _HB_FUN_TXMLITERATOR_SETCONTEXT 00484240 f   xhb:txml.obj
 0001:00083220       _HB_FUN_TXMLITERATOR_CLONE 00484220 f   xhb:txml.obj
 0001:00083280       _HB_FUN_TXMLITERATOR_FIND  00484280 f   xhb:txml.obj
 0001:000832a0       _HB_FUN_TXMLITERATOR_FINDNEXT 004842a0 f   xhb:txml.obj
 0001:000832c0       _HB_FUN_TXMLITERATOR_MATCHCRITERIA 004842c0 f   xhb:txml.obj
 0001:00083300       _HB_FUN_TXMLITERATORSCAN_NEW 00484300 f   xhb:txml.obj
 0001:00083340       _HB_FUN_TXMLITERATORREGEX_NEW 00484340 f   xhb:txml.obj
 0001:00083380       _HB_FUN_TXMLDOCUMENT_NEW   00484380 f   xhb:txml.obj
 0001:00083420       _HB_FUN_TXMLDOCUMENT_READ  00484420 f   xhb:txml.obj
 0001:00083400       _HB_FUN_TXMLDOCUMENT_WRITE 00484400 f   xhb:txml.obj
 0001:000833a0       _HB_FUN_TXMLDOCUMENT_FINDFIRST 004843a0 f   xhb:txml.obj
 0001:000833c0       _HB_FUN_TXMLDOCUMENT_FINDFIRSTREGEX 004843c0 f   xhb:txml.obj
 0001:000833e0       _HB_FUN_TXMLDOCUMENT_GETCONTEXT 004843e0 f   xhb:txml.obj
 0001:00083440       _hb_INITSTATICS            00484440 f   xhb:txml.obj
 0001:000830b0       _hb_vm_SymbolInit_TXML     004840b0 f   xhb:txml.obj
 0001:00083730       _szGetRootName             00484730 f   xhb:dirdrive.obj
 0001:00083e50       _HB_FUN_GET_NEW            00484e50 f   xhb:tget.obj
 0001:00083e90       _HB_FUN_GET_ASSIGN         00484e90 f   xhb:tget.obj
 0001:00083eb0       _HB_FUN_GET_DISPLAY        00484eb0 f   xhb:tget.obj
 0001:00083f70       _HB_FUN_GET_KILLFOCUS      00484f70 f   xhb:tget.obj
 0001:00083f10       _HB_FUN_GET_RESET          00484f10 f   xhb:tget.obj
 0001:00083f50       _HB_FUN_GET_SETFOCUS       00484f50 f   xhb:tget.obj
 0001:00083f30       _HB_FUN_GET_UNDO           00484f30 f   xhb:tget.obj
 0001:00083fd0       _HB_FUN_GET_UNTRANSFORM    00484fd0 f   xhb:tget.obj
 0001:00083fb0       _HB_FUN_GET_VARGET         00484fb0 f   xhb:tget.obj
 0001:00083f90       _HB_FUN_GET_VARPUT         00484f90 f   xhb:tget.obj
 0001:00083ed0       _HB_FUN_GET_END            00484ed0 f   xhb:tget.obj
 0001:00083ef0       _HB_FUN_GET_HOME           00484ef0 f   xhb:tget.obj
 0001:00084050       _HB_FUN_GET__LEFT          00485050 f   xhb:tget.obj
 0001:00084030       _HB_FUN_GET__RIGHT         00485030 f   xhb:tget.obj
 0001:000840b0       _HB_FUN_GET_TODECPOS       004850b0 f   xhb:tget.obj
 0001:00084070       _HB_FUN_GET_WORDLEFT       00485070 f   xhb:tget.obj
 0001:00084090       _HB_FUN_GET_WORDRIGHT      00485090 f   xhb:tget.obj
 0001:00084130       _HB_FUN_GET_BACKSPACE      00485130 f   xhb:tget.obj
 0001:00084150       _HB_FUN_GET__DELETE        00485150 f   xhb:tget.obj
 0001:00084190       _HB_FUN_GET_DELEND         00485190 f   xhb:tget.obj
 0001:000841b0       _HB_FUN_GET_DELLEFT        004851b0 f   xhb:tget.obj
 0001:000841d0       _HB_FUN_GET_DELRIGHT       004851d0 f   xhb:tget.obj
 0001:000841f0       _HB_FUN_GET_DELWORDLEFT    004851f0 f   xhb:tget.obj
 0001:00084210       _HB_FUN_GET_DELWORDRIGHT   00485210 f   xhb:tget.obj
 0001:00084010       _HB_FUN_GET_INSERT         00485010 f   xhb:tget.obj
 0001:00083ff0       _HB_FUN_GET_OVERSTRIKE     00484ff0 f   xhb:tget.obj
 0001:00084270       _HB_FUN_GET_HITTEST        00485270 f   xhb:tget.obj
 0001:000842d0       _HB_FUN_GET__NUMTOLEFT     004852d0 f   xhb:tget.obj
 0001:00084230       _HB_FUN_GET_SETCOLORSPEC   00485230 f   xhb:tget.obj
 0001:00084250       _HB_FUN_GET_SETPICTURE     00485250 f   xhb:tget.obj
 0001:00084110       _HB_FUN_GET_PUTMASK        00485110 f   xhb:tget.obj
 0001:000842f0       _HB_FUN_GET_STOPMOVEH      004852f0 f   xhb:tget.obj
 0001:00083e70       _HB_FUN_GET_PARSEPICT      00484e70 f   xhb:tget.obj
 0001:00084170       _HB_FUN_GET_DELETEALL      00485170 f   xhb:tget.obj
 0001:000840d0       _HB_FUN_GET_ISEDITABLE     004850d0 f   xhb:tget.obj
 0001:000840f0       _HB_FUN_GET_INPUT          004850f0 f   xhb:tget.obj
 0001:00084290       _HB_FUN_GET_FIRSTEDITABLE  00485290 f   xhb:tget.obj
 0001:000842b0       _HB_FUN_GET_LASTEDITABLE   004852b0 f   xhb:tget.obj
 0001:00084350       _HB_FUN_BUILDGETCOLOR      00485350 f   xhb:tget.obj
 0001:00084310       _HB_FUN_ISBADDATE          00485310 f   xhb:tget.obj
 0001:000843b0       _HB_FUN_HOWMUCHNUMERIC     004853b0 f   xhb:tget.obj
 0001:00084330       _HB_FUN_INVERTDWM          00485330 f   xhb:tget.obj
 0001:000843d0       _hb_INITSTATICS            004853d0 f   xhb:tget.obj
 0001:00083de0       _hb_vm_SymbolInit_TGET     00484de0 f   xhb:tget.obj
 0001:00084670       _hb_conOutDev              00485670 f   xhb:console.obj
 0001:000846f0       _hb_itemStringCon          004856f0 f   xhb:console.obj
 0001:00084750       _hb_conOut                 00485750 f   xhb:console.obj
 0001:00084af0       _hb_conDevPos              00485af0 f   xhb:console.obj
 0001:000855f0       _hb_memvarRecycle          004865f0 f   xhb:memvars.obj
 0001:00085bb0       _hb_memvarCreateFromDynSymbol 00486bb0 f   xhb:memvars.obj
 0001:00086140       _hb_memvarFindSymbol       00487140 f   xhb:memvars.obj
 0001:000854c0       _hb_memvarAddPrivate       004864c0 f   xhb:memvars.obj
 0001:00085e90       _hb_memvarScopeGet         00486e90 f   xhb:memvars.obj
 0001:00085f80       _hb_memvarReleasePublicWorker 00486f80 f   xhb:memvars.obj
 0001:00085f60       _hb_memvarCountPublics     00486f60 f   xhb:memvars.obj
 0001:00086050       _hb_memvarFindPublicByPos  00487050 f   xhb:memvars.obj
 0001:00085ce0       _hb_memvarRelease          00486ce0 f   xhb:memvars.obj
 0001:00085d90       _hb_memvarReleaseWithMask  00486d90 f   xhb:memvars.obj
 0001:00085f10       _hb_memvarClear            00486f10 f   xhb:memvars.obj
 0001:00086440       _hb_memvarClearAll         00487440 f   xhb:memvars.obj
 0001:00086010       _hb_memvarCount            00487010 f   xhb:memvars.obj
 0001:00086090       _hb_memvarDebugVariable    00487090 f   xhb:memvars.obj
 0001:000867f0       _hb_memvarSave             004877f0 f   xhb:memvars.obj
 0001:000875f0       _hb_GetSymbolInfo          004885f0 f   xhb:memvars.obj
 0001:00088960       _hb_fileFind               00489960 f   xhb:filebuf.obj
 0001:000894c0       _s_fileMethods             0048a4c0 f   xhb:filebuf.obj
 0001:00088a60       _hb_fileFindOffset         00489a60 f   xhb:filebuf.obj
 0001:00088ba0       _hb_fileDeleteLock         00489ba0 f   xhb:filebuf.obj
 0001:00088ae0       _hb_fileInsertLock         00489ae0 f   xhb:filebuf.obj
 0001:000889b0       _hb_fileNew                004899b0 f   xhb:filebuf.obj
 0001:00088e00       _hb_fileUnlock             00489e00 f   xhb:filebuf.obj
 0001:00088c10       _hb_fileSetLock            00489c10 f   xhb:filebuf.obj
 0001:00089010       _s_fileExtOpen             0048a010 f   xhb:filebuf.obj
 0001:00088ff0       _s_fileAccept              00489ff0 f   xhb:filebuf.obj
 0001:000894b0       _s_fileDelete              0048a4b0 f   xhb:filebuf.obj
 0001:00089130       _s_fileClose               0048a130 f   xhb:filebuf.obj
 0001:00089200       _s_fileLock                0048a200 f   xhb:filebuf.obj
 0001:00089350       _s_fileReadAt              0048a350 f   xhb:filebuf.obj
 0001:00089380       _s_fileWriteAt             0048a380 f   xhb:filebuf.obj
 0001:000893b0       _s_fileTruncAt             0048a3b0 f   xhb:filebuf.obj
 0001:000893d0       _s_fileSize                0048a3d0 f   xhb:filebuf.obj
 0001:000893f0       _s_fileSeekLarge           0048a3f0 f   xhb:filebuf.obj
 0001:00089420       _s_fileWriteLarge          0048a420 f   xhb:filebuf.obj
 0001:00089440       _s_fileReadLarge           0048a440 f   xhb:filebuf.obj
 0001:00089460       _s_fileFlush               0048a460 f   xhb:filebuf.obj
 0001:00089470       _s_fileCommit              0048a470 f   xhb:filebuf.obj
 0001:00089490       _s_fileHandle              0048a490 f   xhb:filebuf.obj
 0001:000898d0       _hb_langFindPos            0048a8d0 f   xhb:langapi.obj
 0001:0008a980       _sk_findkey                0048b980 f   xhb:setkey.obj
 0001:0008a9b0       _sk_add                    0048b9b0 f   xhb:setkey.obj
 0001:0008b330       _s_translateSignal         0048c330 f   xhb:hbserv.obj
 0001:0008aff0       _s_signalHandler           0048bff0 f   xhb:hbserv.obj
 0001:0008b1d0       _s_exceptionFilter@4       0048c1d0 f   xhb:hbserv.obj
 0001:0008b1f0       _s_MsgFilterFunc@12        0048c1f0 f   xhb:hbserv.obj
 0001:0008b2a0       _s_serviceSetHBSig         0048c2a0 f   xhb:hbserv.obj
 0001:0008b390       _s_signalHandlersInit      0048c390 f   xhb:hbserv.obj
 0001:0008b2f0       _s_serviceSetDflSig        0048c2f0 f   xhb:hbserv.obj
 0001:0008b9d0       _utf8tou16nextchar         0048c9d0 f   xhb:cdpapi.obj
 0001:0008bb20       _hb_cdpFindPos             0048cb20 f   xhb:cdpapi.obj
 0001:0008bb80       _hb_cdpcharsetFindPos      0048cb80 f   xhb:cdpapi.obj
 0001:0008b900       _utf8Size                  0048c900 f   xhb:cdpapi.obj
 0001:0008b930       _u16toutf8                 0048c930 f   xhb:cdpapi.obj
 0001:0008d280       _hb_cdpMultiWeight         0048e280 f   xhb:cdpapi.obj
 0001:0008d660       _hb_cdpMultiWeightI        0048e660 f   xhb:cdpapi.obj
 0001:0008bac0       _utf8pos                   0048cac0 f   xhb:cdpapi.obj
 0001:000903b0       _hb_macroErrorEvaluation   004913b0 f   xhb:macro.obj
 0001:00090300       _hb_macroCheckParam        00491300 f   xhb:macro.obj
 0001:00090200       _hb_macroParse             00491200 f   xhb:macro.obj
 0001:00090480       _hb_macroSyntaxError       00491480 f   xhb:macro.obj
 0001:00090440       _hb_macroEvaluate          00491440 f   xhb:macro.obj
 0001:00090bd0       _hb_macroUseAliased        00491bd0 f   xhb:macro.obj
 0001:000903f0       _hb_macroErrorType         004913f0 f   xhb:macro.obj
 0001:00092960       _get_decimal               00493960 f   xhb:hbprintf.obj
 0001:00092700       _va_arg_fill               00493700 f   xhb:hbprintf.obj
 0001:000925e0       _va_arg_get                004935e0 f   xhb:hbprintf.obj
 0001:00093180       _put_str                   00494180 f   xhb:hbprintf.obj
 0001:00092c90       _put_dbl                   00493c90 f   xhb:hbprintf.obj
 0001:00092af0       _put_dec                   00493af0 f   xhb:hbprintf.obj
 0001:000929b0       _put_octal                 004939b0 f   xhb:hbprintf.obj
 0001:00092f90       _put_hex                   00493f90 f   xhb:hbprintf.obj
 0001:000968b0       _HB_FUN__EXISTHELP         004978b0 f   xhb:harbinit.obj
 0001:00096760       _hb_vm_SymbolInit_HARBINIT 00497760 f   xhb:harbinit.obj
 0001:000968f0       _hb_vm_SymbolInit_OBJFUNC  004978f0 f   xhb:objfunc.obj
 0001:00096be0       _s_invalid_params          00497be0 f   xhb:hbbitf.obj
 0001:00097260       _hb_TimeStrToSec           00498260 f   xhb:samples.obj
 0001:00097120       _hb_SecToTimeStr           00498120 f   xhb:samples.obj
 0001:00097410       _DosToWinHandle            00498410 f   xhb:filesys.obj
 0001:00097450       _convert_open_flags        00498450 f   xhb:filesys.obj
 0001:000975b0       _convert_seek_flags        004985b0 f   xhb:filesys.obj
 0001:00099600       _hb_fsDisableWaitLocks     0049a600 f   xhb:filesys.obj
 0001:000996a0       _hb_WinToDosError          0049a6a0 f   xhb:fserror.obj
 0001:00099ac0       _HB_FUN_CWITHPATH          0049aac0 f   xhb:traceprg.obj
 0001:00099a50       _hb_vm_SymbolInit_TRACEPRG 0049aa50 f   xhb:traceprg.obj
 0001:00099cb0       _hb_getScreenRange         0049acb0 f   xhb:saverest.obj
 0001:0009a8f0       _hb_vm_SymbolInit_ERRLOGMT 0049b8f0 f   xhb:errlogmt.obj
 0001:0009c450       _hb_fsTempName             0049d450 f   xhb:fstemp.obj
 0001:0009c2b0       _hb_fsCreateTempLow        0049d2b0 f   xhb:fstemp.obj
 0001:0009d040       _s_win_iswow64             0049e040 f   xhb:hbver.obj
 0001:0009d520       _hb_conOutStd_             0049e520 f   xhb:hbver.obj
 0001:0009e4c0       _hb_fsFindFill             0049f4c0 f   xhb:hbffind.obj
 0001:0009f060       _HB_FUN_SCALAROBJECT_COPY  004a0060 f   xhb:tscalar.obj
 0001:0009f080       _HB_FUN_SCALAROBJECT_ASSTRING 004a0080 f   xhb:tscalar.obj
 0001:0009f0a0       _HB_FUN_SCALAROBJECT_ASEXPSTR 004a00a0 f   xhb:tscalar.obj
 0001:0009f100       _HB_FUN_ARRAY_APPEND       004a0100 f   xhb:tscalar.obj
 0001:0009f0e0       _HB_FUN_ARRAY_ADDALL       004a00e0 f   xhb:tscalar.obj
 0001:0009f120       _HB_FUN_ARRAY_COLLECT      004a0120 f   xhb:tscalar.obj
 0001:0009f140       _HB_FUN_ARRAY_DELETEAT     004a0140 f   xhb:tscalar.obj
 0001:0009f160       _HB_FUN_ARRAY_DO           004a0160 f   xhb:tscalar.obj
 0001:0009f180       _HB_FUN_ARRAY_INDEXOF      004a0180 f   xhb:tscalar.obj
 0001:0009f1a0       _HB_FUN_ARRAY_INSERTAT     004a01a0 f   xhb:tscalar.obj
 0001:0009f1c0       _HB_FUN_ARRAY_REMOVE       004a01c0 f   xhb:tscalar.obj
 0001:0009f200       _HB_FUN_HASH_ADDALL        004a0200 f   xhb:tscalar.obj
 0001:0009f220       _HB_FUN_HASH_COLLECT       004a0220 f   xhb:tscalar.obj
 0001:0009f240       _HB_FUN_HASH_DO            004a0240 f   xhb:tscalar.obj
 0001:0009f260       _HB_FUN_HASH__SIZE         004a0260 f   xhb:tscalar.obj
 0001:0009f3a0       _HB_FUN_POINTER_FUNCNAME   004a03a0 f   xhb:tscalar.obj
 0001:0009f380       _hb_INITSTATICS            004a0380 f   xhb:tscalar.obj
 0001:0009eff0       _hb_vm_SymbolInit_TSCALAR  0049fff0 f   xhb:tscalar.obj
 0001:0009f460       _getwinver                 004a0460 f   xhb:winos.obj
 0001:0009f3d0       _hb_vm_SymbolInit_WINOS    004a03d0 f   xhb:winos.obj
 0001:000a2b60       _mxml_sgs_new              004a3b60 f   xhb:hbxml.obj
 0001:000a2a90       _mxml_refil_getc           004a3a90 f   xhb:hbxml.obj
 0001:0009fbc0       _hbxml_doc_new_line        004a0bc0 f   xhb:hbxml.obj
 0001:000a2bb0       _mxml_sgs_destroy          004a3bb0 f   xhb:hbxml.obj
 0001:000a2be0       _mxml_sgs_append_char      004a3be0 f   xhb:hbxml.obj
 0001:0009fb40       _hbxml_set_doc_status      004a0b40 f   xhb:hbxml.obj
 0001:000a2cf0       _mxml_sgs_extract          004a3cf0 f   xhb:hbxml.obj
 0001:000a2820       _mxml_output_string_len    004a3820 f   xhb:hbxml.obj
 0001:000a27f0       _mxml_output_char          004a37f0 f   xhb:hbxml.obj
 0001:000a2870       _mxml_output_string_escape 004a3870 f   xhb:hbxml.obj
 0001:000a03d0       _mxml_node_unlink          004a13d0 f   xhb:hbxml.obj
 0001:000a0550       _mxml_node_insert_before   004a1550 f   xhb:hbxml.obj
 0001:000a06a0       _mxml_node_insert_after    004a16a0 f   xhb:hbxml.obj
 0001:000a0780       _mxml_node_insert_below    004a1780 f   xhb:hbxml.obj
 0001:000a0870       _mxml_node_add_below       004a1870 f   xhb:hbxml.obj
 0001:000a0330       _mxml_node_new             004a1330 f   xhb:hbxml.obj
 0001:000a0990       _mxml_node_clone           004a1990 f   xhb:hbxml.obj
 0001:000a0ac0       _mxml_node_clone_tree      004a1ac0 f   xhb:hbxml.obj
 0001:0009fc60       _mxml_attribute_read       004a0c60 f   xhb:hbxml.obj
 0001:000a0e80       _mxml_node_read_name       004a1e80 f   xhb:hbxml.obj
 0001:000a10a0       _mxml_node_read_attributes 004a20a0 f   xhb:hbxml.obj
 0001:000a1b10       _mxml_node_read            004a2b10 f   xhb:hbxml.obj
 0001:000a0ba0       _mxml_node_read_data       004a1ba0 f   xhb:hbxml.obj
 0001:000a12d0       _mxml_node_read_pi         004a22d0 f   xhb:hbxml.obj
 0001:000a14a0       _mxml_node_read_tag        004a24a0 f   xhb:hbxml.obj
 0001:000a1160       _mxml_node_read_directive  004a2160 f   xhb:hbxml.obj
 0001:000a1750       _mxml_node_read_cdata      004a2750 f   xhb:hbxml.obj
 0001:000a1580       _mxml_node_read_comment    004a2580 f   xhb:hbxml.obj
 0001:0009fc10       _hbxml_doc_new_node        004a0c10 f   xhb:hbxml.obj
 0001:000a1a00       _mxml_node_read_closing    004a2a00 f   xhb:hbxml.obj
 0001:000a0270       _mxml_attribute_write      004a1270 f   xhb:hbxml.obj
 0001:000a1fb0       _mxml_node_file_indent     004a2fb0 f   xhb:hbxml.obj
 0001:000a1f40       _mxml_node_write_attributes 004a2f40 f   xhb:hbxml.obj
 0001:000a2840       _mxml_output_string        004a3840 f   xhb:hbxml.obj
 0001:000a2000       _mxml_node_write           004a3000 f   xhb:hbxml.obj
 0001:000a2c50       _mxml_sgs_append_string_len 004a3c50 f   xhb:hbxml.obj
 0001:000a29f0       _mxml_refil_setup          004a39f0 f   xhb:hbxml.obj
 0001:000a2b10       _mxml_refill_from_handle_func 004a3b10 f   xhb:hbxml.obj
 0001:000a2d40       _mxml_error_desc           004a3d40 f   xhb:hbxml.obj
 0001:000a2990       _mxml_output_func_to_sgs   004a3990 f   xhb:hbxml.obj
 0001:000a27b0       _mxml_output_setup         004a37b0 f   xhb:hbxml.obj
 0001:000a2950       _mxml_output_func_to_handle 004a3950 f   xhb:hbxml.obj
 0001:000a3360       _hb_vm_SymbolInit_MEMVARBL 004a4360 f   xhb:memvarbl.obj
 0001:000a3c50       _hb_inKeyBlockFree         004a4c50 f   xhb:inkey.obj
 0001:000a3c90       _hb_inKeySetDestructor     004a4c90 f   xhb:inkey.obj
 0001:000a5f60       _hb_matherrblock           004a6f60 f   xhb:math.obj
 0001:000a67b0       __hb_lang_Init_            004a77b0 f   xhb:msgen.obj
 0001:000a6bc0       _LocalPcreMalloc           004a7bc0 f   xhb:pcre_globals.obj
 0001:000a6bd0       _LocalPcreFree             004a7bd0 f   xhb:pcre_globals.obj
 0001:000a6c00       _yydestruct                004a7c00 f   xhb:macroy.obj
 0001:000a9960       _hb_gt_def_Init            004aa960 f   xhb:hbgtcore.obj
 0001:000a99d0       _hb_gt_def_Exit            004aa9d0 f   xhb:hbgtcore.obj
 0001:000a97d0       _hb_gt_def_New             004aa7d0 f   xhb:hbgtcore.obj
 0001:000a98e0       _hb_gt_def_Free            004aa8e0 f   xhb:hbgtcore.obj
 0001:000aca80       _hb_gt_def_Resize          004ada80 f   xhb:hbgtcore.obj
 0001:000aca60       _hb_gt_def_SetMode         004ada60 f   xhb:hbgtcore.obj
 0001:000acca0       _hb_gt_def_GetSize         004adca0 f   xhb:hbgtcore.obj
 0001:000accc0       _hb_gt_def_SemiCold        004adcc0 f   xhb:hbgtcore.obj
 0001:000accf0       _hb_gt_def_ColdArea        004adcf0 f   xhb:hbgtcore.obj
 0001:000acdb0       _hb_gt_def_ExposeArea      004addb0 f   xhb:hbgtcore.obj
 0001:000aaf90       _hb_gt_def_ScrollArea      004abf90 f   xhb:hbgtcore.obj
 0001:000ace40       _hb_gt_def_TouchCell       004ade40 f   xhb:hbgtcore.obj
 0001:000ace90       _hb_gt_def_Redraw          004ade90 f   xhb:hbgtcore.obj
 0001:000acea0       _hb_gt_def_Refresh         004adea0 f   xhb:hbgtcore.obj
 0001:000acfd0       _hb_gt_def_Flush           004adfd0 f   xhb:hbgtcore.obj
 0001:000a9ab0       _hb_gt_def_MaxCol          004aaab0 f   xhb:hbgtcore.obj
 0001:000a9ac0       _hb_gt_def_MaxRow          004aaac0 f   xhb:hbgtcore.obj
 0001:000a9a10       _hb_gt_def_CheckPos        004aaa10 f   xhb:hbgtcore.obj
 0001:000a9a90       _hb_gt_def_SetPos          004aaa90 f   xhb:hbgtcore.obj
 0001:000a9a70       _hb_gt_def_GetPos          004aaa70 f   xhb:hbgtcore.obj
 0001:000a9ad0       _hb_gt_def_IsColor         004aaad0 f   xhb:hbgtcore.obj
 0001:000a9ae0       _hb_gt_def_GetColorStr     004aaae0 f   xhb:hbgtcore.obj
 0001:000a9b00       _hb_gt_def_SetColorStr     004aab00 f   xhb:hbgtcore.obj
 0001:000a9b30       _hb_gt_def_ColorSelect     004aab30 f   xhb:hbgtcore.obj
 0001:000a9b50       _hb_gt_def_GetColor        004aab50 f   xhb:hbgtcore.obj
 0001:000a9f00       _hb_gt_def_ColorNum        004aaf00 f   xhb:hbgtcore.obj
 0001:000aa020       _hb_gt_def_ColorsToString  004ab020 f   xhb:hbgtcore.obj
 0001:000a9f20       _hb_gt_def_StringToColors  004aaf20 f   xhb:hbgtcore.obj
 0001:000a9b80       _hb_gt_def_GetColorData    004aab80 f   xhb:hbgtcore.obj
 0001:000a9c10       _hb_gt_def_GetClearColor   004aac10 f   xhb:hbgtcore.obj
 0001:000a9c20       _hb_gt_def_SetClearColor   004aac20 f   xhb:hbgtcore.obj
 0001:000a9c30       _hb_gt_def_GetClearChar    004aac30 f   xhb:hbgtcore.obj
 0001:000a9c40       _hb_gt_def_SetClearChar    004aac40 f   xhb:hbgtcore.obj
 0001:000aa140       _hb_gt_def_GetCursorStyle  004ab140 f   xhb:hbgtcore.obj
 0001:000aa150       _hb_gt_def_SetCursorStyle  004ab150 f   xhb:hbgtcore.obj
 0001:000aa180       _hb_gt_def_GetScrCursor    004ab180 f   xhb:hbgtcore.obj
 0001:000aa530       _hb_gt_def_GetChar         004ab530 f   xhb:hbgtcore.obj
 0001:000aa5a0       _hb_gt_def_PutChar         004ab5a0 f   xhb:hbgtcore.obj
 0001:000aa230       _hb_gt_def_DispBegin       004ab230 f   xhb:hbgtcore.obj
 0001:000aa240       _hb_gt_def_DispEnd         004ab240 f   xhb:hbgtcore.obj
 0001:000aa260       _hb_gt_def_DispCount       004ab260 f   xhb:hbgtcore.obj
 0001:000aaab0       _hb_gt_def_RectSize        004abab0 f   xhb:hbgtcore.obj
 0001:000aab00       _hb_gt_def_Save            004abb00 f   xhb:hbgtcore.obj
 0001:000aabd0       _hb_gt_def_Rest            004abbd0 f   xhb:hbgtcore.obj
 0001:000aa620       _hb_gt_def_PutText         004ab620 f   xhb:hbgtcore.obj
 0001:000aa670       _hb_gt_def_Replicate       004ab670 f   xhb:hbgtcore.obj
 0001:000aa6e0       _hb_gt_def_WriteAt         004ab6e0 f   xhb:hbgtcore.obj
 0001:000aa750       _hb_gt_def_Write           004ab750 f   xhb:hbgtcore.obj
 0001:000aa790       _hb_gt_def_WriteCon        004ab790 f   xhb:hbgtcore.obj
 0001:000aac80       _hb_gt_def_SetAttribute    004abc80 f   xhb:hbgtcore.obj
 0001:000aacf0       _hb_gt_def_DrawShadow      004abcf0 f   xhb:hbgtcore.obj
 0001:000aadd0       _hb_gt_def_Scroll          004abdd0 f   xhb:hbgtcore.obj
 0001:000ab1c0       _hb_gt_def_ScrollUp        004ac1c0 f   xhb:hbgtcore.obj
 0001:000ab2d0       _hb_gt_def_Box             004ac2d0 f   xhb:hbgtcore.obj
 0001:000ab6c0       _hb_gt_def_BoxD            004ac6c0 f   xhb:hbgtcore.obj
 0001:000ab680       _hb_gt_def_BoxS            004ac680 f   xhb:hbgtcore.obj
 0001:000ab700       _hb_gt_def_HorizLine       004ac700 f   xhb:hbgtcore.obj
 0001:000ab760       _hb_gt_def_VertLine        004ac760 f   xhb:hbgtcore.obj
 0001:000aa200       _hb_gt_def_GetBlink        004ab200 f   xhb:hbgtcore.obj
 0001:000aa210       _hb_gt_def_SetBlink        004ab210 f   xhb:hbgtcore.obj
 0001:000aa220       _hb_gt_def_SetSnowFlag     004ab220 f   xhb:hbgtcore.obj
 0001:000aa510       _hb_gt_def_Version         004ab510 f   xhb:hbgtcore.obj
 0001:000aa2c0       _hb_gt_def_Suspend         004ab2c0 f   xhb:hbgtcore.obj
 0001:000aa2e0       _hb_gt_def_Resume          004ab2e0 f   xhb:hbgtcore.obj
 0001:000aa270       _hb_gt_def_PreExt          004ab270 f   xhb:hbgtcore.obj
 0001:000aa2a0       _hb_gt_def_PostExt         004ab2a0 f   xhb:hbgtcore.obj
 0001:000aa300       _hb_gt_def_OutStd          004ab300 f   xhb:hbgtcore.obj
 0001:000aa3e0       _hb_gt_def_OutErr          004ab3e0 f   xhb:hbgtcore.obj
 0001:000aa4c0       _hb_gt_def_Tone            004ab4c0 f   xhb:hbgtcore.obj
 0001:000aa4e0       _hb_gt_def_Bell            004ab4e0 f   xhb:hbgtcore.obj
 0001:000ab860       _hb_gt_def_Info            004ac860 f   xhb:hbgtcore.obj
 0001:000abe30       _hb_gt_def_Alert           004ace30 f   xhb:hbgtcore.obj
 0001:000ac9f0       _hb_gt_def_SetFlag         004ad9f0 f   xhb:hbgtcore.obj
 0001:000ab7d0       _hb_gt_def_SetDispCP       004ac7d0 f   xhb:hbgtcore.obj
 0001:000ab850       _hb_gt_def_SetKeyCP        004ac850 f   xhb:hbgtcore.obj
 0001:000acff0       _hb_gt_def_ReadKey         004adff0 f   xhb:hbgtcore.obj
 0001:000ad370       _hb_gt_def_InkeyGet        004ae370 f   xhb:hbgtcore.obj
 0001:000ad120       _hb_gt_def_InkeyPut        004ae120 f   xhb:hbgtcore.obj
 0001:000ad190       _hb_gt_def_InkeyIns        004ae190 f   xhb:hbgtcore.obj
 0001:000ad4a0       _hb_gt_def_InkeyLast       004ae4a0 f   xhb:hbgtcore.obj
 0001:000ad330       _hb_gt_def_InkeyNext       004ae330 f   xhb:hbgtcore.obj
 0001:000ad310       _hb_gt_def_InkeyPoll       004ae310 f   xhb:hbgtcore.obj
 0001:000ad580       _hb_gt_def_InkeySetText    004ae580 f   xhb:hbgtcore.obj
 0001:000ad4d0       _hb_gt_def_InkeySetLast    004ae4d0 f   xhb:hbgtcore.obj
 0001:000ad630       _hb_gt_def_InkeyReset      004ae630 f   xhb:hbgtcore.obj
 0001:000ad700       _hb_gt_def_InkeyExit       004ae700 f   xhb:hbgtcore.obj
 0001:000ad770       _hb_gt_def_MouseInit       004ae770 f   xhb:hbgtcore.obj
 0001:000ad780       _hb_gt_def_MouseExit       004ae780 f   xhb:hbgtcore.obj
 0001:000ad790       _hb_gt_def_MouseIsPresent  004ae790 f   xhb:hbgtcore.obj
 0001:000ad7a0       _hb_gt_def_MouseShow       004ae7a0 f   xhb:hbgtcore.obj
 0001:000ad7b0       _hb_gt_def_MouseHide       004ae7b0 f   xhb:hbgtcore.obj
 0001:000ad7c0       _hb_gt_def_MouseGetCursor  004ae7c0 f   xhb:hbgtcore.obj
 0001:000ad7d0       _hb_gt_def_MouseSetCursor  004ae7d0 f   xhb:hbgtcore.obj
 0001:000ad850       _hb_gt_def_MouseCol        004ae850 f   xhb:hbgtcore.obj
 0001:000ad820       _hb_gt_def_MouseRow        004ae820 f   xhb:hbgtcore.obj
 0001:000ad880       _hb_gt_def_MouseGetPos     004ae880 f   xhb:hbgtcore.obj
 0001:000ad8a0       _hb_gt_def_MouseSetPos     004ae8a0 f   xhb:hbgtcore.obj
 0001:000ad8b0       _hb_gt_def_MouseSetBounds  004ae8b0 f   xhb:hbgtcore.obj
 0001:000ad8c0       _hb_gt_def_MouseGetBounds  004ae8c0 f   xhb:hbgtcore.obj
 0001:000ad900       _hb_gt_def_mouseStorageSize 004ae900 f   xhb:hbgtcore.obj
 0001:000ad910       _hb_gt_def_mouseSaveState  004ae910 f   xhb:hbgtcore.obj
 0001:000ad990       _hb_gt_def_mouseRestoreState 004ae990 f   xhb:hbgtcore.obj
 0001:000ad9f0       _hb_gt_def_mouseGetDoubleClickSpeed 004ae9f0 f   xhb:hbgtcore.obj
 0001:000ada00       _hb_gt_def_mouseSetDoubleClickSpeed 004aea00 f   xhb:hbgtcore.obj
 0001:000ada20       _hb_gt_def_MouseCountButton 004aea20 f   xhb:hbgtcore.obj
 0001:000ada30       _hb_gt_def_MouseButtonState 004aea30 f   xhb:hbgtcore.obj
 0001:000ada40       _hb_gt_def_MouseButtonPressed 004aea40 f   xhb:hbgtcore.obj
 0001:000ada50       _hb_gt_def_MouseButtonReleased 004aea50 f   xhb:hbgtcore.obj
 0001:000ada60       _hb_gt_def_MouseReadKey    004aea60 f   xhb:hbgtcore.obj
 0001:000add10       _hb_gt_def_GfxPrimitive    004aed10 f   xhb:hbgtcore.obj
 0001:000add20       _hb_gt_def_GfxText         004aed20 f   xhb:hbgtcore.obj
 0001:000add30       _hb_gt_def_WhoCares        004aed30 f   xhb:hbgtcore.obj
 0001:000a9710       _hb_gt_def_BaseInit        004aa710 f   xhb:hbgtcore.obj
 0001:000a9c50       _hb_gt_def_ColorDecode     004aac50 f   xhb:hbgtcore.obj
 0001:000ad010       _hb_gt_def_InkeyFilter     004ae010 f   xhb:hbgtcore.obj
 0001:000ad090       _hb_gt_def_InkeyPop        004ae090 f   xhb:hbgtcore.obj
 0001:000ad2a0       _hb_gt_def_InkeyPollDo     004ae2a0 f   xhb:hbgtcore.obj
 0001:000ad210       _hb_gt_def_InkeyNextCheck  004ae210 f   xhb:hbgtcore.obj
 0001:000ad4f0       _hb_gt_def_SetStrBuffer    004ae4f0 f   xhb:hbgtcore.obj
 0001:000add40       _hb_gt_FindEntry           004aed40 f   xhb:hbgtcore.obj
 0001:000ae400       _hb_tokensplit             004af400 f   xhb:fparse.obj
 0001:000af0c0       _HB_FUN_WINREGOPENKEYEX    004b00c0 f   xhb:winreg.obj
 0001:000af140       _HB_FUN_WINREGQUERYVALUEEX 004b0140 f   xhb:winreg.obj
 0001:000af2f0       _HB_FUN_WINREGCLOSEKEY     004b02f0 f   xhb:winreg.obj
 0001:000af000       _HB_FUN_WINREGCREATEKEYEX  004b0000 f   xhb:winreg.obj
 0001:000af240       _HB_FUN_WINREGSETVALUEEX   004b0240 f   xhb:winreg.obj
 0001:000aef90       _regkeykey                 004aff90 f   xhb:winreg.obj
 0001:000aeee0       _hb_vm_SymbolInit_WINREG   004afee0 f   xhb:winreg.obj
 0001:000af480       _hb_fsGrabDirectory        004b0480 f   xhb:direct.obj
 0001:000af850       _hb_fsDirectoryCrawler     004b0850 f   xhb:direct.obj
 0001:000af7d0       _hb_strMatchRegExpDir      004b07d0 f   xhb:direct.obj
 0001:000afec0       _is_counted_repeat         004b0ec0 f   xhb:pcre_compile.obj
 0001:000b0820       _find_parens_sub           004b1820 f   xhb:pcre_compile.obj
 0001:000b0e10       _find_fixedlength          004b1e10 f   xhb:pcre_compile.obj
 0001:000b0d40       _first_significant_code    004b1d40 f   xhb:pcre_compile.obj
 0001:000b13e0       _could_be_empty_branch     004b23e0 f   xhb:pcre_compile.obj
 0001:000b1850       _check_posix_syntax        004b2850 f   xhb:pcre_compile.obj
 0001:000b12b0       _find_recurse              004b22b0 f   xhb:pcre_compile.obj
 0001:000aff70       _check_escape              004b0f70 f   xhb:pcre_compile.obj
 0001:000b2710       _add_to_class              004b3710 f   xhb:pcre_compile.obj
 0001:000b1a70       _complete_callout          004b2a70 f   xhb:pcre_compile.obj
 0001:000b1a10       _auto_callout              004b2a10 f   xhb:pcre_compile.obj
 0001:000b1900       _check_posix_name          004b2900 f   xhb:pcre_compile.obj
 0001:000b2830       _add_list_to_class         004b3830 f   xhb:pcre_compile.obj
 0001:000b28a0       _add_not_list_to_class     004b38a0 f   xhb:pcre_compile.obj
 0001:000b0740       _read_repeat_counts        004b1740 f   xhb:pcre_compile.obj
 0001:000b1ab0       _check_auto_possessive     004b2ab0 f   xhb:pcre_compile.obj
 0001:000b1950       _adjust_recurse            004b2950 f   xhb:pcre_compile.obj
 0001:000afe10       _expand_workspace          004b0e10 f   xhb:pcre_compile.obj
 0001:000b0ce0       _find_parens               004b1ce0 f   xhb:pcre_compile.obj
 0001:000b1800       _could_be_empty            004b2800 f   xhb:pcre_compile.obj
 0001:000b7190       _compile_regex             004b8190 f   xhb:pcre_compile.obj
 0001:000b2960       _compile_branch            004b3960 f   xhb:pcre_compile.obj
 0001:000b7630       _is_anchored               004b8630 f   xhb:pcre_compile.obj
 0001:000b77e0       _is_startline              004b87e0 f   xhb:pcre_compile.obj
 0001:000b7a00       _find_firstassertedchar    004b8a00 f   xhb:pcre_compile.obj
 0001:000afde0       _find_error_text           004b0de0 f   xhb:pcre_compile.obj
 0001:000b8b50       _match                     004b9b50 f   xhb:pcre_exec.obj
 0001:000b8a70       _match_ref                 004b9a70 f   xhb:pcre_exec.obj
 0001:000c64d0       _hb_comp_SLX_Str2Num       004c74d0 f   xhb:macroslx.obj
 0001:000c7ac0       _Reduce                    004c8ac0 f   xhb:macroslx.obj
 0001:000c6530       _hb_macro_SLX_CustomAction 004c7530 f   xhb:macroslx.obj
 0001:000c8570       _GenTrees                  004c9570 f   xhb:macroslx.obj
 0001:000c6210       _hb_macro_SLX_ElementToken 004c7210 f   xhb:macroslx.obj
 0001:000c87d0       _rulecmp                   004c97d0 f   xhb:macroslx.obj
 0001:000c97a0       _hb_compExprCBVarNew       004ca7a0 f   xhb:macroa.obj
 0001:000cb9e0       _hb_compExprUseEmpty       004cc9e0 f   xhb:macrob.obj
 0001:000cba30       _hb_compExprUseExtBlock    004cca30 f   xhb:macrob.obj
 0001:000cba40       _hb_compExprUseNil         004cca40 f   xhb:macrob.obj
 0001:000cbaa0       _hb_compExprUseNumeric     004ccaa0 f   xhb:macrob.obj
 0001:000cbb30       _hb_compExprUseDate        004ccb30 f   xhb:macrob.obj
 0001:000cbb90       _hb_compExprUseString      004ccb90 f   xhb:macrob.obj
 0001:000cbc10       _hb_compExprUseCodeblock   004ccc10 f   xhb:macrob.obj
 0001:000cbd40       _hb_compExprUseLogical     004ccd40 f   xhb:macrob.obj
 0001:000cbda0       _hb_compExprUseSelf        004ccda0 f   xhb:macrob.obj
 0001:000cbdf0       _hb_compExprUseArray       004ccdf0 f   xhb:macrob.obj
 0001:000cbf70       _hb_compExprUseVarRef      004ccf70 f   xhb:macrob.obj
 0001:000cbfd0       _hb_compExprUseMemVarRef   004ccfd0 f   xhb:macrob.obj
 0001:000cc030       _hb_compExprUseFunRef      004cd030 f   xhb:macrob.obj
 0001:000cc0a0       _hb_compExprUseIIF         004cd0a0 f   xhb:macrob.obj
 0001:000cc1f0       _hb_compExprUseList        004cd1f0 f   xhb:macrob.obj
 0001:000cc3e0       _hb_compExprUseArgList     004cd3e0 f   xhb:macrob.obj
 0001:000cc480       _hb_compExprUseArrayAt     004cd480 f   xhb:macrob.obj
 0001:000cca20       _hb_compExprUseMacro       004cda20 f   xhb:macrob.obj
 0001:000ccce0       _hb_compExprUseFunCall     004cdce0 f   xhb:macrob.obj
 0001:000cdeb0       _hb_compExprUseAliasVar    004ceeb0 f   xhb:macrob.obj
 0001:000ce1f0       _hb_compExprUseAliasExpr   004cf1f0 f   xhb:macrob.obj
 0001:000ce5a0       _hb_compExprUseSend        004cf5a0 f   xhb:macrob.obj
 0001:000ce8f0       _hb_compExprUseWithSend    004cf8f0 f   xhb:macrob.obj
 0001:000ce380       _hb_compExprUseFunName     004cf380 f   xhb:macrob.obj
 0001:000ce340       _hb_compExprUseAlias       004cf340 f   xhb:macrob.obj
 0001:000ce3e0       _hb_compExprUseRTVariable  004cf3e0 f   xhb:macrob.obj
 0001:000ce4d0       _hb_compExprUseVariable    004cf4d0 f   xhb:macrob.obj
 0001:000ceb60       _hb_compExprUsePostInc     004cfb60 f   xhb:macrob.obj
 0001:000cec30       _hb_compExprUsePostDec     004cfc30 f   xhb:macrob.obj
 0001:000ced00       _hb_compExprUseAssign      004cfd00 f   xhb:macrob.obj
 0001:000cefe0       _hb_compExprUsePlusEq      004cffe0 f   xhb:macrob.obj
 0001:000cf0e0       _hb_compExprUseMinusEq     004d00e0 f   xhb:macrob.obj
 0001:000cf1e0       _hb_compExprUseMultEq      004d01e0 f   xhb:macrob.obj
 0001:000cf2e0       _hb_compExprUseDivEq       004d02e0 f   xhb:macrob.obj
 0001:000cf3e0       _hb_compExprUseModEq       004d03e0 f   xhb:macrob.obj
 0001:000cf4e0       _hb_compExprUseExpEq       004d04e0 f   xhb:macrob.obj
 0001:000cf5e0       _hb_compExprUseOr          004d05e0 f   xhb:macrob.obj
 0001:000cf870       _hb_compExprUseAnd         004d0870 f   xhb:macrob.obj
 0001:000cfb00       _hb_compExprUseNot         004d0b00 f   xhb:macrob.obj
 0001:000cfc80       _hb_compExprUseEqual       004d0c80 f   xhb:macrob.obj
 0001:000cff50       _hb_compExprUseEQ          004d0f50 f   xhb:macrob.obj
 0001:000d00f0       _hb_compExprUseLT          004d10f0 f   xhb:macrob.obj
 0001:000d0290       _hb_compExprUseGT          004d1290 f   xhb:macrob.obj
 0001:000d0430       _hb_compExprUseLE          004d1430 f   xhb:macrob.obj
 0001:000d05d0       _hb_compExprUseGE          004d15d0 f   xhb:macrob.obj
 0001:000d0770       _hb_compExprUseNE          004d1770 f   xhb:macrob.obj
 0001:000d0910       _hb_compExprUseIN          004d1910 f   xhb:macrob.obj
 0001:000d0ab0       _hb_compExprUseLike        004d1ab0 f   xhb:macrob.obj
 0001:000d0c40       _hb_compExprUseMatch       004d1c40 f   xhb:macrob.obj
 0001:000d0dd0       _hb_compExprUsePlus        004d1dd0 f   xhb:macrob.obj
 0001:000d0f70       _hb_compExprUseMinus       004d1f70 f   xhb:macrob.obj
 0001:000d1110       _hb_compExprUseMult        004d2110 f   xhb:macrob.obj
 0001:000d12b0       _hb_compExprUseDiv         004d22b0 f   xhb:macrob.obj
 0001:000d1450       _hb_compExprUseMod         004d2450 f   xhb:macrob.obj
 0001:000d15f0       _hb_compExprUsePower       004d25f0 f   xhb:macrob.obj
 0001:000d1710       _hb_compExprUseBitAnd      004d2710 f   xhb:macrob.obj
 0001:000d1870       _hb_compExprUseBitOr       004d2870 f   xhb:macrob.obj
 0001:000d19d0       _hb_compExprUseBitXOr      004d29d0 f   xhb:macrob.obj
 0001:000d1b30       _hb_compExprUseBitShiftR   004d2b30 f   xhb:macrob.obj
 0001:000d1c90       _hb_compExprUseBitShiftL   004d2c90 f   xhb:macrob.obj
 0001:000d1df0       _hb_compExprUseNegate      004d2df0 f   xhb:macrob.obj
 0001:000d1f80       _hb_compExprUsePreInc      004d2f80 f   xhb:macrob.obj
 0001:000d2060       _hb_compExprUsePreDec      004d3060 f   xhb:macrob.obj
 0001:000db4e3       _hb_waOrderCondition       004dc4e3 f   DBF:workarea.obj
 0001:000da130       _hb_waBof                  004db130 f   DBF:workarea.obj
 0001:000da145       _hb_waEof                  004db145 f   DBF:workarea.obj
 0001:000da15a       _hb_waFound                004db15a f   DBF:workarea.obj
 0001:000dcddb       _hb_waUnsupported          004ddddb f   DBF:workarea.obj
 0001:000da16f       _hb_waSkip                 004db16f f   DBF:workarea.obj
 0001:000da26d       _hb_waSkipFilter           004db26d f   DBF:workarea.obj
 0001:000da422       _hb_waAddField             004db422 f   DBF:workarea.obj
 0001:000da5a6       _hb_waCreateFields         004db5a6 f   DBF:workarea.obj
 0001:000dab06       _hb_waFieldCount           004dbb06 f   DBF:workarea.obj
 0001:000dab25       _hb_waFieldInfo            004dbb25 f   DBF:workarea.obj
 0001:000dae36       _hb_waFieldName            004dbe36 f   DBF:workarea.obj
 0001:000dae9d       _hb_waSetFieldExtent       004dbe9d f   DBF:workarea.obj
 0001:000daef4       _hb_waAlias                004dbef4 f   DBF:workarea.obj
 0001:000daf57       _hb_waClose                004dbf57 f   DBF:workarea.obj
 0001:000db471       _hb_waOpen                 004dc471 f   DBF:workarea.obj
 0001:000dafba       _hb_waInfo                 004dbfba f   DBF:workarea.obj
 0001:000db432       _hb_waNewArea              004dc432 f   DBF:workarea.obj
 0001:000db643       _hb_waRelease              004dc643 f   DBF:workarea.obj
 0001:000db6b5       _hb_waStructSize           004dc6b5 f   DBF:workarea.obj
 0001:000db6c7       _hb_waSysName              004dc6c7 f   DBF:workarea.obj
 0001:000db6f0       _hb_waEval                 004dc6f0 f   DBF:workarea.obj
 0001:000dbb9b       _hb_waTrans                004dcb9b f   DBF:workarea.obj
 0001:000dbdcf       _hb_waTransRec             004dcdcf f   DBF:workarea.obj
 0001:000dc00a       _hb_waChildEnd             004dd00a f   DBF:workarea.obj
 0001:000dc08a       _hb_waChildStart           004dd08a f   DBF:workarea.obj
 0001:000dc0a0       _hb_waSyncChildren         004dd0a0 f   DBF:workarea.obj
 0001:000dc0fc       _hb_waClearRel             004dd0fc f   DBF:workarea.obj
 0001:000dc1ca       _hb_waRelArea              004dd1ca f   DBF:workarea.obj
 0001:000dc25a       _hb_waRelEval              004dd25a f   DBF:workarea.obj
 0001:000dc3f1       _hb_waRelText              004dd3f1 f   DBF:workarea.obj
 0001:000dc460       _hb_waSetRel               004dd460 f   DBF:workarea.obj
 0001:000db40a       _hb_waOrderInfo            004dc40a f   DBF:workarea.obj
 0001:000dc53f       _hb_waClearFilter          004dd53f f   DBF:workarea.obj
 0001:000dc5ad       _hb_waClearLocate          004dd5ad f   DBF:workarea.obj
 0001:000dc6cf       _hb_waFilterText           004dd6cf f   DBF:workarea.obj
 0001:000dc6fb       _hb_waSetFilter            004dd6fb f   DBF:workarea.obj
 0001:000dc784       _hb_waSetLocate            004dd784 f   DBF:workarea.obj
 0001:000db926       _hb_waLocate               004dc926 f   DBF:workarea.obj
 0001:000dc8f3       _hb_waCompile              004dd8f3 f   DBF:workarea.obj
 0001:000dc944       _hb_waError                004dd944 f   DBF:workarea.obj
 0001:000dc9c3       _hb_waEvalBlock            004dd9c3 f   DBF:workarea.obj
 0001:000dce36       _hb_waRddUnsupported       004dde36 f   DBF:workarea.obj
 0001:000dca8d       _hb_waRddInfo              004dda8d f   DBF:workarea.obj
 0001:000de817       _hb_fldStructure           004df817 f   DBF:wafunc.obj
 0001:000de927       _hb_dbTransFieldPos        004df927 f   DBF:wafunc.obj
 0001:000df403       _hb_rddCloseParentRel      004e0403 f   DBF:wafunc.obj
 0001:000df530       _hb_waNodeInsert           004e0530 f   DBF:wacore.obj
 0001:000df794       _hb_waNodeDelete           004e0794 f   DBF:wacore.obj
 0001:000e02a0       _hb_vm_SymbolInit_RDDORD   004e12a0 f   DBF:rddord.obj
 0001:000e03f0       _hb_vm_SymbolInit_RDDSYS   004e13f0 f   DBF:rddsys.obj
 0001:000e0570       _hb_dbfGetRowVer           004e1570 f   DBF:dbf1.obj
 0001:000e06b1       _hb_dbfGetNextValue        004e16b1 f   DBF:dbf1.obj
 0001:000e106b       _hb_dbfCalcRecCount        004e206b f   DBF:dbf1.obj
 0001:000e0460       _hb_dbfErrorRT             004e1460 f   DBF:dbf1.obj
 0001:000e134c       _hb_dbfPasswordSet         004e234c f   DBF:dbf1.obj
 0001:000e10d0       _hb_dbfReadRecord          004e20d0 f   DBF:dbf1.obj
 0001:000e17b6       _hb_dbfUnlockAllRecords    004e27b6 f   DBF:dbf1.obj
 0001:000e07ea       _hb_dbfUpdatedbaselockValue 004e17ea f   DBF:dbf1.obj
 0001:000e0aba       _hb_dbfSetBlankRecord      004e1aba f   DBF:dbf1.obj
 0001:000e0f0d       _hb_dbfTriggerDo           004e1f0d f   DBF:dbf1.obj
 0001:000e1cd0       _hb_dbfIsLocked            004e2cd0 f   DBF:dbf1.obj
 0001:000e1981       _hb_dbfLockRecord          004e2981 f   DBF:dbf1.obj
 0001:000e1857       _hb_dbfUnlockRecord        004e2857 f   DBF:dbf1.obj
 0001:000e0985       _hb_dbfUpdateStampFields   004e1985 f   DBF:dbf1.obj
 0001:000e128d       _hb_dbfWriteRecord         004e228d f   DBF:dbf1.obj
 0001:000e1d20       _hb_dbfGetLockArray        004e2d20 f   DBF:dbf1.obj
 0001:000e12d3       _hb_dbfTableTransaction    004e22d3 f   DBF:dbf1.obj
 0001:000e1573       _hb_dbfTableCrypt          004e2573 f   DBF:dbf1.obj
 0001:000e26d5       _hb_dbfLockData            004e36d5 f   DBF:dbf1.obj
 0001:000e0fc0       _hb_dbfTriggerSet          004e1fc0 f   DBF:dbf1.obj
 0001:000e0754       _hb_dbfSetNextValue        004e1754 f   DBF:dbf1.obj
 0001:000e9ac4       _hb_dbfRawLock             004eaac4 f   DBF:dbf1.obj
 0001:000e1bae       _hb_dbfLockFile            004e2bae f   DBF:dbf1.obj
 0001:000e1c89       _hb_dbfUnlockFile          004e2c89 f   DBF:dbf1.obj
 0001:000ec172       _hb_dbfRddInit             004ed172 f   DBF:dbf1.obj
 0001:000e28d4       _hb_dbfBof                 004e38d4 f   DBF:dbf1.obj
 0001:000e291e       _hb_dbfEof                 004e391e f   DBF:dbf1.obj
 0001:000e2968       _hb_dbfFound               004e3968 f   DBF:dbf1.obj
 0001:000e29b2       _hb_dbfGoBottom            004e39b2 f   DBF:dbf1.obj
 0001:000e2a50       _hb_dbfGoTo                004e3a50 f   DBF:dbf1.obj
 0001:000e2bee       _hb_dbfGoToId              004e3bee f   DBF:dbf1.obj
 0001:000e2c60       _hb_dbfGoTop               004e3c60 f   DBF:dbf1.obj
 0001:000e2cac       _hb_dbfSkip                004e3cac f   DBF:dbf1.obj
 0001:000e2dbd       _hb_dbfSkipRaw             004e3dbd f   DBF:dbf1.obj
 0001:000e2ea5       _hb_dbfAddField            004e3ea5 f   DBF:dbf1.obj
 0001:000e2f3c       _hb_dbfAppend              004e3f3c f   DBF:dbf1.obj
 0001:000e324b       _hb_dbfDeleteRec           004e424b f   DBF:dbf1.obj
 0001:000e334b       _hb_dbfDeleted             004e434b f   DBF:dbf1.obj
 0001:000e33c4       _hb_dbfFlush               004e43c4 f   DBF:dbf1.obj
 0001:000e34a3       _hb_dbfGetRec              004e44a3 f   DBF:dbf1.obj
 0001:000e35ab       _hb_dbfGetValue            004e45ab f   DBF:dbf1.obj
 0001:000e3eca       _hb_dbfGetVarLen           004e4eca f   DBF:dbf1.obj
 0001:000e3eee       _hb_dbfGoCold              004e4eee f   DBF:dbf1.obj
 0001:000e3fed       _hb_dbfGoHot               004e4fed f   DBF:dbf1.obj
 0001:000e4094       _hb_dbfPutRec              004e5094 f   DBF:dbf1.obj
 0001:000e4387       _hb_dbfPutValue            004e5387 f   DBF:dbf1.obj
 0001:000e52fd       _hb_dbfRecall              004e62fd f   DBF:dbf1.obj
 0001:000e53fd       _hb_dbfRecCount            004e63fd f   DBF:dbf1.obj
 0001:000e753f       _hb_dbfRecInfo             004e853f f   DBF:dbf1.obj
 0001:000e5442       _hb_dbfRecNo               004e6442 f   DBF:dbf1.obj
 0001:000e548f       _hb_dbfRecId               004e648f f   DBF:dbf1.obj
 0001:000e54c9       _hb_dbfSetFieldExtent      004e64c9 f   DBF:dbf1.obj
 0001:000e5539       _hb_dbfClose               004e6539 f   DBF:dbf1.obj
 0001:000e57f8       _hb_dbfCreate              004e67f8 f   DBF:dbf1.obj
 0001:000e6cc9       _hb_dbfInfo                004e7cc9 f   DBF:dbf1.obj
 0001:000e7ba2       _hb_dbfNewArea             004e8ba2 f   DBF:dbf1.obj
 0001:000e7c94       _hb_dbfOpen                004e8c94 f   DBF:dbf1.obj
 0001:000e8ce2       _hb_dbfStructSize          004e9ce2 f   DBF:dbf1.obj
 0001:000e8d2e       _hb_dbfPack                004e9d2e f   DBF:dbf1.obj
 0001:000e8cf4       _hb_dbfPackRec             004e9cf4 f   DBF:dbf1.obj
 0001:000e91d1       _hb_dbfSort                004ea1d1 f   DBF:dbf1.obj
 0001:000e9627       _hb_dbfTrans               004ea627 f   DBF:dbf1.obj
 0001:000e9740       _hb_dbfZap                 004ea740 f   DBF:dbf1.obj
 0001:000e990f       _hb_dbfChildEnd            004ea90f f   DBF:dbf1.obj
 0001:000e9960       _hb_dbfChildStart          004ea960 f   DBF:dbf1.obj
 0001:000e99a0       _hb_dbfChildSync           004ea9a0 f   DBF:dbf1.obj
 0001:000e99ff       _hb_dbfForceRel            004ea9ff f   DBF:dbf1.obj
 0001:000e9a54       _hb_dbfClearFilter         004eaa54 f   DBF:dbf1.obj
 0001:000e9a8a       _hb_dbfSetFilter           004eaa8a f   DBF:dbf1.obj
 0001:000e9f83       _hb_dbfLock                004eaf83 f   DBF:dbf1.obj
 0001:000ea04c       _hb_dbfUnLock              004eb04c f   DBF:dbf1.obj
 0001:000ea0fb       _hb_dbfCreateMemFile       004eb0fb f   DBF:dbf1.obj
 0001:000ea13e       _hb_dbfGetValueFile        004eb13e f   DBF:dbf1.obj
 0001:000ea368       _hb_dbfOpenMemFile         004eb368 f   DBF:dbf1.obj
 0001:000ea392       _hb_dbfPutValueFile        004eb392 f   DBF:dbf1.obj
 0001:000ea5fa       _hb_dbfReadDBHeader        004eb5fa f   DBF:dbf1.obj
 0001:000ea996       _hb_dbfWriteDBHeader       004eb996 f   DBF:dbf1.obj
 0001:000eba0d       _hb_dbfInit                004eca0d f   DBF:dbf1.obj
 0001:000eba69       _hb_dbfExit                004eca69 f   DBF:dbf1.obj
 0001:000eb12f       _hb_dbfDrop                004ec12f f   DBF:dbf1.obj
 0001:000eb433       _hb_dbfExists              004ec433 f   DBF:dbf1.obj
 0001:000eb5ab       _hb_dbfRename              004ec5ab f   DBF:dbf1.obj
 0001:000ebb2d       _hb_dbfRddInfo             004ecb2d f   DBF:dbf1.obj
 0001:000ec1e7       __hb_dbf_rdd_init_         004ed1e7 f   DBF:dbf1.obj
 0001:000ec1a2       _dbf1__InitSymbols         004ed1a2 f   DBF:dbf1.obj
 0001:000ec555       _hb_fptHasDirectAccess     004ed555 f   DBF:dbffpt1.obj
 0001:000ec83e       _hb_fptPackGCitems         004ed83e f   DBF:dbffpt1.obj
 0001:000eca22       _hb_fptWriteGCitems        004eda22 f   DBF:dbffpt1.obj
 0001:000ec712       _hb_fptSortGCitems         004ed712 f   DBF:dbffpt1.obj
 0001:000ed15a       _hb_fptDestroyGCdata       004ee15a f   DBF:dbffpt1.obj
 0001:000ecf39       _hb_fptGCgetFreeBlock      004edf39 f   DBF:dbffpt1.obj
 0001:000ee091       _hb_fptCountSMTItemLength  004ef091 f   DBF:dbffpt1.obj
 0001:000ee287       _hb_fptCountSMTDataLength  004ef287 f   DBF:dbffpt1.obj
 0001:000ee456       _hb_fptStoreSMTItem        004ef456 f   DBF:dbffpt1.obj
 0001:000ee7f6       _hb_fptReadRawSMTItem      004ef7f6 f   DBF:dbffpt1.obj
 0001:000eec1f       _hb_fptReadSMTItem         004efc1f f   DBF:dbffpt1.obj
 0001:000eef68       _hb_fptCountSixItemLength  004eff68 f   DBF:dbffpt1.obj
 0001:000ef110       _hb_fptStoreSixItem        004f0110 f   DBF:dbffpt1.obj
 0001:000ef52d       _hb_fptReadSixItem         004f052d f   DBF:dbffpt1.obj
 0001:000ef7f5       _hb_fptCountFlexItemLength 004f07f5 f   DBF:dbffpt1.obj
 0001:000efa5e       _hb_fptStoreFlexItem       004f0a5e f   DBF:dbffpt1.obj
 0001:000eff2a       _hb_fptReadFlexItem        004f0f2a f   DBF:dbffpt1.obj
 0001:000f09a4       _hb_fptCopyToRawFile       004f19a4 f   DBF:dbffpt1.obj
 0001:000edc1a       _hb_fptGetMemoLen          004eec1a f   DBF:dbffpt1.obj
 0001:000ed142       _hb_fptInitGCdata          004ee142 f   DBF:dbffpt1.obj
 0001:000ed197       _hb_fptReadGCdata          004ee197 f   DBF:dbffpt1.obj
 0001:000ecbb1       _hb_fptGCfreeBlock         004edbb1 f   DBF:dbffpt1.obj
 0001:000ed5b0       _hb_fptWriteGCdata         004ee5b0 f   DBF:dbffpt1.obj
 0001:000f1919       _hb_fptWriteMemo           004f2919 f   DBF:dbffpt1.obj
 0001:000f25a3       _hb_fptLockForRead         004f35a3 f   DBF:dbffpt1.obj
 0001:000f0d14       _hb_fptReadRawBlock        004f1d14 f   DBF:dbffpt1.obj
 0001:000f0f94       _hb_fptReadSMTBlock        004f1f94 f   DBF:dbffpt1.obj
 0001:000f0df0       _hb_fptReadBlobBlock       004f1df0 f   DBF:dbffpt1.obj
 0001:000f10c4       _hb_fptGetMemo             004f20c4 f   DBF:dbffpt1.obj
 0001:000ec506       _hb_fptFileUnLockSh        004ed506 f   DBF:dbffpt1.obj
 0001:000ec200       _hb_memoErrorRT            004ed200 f   DBF:dbffpt1.obj
 0001:000ec394       _hb_fptFileLockEx          004ed394 f   DBF:dbffpt1.obj
 0001:000ec4b7       _hb_fptFileUnLockEx        004ed4b7 f   DBF:dbffpt1.obj
 0001:000f1f1a       _hb_fptPutMemo             004f2f1a f   DBF:dbffpt1.obj
 0001:000f25ce       _hb_fptGetVarField         004f35ce f   DBF:dbffpt1.obj
 0001:000f2ec2       _hb_fptPutVarField         004f3ec2 f   DBF:dbffpt1.obj
 0001:000ec423       _hb_fptFileLockSh          004ed423 f   DBF:dbffpt1.obj
 0001:000f0b53       _hb_fptCopyToFile          004f1b53 f   DBF:dbffpt1.obj
 0001:000f4d24       _hb_fptDoPackRec           004f5d24 f   DBF:dbffpt1.obj
 0001:000ec328       _hb_memoDefaultFileExt     004ed328 f   DBF:dbffpt1.obj
 0001:000f52c4       _hb_fptDoPack              004f62c4 f   DBF:dbffpt1.obj
 0001:000f2bce       _hb_fptGetVarFile          004f3bce f   DBF:dbffpt1.obj
 0001:000f2d05       _hb_fptPutVarFile          004f3d05 f   DBF:dbffpt1.obj
 0001:000ec63b       _hb_fptGetRootBlock        004ed63b f   DBF:dbffpt1.obj
 0001:000ec6ac       _hb_fptPutRootBlock        004ed6ac f   DBF:dbffpt1.obj
 0001:000ec59e       _hb_fptRootBlockLock       004ed59e f   DBF:dbffpt1.obj
 0001:000ec5e9       _hb_fptRootBlockUnLock     004ed5e9 f   DBF:dbffpt1.obj
 0001:000eddaa       _hb_fptGetMemoType         004eedaa f   DBF:dbffpt1.obj
 0001:000f6bc7       _hb_dbffptRegisterRDD      004f7bc7 f   DBF:dbffpt1.obj
 0001:000f6c99       _hb_dbffptRddInit          004f7c99 f   DBF:dbffpt1.obj
 0001:000f64d1       _hb_fptFieldInfo           004f74d1 f   DBF:dbffpt1.obj
 0001:000f383e       _hb_fptGetValue            004f483e f   DBF:dbffpt1.obj
 0001:000f3759       _hb_fptGetVarLen           004f4759 f   DBF:dbffpt1.obj
 0001:000f38cc       _hb_fptPutValue            004f48cc f   DBF:dbffpt1.obj
 0001:000f5bd7       _hb_fptInfo                004f6bd7 f   DBF:dbffpt1.obj
 0001:000f3747       _hb_fptStructSize          004f4747 f   DBF:dbffpt1.obj
 0001:000f58a2       _hb_fptPack                004f68a2 f   DBF:dbffpt1.obj
 0001:000f57ed       _hb_fptPackRec             004f67ed f   DBF:dbffpt1.obj
 0001:000f3958       _hb_fptCreateMemFile       004f4958 f   DBF:dbffpt1.obj
 0001:000f4139       _hb_fptGetValueFile        004f5139 f   DBF:dbffpt1.obj
 0001:000f4318       _hb_fptOpenMemFile         004f5318 f   DBF:dbffpt1.obj
 0001:000f486b       _hb_fptPutValueFile        004f586b f   DBF:dbffpt1.obj
 0001:000f6793       _hb_fptRddInfo             004f7793 f   DBF:dbffpt1.obj
 0001:000f6d43       __hb_dbffpt_rdd_init_      004f7d43 f   DBF:dbffpt1.obj
 0001:000f6cfe       _dbffpt1__InitSymbols      004f7cfe f   DBF:dbffpt1.obj
 0001:000f6d60       _hb_sxInitSeed             004f7d60 f   DBF:sxcrypt.obj
 0001:000f6dc5       _hb_sxNextSeed             004f7dc5 f   DBF:sxcrypt.obj
 0001:000f6fde       __hb_sxGetKey              004f7fde f   DBF:sxcrypt.obj
 0001:000f75e0       _hb_dbQSortIsLess          004f85e0 f   DBF:hbdbsort.obj
 0001:000f7979       _hb_dbQSortSwap            004f8979 f   DBF:hbdbsort.obj
 0001:000f7a9b       _hb_dbQSortDo              004f8a9b f   DBF:hbdbsort.obj
 0001:000f7fa2       _hb_ntxKeyNew              004f8fa2 f   NTX:dbfntx1.obj
 0001:000f8078       _hb_ntxItemType            004f9078 f   NTX:dbfntx1.obj
 0001:000f7e00       _hb_ntxNumToStr            004f8e00 f   NTX:dbfntx1.obj
 0001:000f7ea0       _hb_ntxStrToNum            004f8ea0 f   NTX:dbfntx1.obj
 0001:000f840e       _hb_ntxKeyGetItem          004f940e f   NTX:dbfntx1.obj
 0001:000f8197       _hb_ntxKeyPutItem          004f9197 f   NTX:dbfntx1.obj
 0001:000f88c7       _hb_ntxValCompare          004f98c7 f   NTX:dbfntx1.obj
 0001:000f8a1c       _hb_ntxInTopScope          004f9a1c f   NTX:dbfntx1.obj
 0001:000f8aec       _hb_ntxInBottomScope       004f9aec f   NTX:dbfntx1.obj
 0001:000f816a       _hb_ntxItemTypeCmp         004f916a f   NTX:dbfntx1.obj
 0001:000f8c14       _hb_ntxTagClearScope       004f9c14 f   NTX:dbfntx1.obj
 0001:000f7cf0       _hb_ntxErrorRT             004f8cf0 f   NTX:dbfntx1.obj
 0001:000f91ac       _hb_ntxBlockWrite          004fa1ac f   NTX:dbfntx1.obj
 0001:000f90eb       _hb_ntxBlockRead           004fa0eb f   NTX:dbfntx1.obj
 0001:000f937e       _hb_ntxTagUpdateFlags      004fa37e f   NTX:dbfntx1.obj
 0001:000f951a       _hb_ntxFreePageBuffer      004fa51a f   NTX:dbfntx1.obj
 0001:000f9483       _hb_ntxTagHeaderCheck      004fa483 f   NTX:dbfntx1.obj
 0001:000f9646       _hb_ntxPageFind            004fa646 f   NTX:dbfntx1.obj
 0001:000f96b1       _hb_ntxPageGetBuffer       004fa6b1 f   NTX:dbfntx1.obj
 0001:000f9986       _hb_ntxPageRelease         004fa986 f   NTX:dbfntx1.obj
 0001:000f9a72       _hb_ntxPageLoad            004faa72 f   NTX:dbfntx1.obj
 0001:000f9bfe       _hb_ntxPageInit            004fabfe f   NTX:dbfntx1.obj
 0001:000f9c76       _hb_ntxPageAlloc           004fac76 f   NTX:dbfntx1.obj
 0001:000f993f       _hb_ntxPageFree            004fa93f f   NTX:dbfntx1.obj
 0001:000f9263       _hb_ntxPageSave            004fa263 f   NTX:dbfntx1.obj
 0001:000f9d1a       _hb_ntxPageNew             004fad1a f   NTX:dbfntx1.obj
 0001:000fa0af       _hb_ntxTagFree             004fb0af f   NTX:dbfntx1.obj
 0001:000f9ebd       _hb_ntxTagNew              004faebd f   NTX:dbfntx1.obj
 0001:000f86c2       _hb_ntxGetKeyType          004f96c2 f   NTX:dbfntx1.obj
 0001:000f9e6a       _hb_ntxPageGetFree         004fae6a f   NTX:dbfntx1.obj
 0001:000fa6de       _hb_ntxIndexTagAdd         004fb6de f   NTX:dbfntx1.obj
 0001:000f9dfd       _hb_ntxPageAddFree         004fadfd f   NTX:dbfntx1.obj
 0001:000fa369       _hb_ntxTagLoad             004fb369 f   NTX:dbfntx1.obj
 0001:000fa2d1       _hb_ntxTagAdd              004fb2d1 f   NTX:dbfntx1.obj
 0001:000f92d1       _hb_ntxDiscardBuffers      004fa2d1 f   NTX:dbfntx1.obj
 0001:000fa884       _hb_ntxIndexTagFind        004fb884 f   NTX:dbfntx1.obj
 0001:000fa8f0       _hb_ntxTagHeaderSave       004fb8f0 f   NTX:dbfntx1.obj
 0001:000fafa9       _hb_ntxIndexHeaderSave     004fbfa9 f   NTX:dbfntx1.obj
 0001:000fb2fb       _hb_ntxIndexHeaderRead     004fc2fb f   NTX:dbfntx1.obj
 0001:000fb553       _hb_ntxIndexFlush          004fc553 f   NTX:dbfntx1.obj
 0001:000fb689       _hb_ntxIndexLockRead       004fc689 f   NTX:dbfntx1.obj
 0001:000fb8e5       _hb_ntxIndexUnLockRead     004fc8e5 f   NTX:dbfntx1.obj
 0001:000fb7ad       _hb_ntxIndexLockWrite      004fc7ad f   NTX:dbfntx1.obj
 0001:000fb9c9       _hb_ntxIndexUnLockWrite    004fc9c9 f   NTX:dbfntx1.obj
 0001:000fbc46       _hb_ntxTagSetPageStack     004fcc46 f   NTX:dbfntx1.obj
 0001:000fbcf5       _hb_ntxPageTopMove         004fccf5 f   NTX:dbfntx1.obj
 0001:000fbbce       _hb_ntxPageGetKey          004fcbce f   NTX:dbfntx1.obj
 0001:000fbd7a       _hb_ntxPageBottomMove      004fcd7a f   NTX:dbfntx1.obj
 0001:000fc340       _hb_ntxPageKeyFind         004fd340 f   NTX:dbfntx1.obj
 0001:000fc525       _hb_ntxPageFindRecNo       004fd525 f   NTX:dbfntx1.obj
 0001:000fbf6b       _hb_ntxTagNextKey          004fcf6b f   NTX:dbfntx1.obj
 0001:000fc16a       _hb_ntxTagPrevKey          004fd16a f   NTX:dbfntx1.obj
 0001:000fc98c       _hb_ntxPageKeySet          004fd98c f   NTX:dbfntx1.obj
 0001:000fca7f       _hb_ntxPageKeyDel          004fda7f f   NTX:dbfntx1.obj
 0001:000fc581       _hb_ntxTagKeyFind          004fd581 f   NTX:dbfntx1.obj
 0001:000f8020       _hb_ntxKeyCopy             004f9020 f   NTX:dbfntx1.obj
 0001:000fc9ec       _hb_ntxPageKeyAdd          004fd9ec f   NTX:dbfntx1.obj
 0001:000fcf7f       _hb_ntxBalancePages        004fdf7f f   NTX:dbfntx1.obj
 0001:000fcaf5       _hb_ntxPageSplit           004fdaf5 f   NTX:dbfntx1.obj
 0001:000fce31       _hb_ntxPageJoin            004fde31 f   NTX:dbfntx1.obj
 0001:000f87a0       _hb_ntxEvalKey             004f97a0 f   NTX:dbfntx1.obj
 0001:000f8bbc       _hb_ntxKeyInScope          004f9bbc f   NTX:dbfntx1.obj
 0001:000f90a3       _hb_ntxCheckRecordScope    004fa0a3 f   NTX:dbfntx1.obj
 0001:000fbecc       _hb_ntxTagBottomKey        004fcecc f   NTX:dbfntx1.obj
 0001:000fbe3b       _hb_ntxTagTopKey           004fce3b f   NTX:dbfntx1.obj
 0001:000fe192       _hb_ntxTagSkipFilter       004ff192 f   NTX:dbfntx1.obj
 0001:000fe302       _hb_ntxTagGoTop            004ff302 f   NTX:dbfntx1.obj
 0001:000fe406       _hb_ntxTagGoBottom         004ff406 f   NTX:dbfntx1.obj
 0001:000fe752       _hb_ntxPageCountKeys       004ff752 f   NTX:dbfntx1.obj
 0001:000feacc       _hb_ntxTagPagesFree        004ffacc f   NTX:dbfntx1.obj
 0001:000fa7cf       _hb_ntxIndexTagDel         004fb7cf f   NTX:dbfntx1.obj
 0001:000fa1e6       _hb_ntxTagDelete           004fb1e6 f   NTX:dbfntx1.obj
 0001:000fef12       _hb_ntxFindBag             004fff12 f   NTX:dbfntx1.obj
 0001:000ff05c       _hb_ntxFindTagByName       0050005c f   NTX:dbfntx1.obj
 0001:000fbaa0       _hb_ntxTagLockRead         004fcaa0 f   NTX:dbfntx1.obj
 0001:000f8fb4       _hb_ntxTagRefreshScope     004f9fb4 f   NTX:dbfntx1.obj
 0001:000fe50a       _hb_ntxTagSkipNext         004ff50a f   NTX:dbfntx1.obj
 0001:000fbba0       _hb_ntxTagUnLockRead       004fcba0 f   NTX:dbfntx1.obj
 0001:000fded2       _hb_ntxCurKeyRefresh       004feed2 f   NTX:dbfntx1.obj
 0001:000fe645       _hb_ntxTagSkipPrev         004ff645 f   NTX:dbfntx1.obj
 0001:000fe7fa       _hb_ntxTagCountRelKeyPos   004ff7fa f   NTX:dbfntx1.obj
 0001:000fe8f5       _hb_ntxTagGoToRelKeyPos    004ff8f5 f   NTX:dbfntx1.obj
 0001:000f863f       _hb_ntxEvalSeekCond        004f963f f   NTX:dbfntx1.obj
 0001:001009b8       _hb_ntxRegexMatch          005019b8 f   NTX:dbfntx1.obj
 0001:000f85bf       _hb_ntxEvalCond            004f95bf f   NTX:dbfntx1.obj
 0001:000fbb1f       _hb_ntxTagLockWrite        004fcb1f f   NTX:dbfntx1.obj
 0001:000fd331       _hb_ntxTagKeyAdd           004fe331 f   NTX:dbfntx1.obj
 0001:000fbbb7       _hb_ntxTagUnLockWrite      004fcbb7 f   NTX:dbfntx1.obj
 0001:000fd9f9       _hb_ntxTagKeyDel           004fe9f9 f   NTX:dbfntx1.obj
 0001:000f8ee5       _hb_ntxTagGetScope         004f9ee5 f   NTX:dbfntx1.obj
 0001:000f8d15       _hb_ntxTagSetScope         004f9d15 f   NTX:dbfntx1.obj
 0001:00101424       _hb_ntxQSort               00502424 f   NTX:dbfntx1.obj
 0001:00101390       _hb_ntxQuickSortCompare    00502390 f   NTX:dbfntx1.obj
 0001:0010165e       _hb_ntxSortBufferFlush     0050265e f   NTX:dbfntx1.obj
 0001:00101748       _hb_ntxSortStorePage       00502748 f   NTX:dbfntx1.obj
 0001:001015fc       _hb_ntxSortSortPage        005025fc f   NTX:dbfntx1.obj
 0001:00101b9d       _hb_ntxSortGetPageKey      00502b9d f   NTX:dbfntx1.obj
 0001:001019f2       _hb_ntxSortWritePage       005029f2 f   NTX:dbfntx1.obj
 0001:00101d93       _hb_ntxSortOrderPages      00502d93 f   NTX:dbfntx1.obj
 0001:00101f81       _hb_ntxSortKeyGet          00502f81 f   NTX:dbfntx1.obj
 0001:001018bd       _hb_ntxSortAddNodeKey      005028bd f   NTX:dbfntx1.obj
 0001:001025a7       _hb_ntxSortFree            005035a7 f   NTX:dbfntx1.obj
 0001:00102307       _hb_ntxSortNew             00503307 f   NTX:dbfntx1.obj
 0001:0010224a       _hb_ntxSortKeyAdd          0050324a f   NTX:dbfntx1.obj
 0001:001026d1       _hb_ntxSortOut             005036d1 f   NTX:dbfntx1.obj
 0001:000f95c9       _hb_ntxIndexTrunc          004fa5c9 f   NTX:dbfntx1.obj
 0001:00102b87       _hb_ntxTagCreate           00503b87 f   NTX:dbfntx1.obj
 0001:000fae82       _hb_ntxIndexFree           004fbe82 f   NTX:dbfntx1.obj
 0001:000fec58       _hb_ntxCreateFName         004ffc58 f   NTX:dbfntx1.obj
 0001:000fae3f       _hb_ntxIndexNew            004fbe3f f   NTX:dbfntx1.obj
 0001:000fb09d       _hb_ntxIndexLoad           004fc09d f   NTX:dbfntx1.obj
 0001:000ff0ba       _hb_ntxFindTag             005000ba f   NTX:dbfntx1.obj
 0001:000febc8       _hb_ntxTagSpaceFree        004ffbc8 f   NTX:dbfntx1.obj
 0001:000ff31f       _hb_ntxFindTagNum          0050031f f   NTX:dbfntx1.obj
 0001:000ff3bd       _hb_ntxOrdKeyCount         005003bd f   NTX:dbfntx1.obj
 0001:000ff70b       _hb_ntxOrdKeyGoto          0050070b f   NTX:dbfntx1.obj
 0001:000ff4ca       _hb_ntxOrdKeyNo            005004ca f   NTX:dbfntx1.obj
 0001:000ffa5c       _hb_ntxOrdSetRelKeyPos     00500a5c f   NTX:dbfntx1.obj
 0001:000ff81b       _hb_ntxOrdGetRelKeyPos     0050081b f   NTX:dbfntx1.obj
 0001:00100dd3       _hb_ntxOrdKeyAdd           00501dd3 f   NTX:dbfntx1.obj
 0001:00100f54       _hb_ntxOrdKeyDel           00501f54 f   NTX:dbfntx1.obj
 0001:000ffe25       _hb_ntxOrdSkipUnique       00500e25 f   NTX:dbfntx1.obj
 0001:00100108       _hb_ntxOrdSkipEval         00501108 f   NTX:dbfntx1.obj
 0001:00100451       _hb_ntxOrdSkipWild         00501451 f   NTX:dbfntx1.obj
 0001:00100a50       _hb_ntxOrdSkipRegEx        00501a50 f   NTX:dbfntx1.obj
 0001:00101119       _hb_ntxOrdFindRec          00502119 f   NTX:dbfntx1.obj
 0001:00101267       _hb_ntxOrdScopeEval        00502267 f   NTX:dbfntx1.obj
 0001:0010365a       _hb_ntxReIndex             0050465a f   NTX:dbfntx1.obj
 0001:00108809       _hb_dbfntxRddInit          00509809 f   NTX:dbfntx1.obj
 0001:00103717       _hb_ntxGoBottom            00504717 f   NTX:dbfntx1.obj
 0001:0010387d       _hb_ntxGoTop               0050487d f   NTX:dbfntx1.obj
 0001:001039e3       _hb_ntxSeek                005049e3 f   NTX:dbfntx1.obj
 0001:00103e1d       _hb_ntxSkipRaw             00504e1d f   NTX:dbfntx1.obj
 0001:001040c7       _hb_ntxFlush               005050c7 f   NTX:dbfntx1.obj
 0001:0010415b       _hb_ntxGoCold              0050515b f   NTX:dbfntx1.obj
 0001:00104622       _hb_ntxGoHot               00505622 f   NTX:dbfntx1.obj
 0001:00104736       _hb_ntxClose               00505736 f   NTX:dbfntx1.obj
 0001:00104812       _hb_ntxOpen                00505812 f   NTX:dbfntx1.obj
 0001:00104800       _hb_ntxStructSize          00505800 f   NTX:dbfntx1.obj
 0001:001049d3       _hb_ntxPack                005059d3 f   NTX:dbfntx1.obj
 0001:00104a14       _hb_ntxZap                 00505a14 f   NTX:dbfntx1.obj
 0001:00107bde       _hb_ntxOrderListAdd        00508bde f   NTX:dbfntx1.obj
 0001:00107f80       _hb_ntxOrderListClear      00508f80 f   NTX:dbfntx1.obj
 0001:00108078       _hb_ntxOrderListDelete     00509078 f   NTX:dbfntx1.obj
 0001:001081c8       _hb_ntxOrderListFocus      005091c8 f   NTX:dbfntx1.obj
 0001:0010824d       _hb_ntxOrderListRebuild    0050924d f   NTX:dbfntx1.obj
 0001:00104a55       _hb_ntxOrderCreate         00505a55 f   NTX:dbfntx1.obj
 0001:00105c83       _hb_ntxOrderDestroy        00506c83 f   NTX:dbfntx1.obj
 0001:00105ea7       _hb_ntxOrderInfo           00506ea7 f   NTX:dbfntx1.obj
 0001:001083ad       _hb_ntxCountScope          005093ad f   NTX:dbfntx1.obj
 0001:001083e0       _hb_ntxInit                005093e0 f   NTX:dbfntx1.obj
 0001:0010844a       _hb_ntxRddInfo             0050944a f   NTX:dbfntx1.obj
 0001:001088af       __hb_dbfntx_rdd_init_      005098af f   NTX:dbfntx1.obj
 0001:0010886a       _dbfntx1__InitSymbols      0050986a f   NTX:dbfntx1.obj
 0001:00108a20       _prout                     00509a20 f   crt:vsnprintf.obj
 0001:00108d80       _prout                     00509d80 f   crt:sprintf.obj
 0001:00108e20       _grabhunk                  00509e20 f   crt:malloc.obj
 0001:001099a0       _closeall                  0050a9a0 f   crt:fclose.obj
 0001:00109c60       _scin                      0050ac60 f   crt:sscanf.obj
 0001:0010ae20       _prout                     0050be20 f   crt:printf.obj
 0001:0010afe0       _prout                     0050bfe0 f   crt:vfprintf.obj
 0001:0010b080       _prout                     0050c080 f   crt:fprintf.obj
 0001:0010b830       _swap                      0050c830 f   crt:qsort.obj
 0001:0010ba60       _med3                      0050ca60 f   crt:qsort.obj
 0001:0010bad0       _median                    0050cad0 f   crt:qsort.obj
 0001:0010b8e0       _rot3                      0050c8e0 f   crt:qsort.obj
 0001:0010bc70       _intro_sort                0050cc70 f   crt:qsort.obj
 0001:0010bba0       _adjust_heap               0050cba0 f   crt:qsort.obj
 0001:0010b9c0       _rotate                    0050c9c0 f   crt:qsort.obj
 0001:0010c4e0       _parse_cmdline             0050d4e0 f   crt:_setargv.obj
 0001:0010e340       _ctrlevent_capture@4       0050f340 f   crt:signal.obj
 0001:00110b90       _rangematch                00511b90 f   crt:_getstr.obj
 0001:001130d0       _dmul                      005140d0 f   crt:_fppow10l.obj
